ARM GAS  /tmp/cc0nCfge.s 			page 1


   1              		.cpu cortex-m3
   2              		.eabi_attribute 20, 1
   3              		.eabi_attribute 21, 1
   4              		.eabi_attribute 23, 3
   5              		.eabi_attribute 24, 1
   6              		.eabi_attribute 25, 1
   7              		.eabi_attribute 26, 1
   8              		.eabi_attribute 30, 1
   9              		.eabi_attribute 34, 1
  10              		.eabi_attribute 18, 4
  11              		.file	"ADXL345.c"
  12              		.text
  13              	.Ltext0:
  14              		.cfi_sections	.debug_frame
  15              		.section	.text.ADXL345_WriteReg,"ax",%progbits
  16              		.align	1
  17              		.arch armv7-m
  18              		.syntax unified
  19              		.thumb
  20              		.thumb_func
  21              		.fpu softvfp
  23              	ADXL345_WriteReg:
  24              	.LVL0:
  25              	.LFB66:
  26              		.file 1 "sensor_device/ADXL345.c"
   1:sensor_device/ADXL345.c **** #include "ADXL345.h"
   2:sensor_device/ADXL345.c **** 
   3:sensor_device/ADXL345.c **** // SPI读寄存器
   4:sensor_device/ADXL345.c **** static uint8_t ADXL345_ReadReg(uint8_t reg)
   5:sensor_device/ADXL345.c **** {
   6:sensor_device/ADXL345.c ****     uint8_t tx = reg | 0x80; // 设置读位
   7:sensor_device/ADXL345.c ****     uint8_t rx = 0;
   8:sensor_device/ADXL345.c **** 
   9:sensor_device/ADXL345.c ****     ADXL345_CS_LOW();
  10:sensor_device/ADXL345.c ****     HAL_SPI_Transmit(&hspi2, &tx, 1, HAL_MAX_DELAY);
  11:sensor_device/ADXL345.c ****     HAL_SPI_Receive(&hspi2, &rx, 1, HAL_MAX_DELAY);
  12:sensor_device/ADXL345.c ****     ADXL345_CS_HIGH();
  13:sensor_device/ADXL345.c **** 
  14:sensor_device/ADXL345.c ****     return rx;
  15:sensor_device/ADXL345.c **** }
  16:sensor_device/ADXL345.c **** 
  17:sensor_device/ADXL345.c **** // SPI写寄存器
  18:sensor_device/ADXL345.c **** static void ADXL345_WriteReg(uint8_t reg, uint8_t data)
  19:sensor_device/ADXL345.c **** {
  27              		.loc 1 19 1 view -0
  28              		.cfi_startproc
  29              		@ args = 0, pretend = 0, frame = 8
  30              		@ frame_needed = 0, uses_anonymous_args = 0
  31              		.loc 1 19 1 is_stmt 0 view .LVU1
  32 0000 10B5     		push	{r4, lr}
  33              	.LCFI0:
  34              		.cfi_def_cfa_offset 8
  35              		.cfi_offset 4, -8
  36              		.cfi_offset 14, -4
  37 0002 82B0     		sub	sp, sp, #8
  38              	.LCFI1:
  39              		.cfi_def_cfa_offset 16
ARM GAS  /tmp/cc0nCfge.s 			page 2


  20:sensor_device/ADXL345.c ****     uint8_t tx[2] = {reg & 0x7F, data}; // 确保写位清零
  40              		.loc 1 20 5 is_stmt 1 view .LVU2
  41              		.loc 1 20 26 is_stmt 0 view .LVU3
  42 0004 00F07F00 		and	r0, r0, #127
  43              	.LVL1:
  44              		.loc 1 20 13 view .LVU4
  45 0008 8DF80400 		strb	r0, [sp, #4]
  46 000c 8DF80510 		strb	r1, [sp, #5]
  21:sensor_device/ADXL345.c **** 
  22:sensor_device/ADXL345.c ****     ADXL345_CS_LOW();
  47              		.loc 1 22 5 is_stmt 1 view .LVU5
  48 0010 0A4C     		ldr	r4, .L3
  49 0012 0022     		movs	r2, #0
  50 0014 4FF48051 		mov	r1, #4096
  51              	.LVL2:
  52              		.loc 1 22 5 is_stmt 0 view .LVU6
  53 0018 2046     		mov	r0, r4
  54 001a FFF7FEFF 		bl	HAL_GPIO_WritePin
  55              	.LVL3:
  23:sensor_device/ADXL345.c ****     HAL_SPI_Transmit(&hspi2, tx, 2, HAL_MAX_DELAY);
  56              		.loc 1 23 5 is_stmt 1 view .LVU7
  57 001e 4FF0FF33 		mov	r3, #-1
  58 0022 0222     		movs	r2, #2
  59 0024 01A9     		add	r1, sp, #4
  60 0026 0648     		ldr	r0, .L3+4
  61 0028 FFF7FEFF 		bl	HAL_SPI_Transmit
  62              	.LVL4:
  24:sensor_device/ADXL345.c ****     ADXL345_CS_HIGH();
  63              		.loc 1 24 5 view .LVU8
  64 002c 0122     		movs	r2, #1
  65 002e 4FF48051 		mov	r1, #4096
  66 0032 2046     		mov	r0, r4
  67 0034 FFF7FEFF 		bl	HAL_GPIO_WritePin
  68              	.LVL5:
  25:sensor_device/ADXL345.c **** }
  69              		.loc 1 25 1 is_stmt 0 view .LVU9
  70 0038 02B0     		add	sp, sp, #8
  71              	.LCFI2:
  72              		.cfi_def_cfa_offset 8
  73              		@ sp needed
  74 003a 10BD     		pop	{r4, pc}
  75              	.L4:
  76              		.align	2
  77              	.L3:
  78 003c 000C0140 		.word	1073810432
  79 0040 00000000 		.word	hspi2
  80              		.cfi_endproc
  81              	.LFE66:
  83              		.section	.text.ADXL345_ReadReg,"ax",%progbits
  84              		.align	1
  85              		.syntax unified
  86              		.thumb
  87              		.thumb_func
  88              		.fpu softvfp
  90              	ADXL345_ReadReg:
  91              	.LVL6:
  92              	.LFB65:
ARM GAS  /tmp/cc0nCfge.s 			page 3


   5:sensor_device/ADXL345.c ****     uint8_t tx = reg | 0x80; // 设置读位
  93              		.loc 1 5 1 is_stmt 1 view -0
  94              		.cfi_startproc
  95              		@ args = 0, pretend = 0, frame = 8
  96              		@ frame_needed = 0, uses_anonymous_args = 0
   5:sensor_device/ADXL345.c ****     uint8_t tx = reg | 0x80; // 设置读位
  97              		.loc 1 5 1 is_stmt 0 view .LVU11
  98 0000 30B5     		push	{r4, r5, lr}
  99              	.LCFI3:
 100              		.cfi_def_cfa_offset 12
 101              		.cfi_offset 4, -12
 102              		.cfi_offset 5, -8
 103              		.cfi_offset 14, -4
 104 0002 83B0     		sub	sp, sp, #12
 105              	.LCFI4:
 106              		.cfi_def_cfa_offset 24
   6:sensor_device/ADXL345.c ****     uint8_t rx = 0;
 107              		.loc 1 6 5 is_stmt 1 view .LVU12
   6:sensor_device/ADXL345.c ****     uint8_t rx = 0;
 108              		.loc 1 6 13 is_stmt 0 view .LVU13
 109 0004 60F07F00 		orn	r0, r0, #127
 110              	.LVL7:
   6:sensor_device/ADXL345.c ****     uint8_t rx = 0;
 111              		.loc 1 6 13 view .LVU14
 112 0008 8DF80700 		strb	r0, [sp, #7]
   7:sensor_device/ADXL345.c **** 
 113              		.loc 1 7 5 is_stmt 1 view .LVU15
   7:sensor_device/ADXL345.c **** 
 114              		.loc 1 7 13 is_stmt 0 view .LVU16
 115 000c 0022     		movs	r2, #0
 116 000e 8DF80620 		strb	r2, [sp, #6]
   9:sensor_device/ADXL345.c ****     HAL_SPI_Transmit(&hspi2, &tx, 1, HAL_MAX_DELAY);
 117              		.loc 1 9 5 is_stmt 1 view .LVU17
 118 0012 104C     		ldr	r4, .L7
 119 0014 4FF48051 		mov	r1, #4096
 120 0018 2046     		mov	r0, r4
 121 001a FFF7FEFF 		bl	HAL_GPIO_WritePin
 122              	.LVL8:
  10:sensor_device/ADXL345.c ****     HAL_SPI_Receive(&hspi2, &rx, 1, HAL_MAX_DELAY);
 123              		.loc 1 10 5 view .LVU18
 124 001e 0E4D     		ldr	r5, .L7+4
 125 0020 4FF0FF33 		mov	r3, #-1
 126 0024 0122     		movs	r2, #1
 127 0026 0DF10701 		add	r1, sp, #7
 128 002a 2846     		mov	r0, r5
 129 002c FFF7FEFF 		bl	HAL_SPI_Transmit
 130              	.LVL9:
  11:sensor_device/ADXL345.c ****     ADXL345_CS_HIGH();
 131              		.loc 1 11 5 view .LVU19
 132 0030 4FF0FF33 		mov	r3, #-1
 133 0034 0122     		movs	r2, #1
 134 0036 0DF10601 		add	r1, sp, #6
 135 003a 2846     		mov	r0, r5
 136 003c FFF7FEFF 		bl	HAL_SPI_Receive
 137              	.LVL10:
  12:sensor_device/ADXL345.c **** 
 138              		.loc 1 12 5 view .LVU20
ARM GAS  /tmp/cc0nCfge.s 			page 4


 139 0040 0122     		movs	r2, #1
 140 0042 4FF48051 		mov	r1, #4096
 141 0046 2046     		mov	r0, r4
 142 0048 FFF7FEFF 		bl	HAL_GPIO_WritePin
 143              	.LVL11:
  14:sensor_device/ADXL345.c **** }
 144              		.loc 1 14 5 view .LVU21
  15:sensor_device/ADXL345.c **** 
 145              		.loc 1 15 1 is_stmt 0 view .LVU22
 146 004c 9DF80600 		ldrb	r0, [sp, #6]	@ zero_extendqisi2
 147 0050 03B0     		add	sp, sp, #12
 148              	.LCFI5:
 149              		.cfi_def_cfa_offset 12
 150              		@ sp needed
 151 0052 30BD     		pop	{r4, r5, pc}
 152              	.L8:
 153              		.align	2
 154              	.L7:
 155 0054 000C0140 		.word	1073810432
 156 0058 00000000 		.word	hspi2
 157              		.cfi_endproc
 158              	.LFE65:
 160              		.section	.text.ADXL345_ReadID,"ax",%progbits
 161              		.align	1
 162              		.global	ADXL345_ReadID
 163              		.syntax unified
 164              		.thumb
 165              		.thumb_func
 166              		.fpu softvfp
 168              	ADXL345_ReadID:
 169              	.LFB67:
  26:sensor_device/ADXL345.c **** 
  27:sensor_device/ADXL345.c **** // 读取设备ID（期望返回0xE5）
  28:sensor_device/ADXL345.c **** uint8_t ADXL345_ReadID(void)
  29:sensor_device/ADXL345.c **** {
 170              		.loc 1 29 1 is_stmt 1 view -0
 171              		.cfi_startproc
 172              		@ args = 0, pretend = 0, frame = 0
 173              		@ frame_needed = 0, uses_anonymous_args = 0
 174 0000 08B5     		push	{r3, lr}
 175              	.LCFI6:
 176              		.cfi_def_cfa_offset 8
 177              		.cfi_offset 3, -8
 178              		.cfi_offset 14, -4
  30:sensor_device/ADXL345.c ****     return ADXL345_ReadReg(ADXL345_DEVID);
 179              		.loc 1 30 5 view .LVU24
 180              		.loc 1 30 12 is_stmt 0 view .LVU25
 181 0002 0020     		movs	r0, #0
 182 0004 FFF7FEFF 		bl	ADXL345_ReadReg
 183              	.LVL12:
  31:sensor_device/ADXL345.c **** }
 184              		.loc 1 31 1 view .LVU26
 185 0008 08BD     		pop	{r3, pc}
 186              		.cfi_endproc
 187              	.LFE67:
 189              		.section	.text.ADXL345_Init,"ax",%progbits
 190              		.align	1
ARM GAS  /tmp/cc0nCfge.s 			page 5


 191              		.global	ADXL345_Init
 192              		.syntax unified
 193              		.thumb
 194              		.thumb_func
 195              		.fpu softvfp
 197              	ADXL345_Init:
 198              	.LFB68:
  32:sensor_device/ADXL345.c **** 
  33:sensor_device/ADXL345.c **** // 初始化ADXL345
  34:sensor_device/ADXL345.c **** void ADXL345_Init(void)
  35:sensor_device/ADXL345.c **** {
 199              		.loc 1 35 1 is_stmt 1 view -0
 200              		.cfi_startproc
 201              		@ args = 0, pretend = 0, frame = 0
 202              		@ frame_needed = 0, uses_anonymous_args = 0
 203 0000 08B5     		push	{r3, lr}
 204              	.LCFI7:
 205              		.cfi_def_cfa_offset 8
 206              		.cfi_offset 3, -8
 207              		.cfi_offset 14, -4
  36:sensor_device/ADXL345.c ****     HAL_Delay(10); // 启动延迟
 208              		.loc 1 36 5 view .LVU28
 209 0002 0A20     		movs	r0, #10
 210 0004 FFF7FEFF 		bl	HAL_Delay
 211              	.LVL13:
  37:sensor_device/ADXL345.c **** 
  38:sensor_device/ADXL345.c ****     ADXL345_WriteReg(ADXL345_BW_RATE, 0x0A);     // 设置输出速率为100Hz
 212              		.loc 1 38 5 view .LVU29
 213 0008 0A21     		movs	r1, #10
 214 000a 2C20     		movs	r0, #44
 215 000c FFF7FEFF 		bl	ADXL345_WriteReg
 216              	.LVL14:
  39:sensor_device/ADXL345.c ****     ADXL345_WriteReg(ADXL345_DATA_FORMAT, 0x0A); // 设置为 ±8g + 全分辨率
 217              		.loc 1 39 5 view .LVU30
 218 0010 0A21     		movs	r1, #10
 219 0012 3120     		movs	r0, #49
 220 0014 FFF7FEFF 		bl	ADXL345_WriteReg
 221              	.LVL15:
  40:sensor_device/ADXL345.c ****     ADXL345_WriteReg(ADXL345_POWER_CTL, 0x08);   // 进入测量模式
 222              		.loc 1 40 5 view .LVU31
 223 0018 0821     		movs	r1, #8
 224 001a 2D20     		movs	r0, #45
 225 001c FFF7FEFF 		bl	ADXL345_WriteReg
 226              	.LVL16:
  41:sensor_device/ADXL345.c **** }
 227              		.loc 1 41 1 is_stmt 0 view .LVU32
 228 0020 08BD     		pop	{r3, pc}
 229              		.cfi_endproc
 230              	.LFE68:
 232              		.section	.text.ADXL345_ReadXYZ,"ax",%progbits
 233              		.align	1
 234              		.global	ADXL345_ReadXYZ
 235              		.syntax unified
 236              		.thumb
 237              		.thumb_func
 238              		.fpu softvfp
 240              	ADXL345_ReadXYZ:
ARM GAS  /tmp/cc0nCfge.s 			page 6


 241              	.LVL17:
 242              	.LFB69:
  42:sensor_device/ADXL345.c **** 
  43:sensor_device/ADXL345.c **** // 读取三轴数据
  44:sensor_device/ADXL345.c **** void ADXL345_ReadXYZ(int16_t *x, int16_t *y, int16_t *z)
  45:sensor_device/ADXL345.c **** {
 243              		.loc 1 45 1 is_stmt 1 view -0
 244              		.cfi_startproc
 245              		@ args = 0, pretend = 0, frame = 8
 246              		@ frame_needed = 0, uses_anonymous_args = 0
 247              		.loc 1 45 1 is_stmt 0 view .LVU34
 248 0000 2DE9F041 		push	{r4, r5, r6, r7, r8, lr}
 249              	.LCFI8:
 250              		.cfi_def_cfa_offset 24
 251              		.cfi_offset 4, -24
 252              		.cfi_offset 5, -20
 253              		.cfi_offset 6, -16
 254              		.cfi_offset 7, -12
 255              		.cfi_offset 8, -8
 256              		.cfi_offset 14, -4
 257 0004 82B0     		sub	sp, sp, #8
 258              	.LCFI9:
 259              		.cfi_def_cfa_offset 32
 260 0006 0646     		mov	r6, r0
 261 0008 0D46     		mov	r5, r1
 262 000a 1446     		mov	r4, r2
  46:sensor_device/ADXL345.c ****     uint8_t tx = ADXL345_DATAX0 | 0xC0; // 多字节 + 读操作
 263              		.loc 1 46 5 is_stmt 1 view .LVU35
 264              		.loc 1 46 13 is_stmt 0 view .LVU36
 265 000c F223     		movs	r3, #242
 266 000e 8DF80730 		strb	r3, [sp, #7]
  47:sensor_device/ADXL345.c ****     uint8_t buf[6];
 267              		.loc 1 47 5 is_stmt 1 view .LVU37
  48:sensor_device/ADXL345.c **** 
  49:sensor_device/ADXL345.c ****     ADXL345_CS_LOW();
 268              		.loc 1 49 5 view .LVU38
 269 0012 1B4F     		ldr	r7, .L15
 270 0014 0022     		movs	r2, #0
 271              	.LVL18:
 272              		.loc 1 49 5 is_stmt 0 view .LVU39
 273 0016 4FF48051 		mov	r1, #4096
 274              	.LVL19:
 275              		.loc 1 49 5 view .LVU40
 276 001a 3846     		mov	r0, r7
 277              	.LVL20:
 278              		.loc 1 49 5 view .LVU41
 279 001c FFF7FEFF 		bl	HAL_GPIO_WritePin
 280              	.LVL21:
  50:sensor_device/ADXL345.c ****     HAL_SPI_Transmit(&hspi2, &tx, 1, HAL_MAX_DELAY);
 281              		.loc 1 50 5 is_stmt 1 view .LVU42
 282 0020 DFF86080 		ldr	r8, .L15+4
 283 0024 4FF0FF33 		mov	r3, #-1
 284 0028 0122     		movs	r2, #1
 285 002a 0DF10701 		add	r1, sp, #7
 286 002e 4046     		mov	r0, r8
 287 0030 FFF7FEFF 		bl	HAL_SPI_Transmit
 288              	.LVL22:
ARM GAS  /tmp/cc0nCfge.s 			page 7


  51:sensor_device/ADXL345.c ****     HAL_SPI_Receive(&hspi2, buf, 6, HAL_MAX_DELAY);
 289              		.loc 1 51 5 view .LVU43
 290 0034 4FF0FF33 		mov	r3, #-1
 291 0038 0622     		movs	r2, #6
 292 003a 6946     		mov	r1, sp
 293 003c 4046     		mov	r0, r8
 294 003e FFF7FEFF 		bl	HAL_SPI_Receive
 295              	.LVL23:
  52:sensor_device/ADXL345.c ****     ADXL345_CS_HIGH();
 296              		.loc 1 52 5 view .LVU44
 297 0042 0122     		movs	r2, #1
 298 0044 4FF48051 		mov	r1, #4096
 299 0048 3846     		mov	r0, r7
 300 004a FFF7FEFF 		bl	HAL_GPIO_WritePin
 301              	.LVL24:
  53:sensor_device/ADXL345.c **** 
  54:sensor_device/ADXL345.c ****     *x = (int16_t)((buf[1] << 8) | buf[0]);
 302              		.loc 1 54 5 view .LVU45
 303              		.loc 1 54 24 is_stmt 0 view .LVU46
 304 004e 9DF80120 		ldrb	r2, [sp, #1]	@ zero_extendqisi2
 305              		.loc 1 54 39 view .LVU47
 306 0052 9DF80030 		ldrb	r3, [sp]	@ zero_extendqisi2
 307              		.loc 1 54 10 view .LVU48
 308 0056 43EA0223 		orr	r3, r3, r2, lsl #8
 309              		.loc 1 54 8 view .LVU49
 310 005a 3380     		strh	r3, [r6]	@ movhi
  55:sensor_device/ADXL345.c ****     *y = (int16_t)((buf[3] << 8) | buf[2]);
 311              		.loc 1 55 5 is_stmt 1 view .LVU50
 312              		.loc 1 55 24 is_stmt 0 view .LVU51
 313 005c 9DF80320 		ldrb	r2, [sp, #3]	@ zero_extendqisi2
 314              		.loc 1 55 39 view .LVU52
 315 0060 9DF80230 		ldrb	r3, [sp, #2]	@ zero_extendqisi2
 316              		.loc 1 55 10 view .LVU53
 317 0064 43EA0223 		orr	r3, r3, r2, lsl #8
 318              		.loc 1 55 8 view .LVU54
 319 0068 2B80     		strh	r3, [r5]	@ movhi
  56:sensor_device/ADXL345.c ****     *z = (int16_t)((buf[5] << 8) | buf[4]);
 320              		.loc 1 56 5 is_stmt 1 view .LVU55
 321              		.loc 1 56 24 is_stmt 0 view .LVU56
 322 006a 9DF80520 		ldrb	r2, [sp, #5]	@ zero_extendqisi2
 323              		.loc 1 56 39 view .LVU57
 324 006e 9DF80430 		ldrb	r3, [sp, #4]	@ zero_extendqisi2
 325              		.loc 1 56 10 view .LVU58
 326 0072 43EA0223 		orr	r3, r3, r2, lsl #8
 327              		.loc 1 56 8 view .LVU59
 328 0076 2380     		strh	r3, [r4]	@ movhi
  57:sensor_device/ADXL345.c **** }
 329              		.loc 1 57 1 view .LVU60
 330 0078 02B0     		add	sp, sp, #8
 331              	.LCFI10:
 332              		.cfi_def_cfa_offset 24
 333              		@ sp needed
 334 007a BDE8F081 		pop	{r4, r5, r6, r7, r8, pc}
 335              	.LVL25:
 336              	.L16:
 337              		.loc 1 57 1 view .LVU61
 338 007e 00BF     		.align	2
ARM GAS  /tmp/cc0nCfge.s 			page 8


 339              	.L15:
 340 0080 000C0140 		.word	1073810432
 341 0084 00000000 		.word	hspi2
 342              		.cfi_endproc
 343              	.LFE69:
 345              		.global	__aeabi_i2f
 346              		.global	__aeabi_fmul
 347              		.section	.text.ADXL345_ConvertToG,"ax",%progbits
 348              		.align	1
 349              		.global	ADXL345_ConvertToG
 350              		.syntax unified
 351              		.thumb
 352              		.thumb_func
 353              		.fpu softvfp
 355              	ADXL345_ConvertToG:
 356              	.LVL26:
 357              	.LFB70:
  58:sensor_device/ADXL345.c **** float ADXL345_ConvertToG(int16_t raw)
  59:sensor_device/ADXL345.c **** {
 358              		.loc 1 59 1 is_stmt 1 view -0
 359              		.cfi_startproc
 360              		@ args = 0, pretend = 0, frame = 0
 361              		@ frame_needed = 0, uses_anonymous_args = 0
 362              		.loc 1 59 1 is_stmt 0 view .LVU63
 363 0000 08B5     		push	{r3, lr}
 364              	.LCFI11:
 365              		.cfi_def_cfa_offset 8
 366              		.cfi_offset 3, -8
 367              		.cfi_offset 14, -4
  60:sensor_device/ADXL345.c ****     return raw * 0.0039f;
 368              		.loc 1 60 5 is_stmt 1 view .LVU64
 369              		.loc 1 60 16 is_stmt 0 view .LVU65
 370 0002 FFF7FEFF 		bl	__aeabi_i2f
 371              	.LVL27:
 372              		.loc 1 60 16 view .LVU66
 373 0006 0249     		ldr	r1, .L19
 374 0008 FFF7FEFF 		bl	__aeabi_fmul
 375              	.LVL28:
  61:sensor_device/ADXL345.c **** }...
 376              		.loc 1 61 1 view .LVU67
 377 000c 08BD     		pop	{r3, pc}
 378              	.L20:
 379 000e 00BF     		.align	2
 380              	.L19:
 381 0010 24977F3B 		.word	998217508
 382              		.cfi_endproc
 383              	.LFE70:
 385              		.text
 386              	.Letext0:
 387              		.file 2 "/opt/gcc-arm-none-eabi-9-2020-q2-update/arm-none-eabi/include/machine/_default_types.h"
 388              		.file 3 "/opt/gcc-arm-none-eabi-9-2020-q2-update/arm-none-eabi/include/sys/_stdint.h"
 389              		.file 4 "Drivers/CMSIS/Include/core_cm3.h"
 390              		.file 5 "Drivers/CMSIS/Device/ST/STM32F1xx/Include/system_stm32f1xx.h"
 391              		.file 6 "Drivers/CMSIS/Device/ST/STM32F1xx/Include/stm32f103xe.h"
 392              		.file 7 "Drivers/STM32F1xx_HAL_Driver/Inc/stm32f1xx_hal_def.h"
 393              		.file 8 "Drivers/STM32F1xx_HAL_Driver/Inc/stm32f1xx_hal_gpio.h"
 394              		.file 9 "Drivers/STM32F1xx_HAL_Driver/Inc/stm32f1xx_hal_dma.h"
ARM GAS  /tmp/cc0nCfge.s 			page 9


 395              		.file 10 "Drivers/STM32F1xx_HAL_Driver/Inc/stm32f1xx_hal_spi.h"
 396              		.file 11 "Drivers/STM32F1xx_HAL_Driver/Inc/stm32f1xx_hal.h"
 397              		.file 12 "sensor_device/ADXL345.h"
ARM GAS  /tmp/cc0nCfge.s 			page 10


DEFINED SYMBOLS
                            *ABS*:0000000000000000 ADXL345.c
     /tmp/cc0nCfge.s:16     .text.ADXL345_WriteReg:0000000000000000 $t
     /tmp/cc0nCfge.s:23     .text.ADXL345_WriteReg:0000000000000000 ADXL345_WriteReg
     /tmp/cc0nCfge.s:78     .text.ADXL345_WriteReg:000000000000003c $d
     /tmp/cc0nCfge.s:84     .text.ADXL345_ReadReg:0000000000000000 $t
     /tmp/cc0nCfge.s:90     .text.ADXL345_ReadReg:0000000000000000 ADXL345_ReadReg
     /tmp/cc0nCfge.s:155    .text.ADXL345_ReadReg:0000000000000054 $d
     /tmp/cc0nCfge.s:161    .text.ADXL345_ReadID:0000000000000000 $t
     /tmp/cc0nCfge.s:168    .text.ADXL345_ReadID:0000000000000000 ADXL345_ReadID
     /tmp/cc0nCfge.s:190    .text.ADXL345_Init:0000000000000000 $t
     /tmp/cc0nCfge.s:197    .text.ADXL345_Init:0000000000000000 ADXL345_Init
     /tmp/cc0nCfge.s:233    .text.ADXL345_ReadXYZ:0000000000000000 $t
     /tmp/cc0nCfge.s:240    .text.ADXL345_ReadXYZ:0000000000000000 ADXL345_ReadXYZ
     /tmp/cc0nCfge.s:340    .text.ADXL345_ReadXYZ:0000000000000080 $d
     /tmp/cc0nCfge.s:348    .text.ADXL345_ConvertToG:0000000000000000 $t
     /tmp/cc0nCfge.s:355    .text.ADXL345_ConvertToG:0000000000000000 ADXL345_ConvertToG
     /tmp/cc0nCfge.s:381    .text.ADXL345_ConvertToG:0000000000000010 $d

UNDEFINED SYMBOLS
HAL_GPIO_WritePin
HAL_SPI_Transmit
hspi2
HAL_SPI_Receive
HAL_Delay
__aeabi_i2f
__aeabi_fmul
