ARM GAS  /tmp/ccSJApql.s 			page 1


   1              		.cpu cortex-m3
   2              		.eabi_attribute 20, 1
   3              		.eabi_attribute 21, 1
   4              		.eabi_attribute 23, 3
   5              		.eabi_attribute 24, 1
   6              		.eabi_attribute 25, 1
   7              		.eabi_attribute 26, 1
   8              		.eabi_attribute 30, 1
   9              		.eabi_attribute 34, 1
  10              		.eabi_attribute 18, 4
  11              		.file	"ADXL345.c"
  12              		.text
  13              	.Ltext0:
  14              		.cfi_sections	.debug_frame
  15              		.section	.rodata.ADXL345_WriteReg.str1.4,"aMS",%progbits,1
  16              		.align	2
  17              	.LC0:
  18 0000 77726974 		.ascii	"write_reg_spi_transmit error\012\000"
  18      655F7265 
  18      675F7370 
  18      695F7472 
  18      616E736D 
  19              		.section	.text.ADXL345_WriteReg,"ax",%progbits
  20              		.align	1
  21              		.arch armv7-m
  22              		.syntax unified
  23              		.thumb
  24              		.thumb_func
  25              		.fpu softvfp
  27              	ADXL345_WriteReg:
  28              	.LVL0:
  29              	.LFB66:
  30              		.file 1 "sensor_device/ADXL345.c"
   1:sensor_device/ADXL345.c **** #include "ADXL345.h"
   2:sensor_device/ADXL345.c **** 
   3:sensor_device/ADXL345.c **** // SPI读寄存器
   4:sensor_device/ADXL345.c **** static uint8_t ADXL345_ReadReg(uint8_t reg)
   5:sensor_device/ADXL345.c **** {
   6:sensor_device/ADXL345.c ****     uint8_t tx = reg | 0x80; // 设置读位
   7:sensor_device/ADXL345.c ****     uint8_t rx = 0;
   8:sensor_device/ADXL345.c **** 
   9:sensor_device/ADXL345.c ****     ADXL345_CS_LOW();
  10:sensor_device/ADXL345.c ****     
  11:sensor_device/ADXL345.c ****     uint8_t err_code =  HAL_SPI_Transmit(&hspi2, &tx, 1, HAL_MAX_DELAY);
  12:sensor_device/ADXL345.c ****     if(err_code != HAL_OK)
  13:sensor_device/ADXL345.c ****     {
  14:sensor_device/ADXL345.c ****         myprintf("adxl_readreg_transmit is error,code is %d\n",err_code);
  15:sensor_device/ADXL345.c ****     }
  16:sensor_device/ADXL345.c ****     err_code = HAL_SPI_Receive(&hspi2, &rx, 1, HAL_MAX_DELAY);
  17:sensor_device/ADXL345.c ****     if(err_code != HAL_OK)
  18:sensor_device/ADXL345.c ****     {
  19:sensor_device/ADXL345.c ****         myprintf("adxl_readreg_receive is error code is %d\n",err_code);
  20:sensor_device/ADXL345.c ****     }
  21:sensor_device/ADXL345.c ****     ADXL345_CS_HIGH();
  22:sensor_device/ADXL345.c **** 
  23:sensor_device/ADXL345.c ****     return rx;
  24:sensor_device/ADXL345.c **** }
ARM GAS  /tmp/ccSJApql.s 			page 2


  25:sensor_device/ADXL345.c **** 
  26:sensor_device/ADXL345.c **** // SPI写寄存器
  27:sensor_device/ADXL345.c **** static void ADXL345_WriteReg(uint8_t reg, uint8_t data)
  28:sensor_device/ADXL345.c **** {
  31              		.loc 1 28 1 view -0
  32              		.cfi_startproc
  33              		@ args = 0, pretend = 0, frame = 8
  34              		@ frame_needed = 0, uses_anonymous_args = 0
  35              		.loc 1 28 1 is_stmt 0 view .LVU1
  36 0000 00B5     		push	{lr}
  37              	.LCFI0:
  38              		.cfi_def_cfa_offset 4
  39              		.cfi_offset 14, -4
  40 0002 83B0     		sub	sp, sp, #12
  41              	.LCFI1:
  42              		.cfi_def_cfa_offset 16
  29:sensor_device/ADXL345.c ****     uint8_t tx[2] = {reg & 0x7F, data}; // 确保写位清零
  43              		.loc 1 29 5 is_stmt 1 view .LVU2
  44              		.loc 1 29 26 is_stmt 0 view .LVU3
  45 0004 00F07F00 		and	r0, r0, #127
  46              	.LVL1:
  47              		.loc 1 29 13 view .LVU4
  48 0008 8DF80400 		strb	r0, [sp, #4]
  49 000c 8DF80510 		strb	r1, [sp, #5]
  30:sensor_device/ADXL345.c **** 
  31:sensor_device/ADXL345.c ****     ADXL345_CS_LOW();
  50              		.loc 1 31 5 is_stmt 1 view .LVU5
  51 0010 0022     		movs	r2, #0
  52 0012 4FF48051 		mov	r1, #4096
  53              	.LVL2:
  54              		.loc 1 31 5 is_stmt 0 view .LVU6
  55 0016 0C48     		ldr	r0, .L5
  56 0018 FFF7FEFF 		bl	HAL_GPIO_WritePin
  57              	.LVL3:
  32:sensor_device/ADXL345.c ****     uint8_t err_code =  HAL_SPI_Transmit(&hspi2, tx, 2, HAL_MAX_DELAY);
  58              		.loc 1 32 5 is_stmt 1 view .LVU7
  59              		.loc 1 32 25 is_stmt 0 view .LVU8
  60 001c 4FF0FF33 		mov	r3, #-1
  61 0020 0222     		movs	r2, #2
  62 0022 01A9     		add	r1, sp, #4
  63 0024 0948     		ldr	r0, .L5+4
  64 0026 FFF7FEFF 		bl	HAL_SPI_Transmit
  65              	.LVL4:
  33:sensor_device/ADXL345.c ****     if(err_code != HAL_OK)
  66              		.loc 1 33 5 is_stmt 1 view .LVU9
  67              		.loc 1 33 7 is_stmt 0 view .LVU10
  68 002a 40B9     		cbnz	r0, .L4
  69              	.LVL5:
  70              	.L2:
  34:sensor_device/ADXL345.c ****     {
  35:sensor_device/ADXL345.c ****         myprintf("write_reg_spi_transmit error\n");
  36:sensor_device/ADXL345.c ****     }
  37:sensor_device/ADXL345.c ****     ADXL345_CS_HIGH();
  71              		.loc 1 37 5 is_stmt 1 view .LVU11
  72 002c 0122     		movs	r2, #1
  73 002e 4FF48051 		mov	r1, #4096
  74 0032 0548     		ldr	r0, .L5
ARM GAS  /tmp/ccSJApql.s 			page 3


  75 0034 FFF7FEFF 		bl	HAL_GPIO_WritePin
  76              	.LVL6:
  38:sensor_device/ADXL345.c **** }   
  77              		.loc 1 38 1 is_stmt 0 view .LVU12
  78 0038 03B0     		add	sp, sp, #12
  79              	.LCFI2:
  80              		.cfi_remember_state
  81              		.cfi_def_cfa_offset 4
  82              		@ sp needed
  83 003a 5DF804FB 		ldr	pc, [sp], #4
  84              	.LVL7:
  85              	.L4:
  86              	.LCFI3:
  87              		.cfi_restore_state
  35:sensor_device/ADXL345.c ****     }
  88              		.loc 1 35 9 is_stmt 1 view .LVU13
  89 003e 0449     		ldr	r1, .L5+8
  90 0040 0020     		movs	r0, #0
  91              	.LVL8:
  35:sensor_device/ADXL345.c ****     }
  92              		.loc 1 35 9 is_stmt 0 view .LVU14
  93 0042 FFF7FEFF 		bl	SEGGER_RTT_printf
  94              	.LVL9:
  95 0046 F1E7     		b	.L2
  96              	.L6:
  97              		.align	2
  98              	.L5:
  99 0048 000C0140 		.word	1073810432
 100 004c 00000000 		.word	hspi2
 101 0050 00000000 		.word	.LC0
 102              		.cfi_endproc
 103              	.LFE66:
 105              		.section	.rodata.ADXL345_ReadReg.str1.4,"aMS",%progbits,1
 106              		.align	2
 107              	.LC1:
 108 0000 6164786C 		.ascii	"adxl_readreg_transmit is error,code is %d\012\000"
 108      5F726561 
 108      64726567 
 108      5F747261 
 108      6E736D69 
 109 002b 00       		.align	2
 110              	.LC2:
 111 002c 6164786C 		.ascii	"adxl_readreg_receive is error code is %d\012\000"
 111      5F726561 
 111      64726567 
 111      5F726563 
 111      65697665 
 112              		.section	.text.ADXL345_ReadReg,"ax",%progbits
 113              		.align	1
 114              		.syntax unified
 115              		.thumb
 116              		.thumb_func
 117              		.fpu softvfp
 119              	ADXL345_ReadReg:
 120              	.LVL10:
 121              	.LFB65:
   5:sensor_device/ADXL345.c ****     uint8_t tx = reg | 0x80; // 设置读位
ARM GAS  /tmp/ccSJApql.s 			page 4


 122              		.loc 1 5 1 is_stmt 1 view -0
 123              		.cfi_startproc
 124              		@ args = 0, pretend = 0, frame = 8
 125              		@ frame_needed = 0, uses_anonymous_args = 0
   5:sensor_device/ADXL345.c ****     uint8_t tx = reg | 0x80; // 设置读位
 126              		.loc 1 5 1 is_stmt 0 view .LVU16
 127 0000 00B5     		push	{lr}
 128              	.LCFI4:
 129              		.cfi_def_cfa_offset 4
 130              		.cfi_offset 14, -4
 131 0002 83B0     		sub	sp, sp, #12
 132              	.LCFI5:
 133              		.cfi_def_cfa_offset 16
   6:sensor_device/ADXL345.c ****     uint8_t rx = 0;
 134              		.loc 1 6 5 is_stmt 1 view .LVU17
   6:sensor_device/ADXL345.c ****     uint8_t rx = 0;
 135              		.loc 1 6 13 is_stmt 0 view .LVU18
 136 0004 60F07F00 		orn	r0, r0, #127
 137              	.LVL11:
   6:sensor_device/ADXL345.c ****     uint8_t rx = 0;
 138              		.loc 1 6 13 view .LVU19
 139 0008 8DF80700 		strb	r0, [sp, #7]
   7:sensor_device/ADXL345.c **** 
 140              		.loc 1 7 5 is_stmt 1 view .LVU20
   7:sensor_device/ADXL345.c **** 
 141              		.loc 1 7 13 is_stmt 0 view .LVU21
 142 000c 0022     		movs	r2, #0
 143 000e 8DF80620 		strb	r2, [sp, #6]
   9:sensor_device/ADXL345.c ****     
 144              		.loc 1 9 5 is_stmt 1 view .LVU22
 145 0012 4FF48051 		mov	r1, #4096
 146 0016 1648     		ldr	r0, .L13
 147 0018 FFF7FEFF 		bl	HAL_GPIO_WritePin
 148              	.LVL12:
  11:sensor_device/ADXL345.c ****     if(err_code != HAL_OK)
 149              		.loc 1 11 5 view .LVU23
  11:sensor_device/ADXL345.c ****     if(err_code != HAL_OK)
 150              		.loc 1 11 25 is_stmt 0 view .LVU24
 151 001c 4FF0FF33 		mov	r3, #-1
 152 0020 0122     		movs	r2, #1
 153 0022 0DF10701 		add	r1, sp, #7
 154 0026 1348     		ldr	r0, .L13+4
 155 0028 FFF7FEFF 		bl	HAL_SPI_Transmit
 156              	.LVL13:
  12:sensor_device/ADXL345.c ****     {
 157              		.loc 1 12 5 is_stmt 1 view .LVU25
  12:sensor_device/ADXL345.c ****     {
 158              		.loc 1 12 7 is_stmt 0 view .LVU26
 159 002c A0B9     		cbnz	r0, .L11
 160              	.LVL14:
 161              	.L8:
  16:sensor_device/ADXL345.c ****     if(err_code != HAL_OK)
 162              		.loc 1 16 5 is_stmt 1 view .LVU27
  16:sensor_device/ADXL345.c ****     if(err_code != HAL_OK)
 163              		.loc 1 16 16 is_stmt 0 view .LVU28
 164 002e 4FF0FF33 		mov	r3, #-1
 165 0032 0122     		movs	r2, #1
ARM GAS  /tmp/ccSJApql.s 			page 5


 166 0034 0DF10601 		add	r1, sp, #6
 167 0038 0E48     		ldr	r0, .L13+4
 168 003a FFF7FEFF 		bl	HAL_SPI_Receive
 169              	.LVL15:
  17:sensor_device/ADXL345.c ****     {
 170              		.loc 1 17 5 is_stmt 1 view .LVU29
  17:sensor_device/ADXL345.c ****     {
 171              		.loc 1 17 7 is_stmt 0 view .LVU30
 172 003e 0246     		mov	r2, r0
 173 0040 80B9     		cbnz	r0, .L12
 174              	.LVL16:
 175              	.L9:
  21:sensor_device/ADXL345.c **** 
 176              		.loc 1 21 5 is_stmt 1 view .LVU31
 177 0042 0122     		movs	r2, #1
 178 0044 4FF48051 		mov	r1, #4096
 179 0048 0948     		ldr	r0, .L13
 180 004a FFF7FEFF 		bl	HAL_GPIO_WritePin
 181              	.LVL17:
  23:sensor_device/ADXL345.c **** }
 182              		.loc 1 23 5 view .LVU32
  24:sensor_device/ADXL345.c **** 
 183              		.loc 1 24 1 is_stmt 0 view .LVU33
 184 004e 9DF80600 		ldrb	r0, [sp, #6]	@ zero_extendqisi2
 185 0052 03B0     		add	sp, sp, #12
 186              	.LCFI6:
 187              		.cfi_remember_state
 188              		.cfi_def_cfa_offset 4
 189              		@ sp needed
 190 0054 5DF804FB 		ldr	pc, [sp], #4
 191              	.LVL18:
 192              	.L11:
 193              	.LCFI7:
 194              		.cfi_restore_state
  24:sensor_device/ADXL345.c **** 
 195              		.loc 1 24 1 view .LVU34
 196 0058 0246     		mov	r2, r0
  14:sensor_device/ADXL345.c ****     }
 197              		.loc 1 14 9 is_stmt 1 view .LVU35
 198 005a 0749     		ldr	r1, .L13+8
 199 005c 0020     		movs	r0, #0
 200              	.LVL19:
  14:sensor_device/ADXL345.c ****     }
 201              		.loc 1 14 9 is_stmt 0 view .LVU36
 202 005e FFF7FEFF 		bl	SEGGER_RTT_printf
 203              	.LVL20:
 204 0062 E4E7     		b	.L8
 205              	.LVL21:
 206              	.L12:
  19:sensor_device/ADXL345.c ****     }
 207              		.loc 1 19 9 is_stmt 1 view .LVU37
 208 0064 0549     		ldr	r1, .L13+12
 209 0066 0020     		movs	r0, #0
 210              	.LVL22:
  19:sensor_device/ADXL345.c ****     }
 211              		.loc 1 19 9 is_stmt 0 view .LVU38
 212 0068 FFF7FEFF 		bl	SEGGER_RTT_printf
ARM GAS  /tmp/ccSJApql.s 			page 6


 213              	.LVL23:
 214 006c E9E7     		b	.L9
 215              	.L14:
 216 006e 00BF     		.align	2
 217              	.L13:
 218 0070 000C0140 		.word	1073810432
 219 0074 00000000 		.word	hspi2
 220 0078 00000000 		.word	.LC1
 221 007c 2C000000 		.word	.LC2
 222              		.cfi_endproc
 223              	.LFE65:
 225              		.section	.text.ADXL345_ReadID,"ax",%progbits
 226              		.align	1
 227              		.global	ADXL345_ReadID
 228              		.syntax unified
 229              		.thumb
 230              		.thumb_func
 231              		.fpu softvfp
 233              	ADXL345_ReadID:
 234              	.LFB67:
  39:sensor_device/ADXL345.c **** 
  40:sensor_device/ADXL345.c **** // 读取设备ID（期望返回0xE5）
  41:sensor_device/ADXL345.c **** uint8_t ADXL345_ReadID(void)
  42:sensor_device/ADXL345.c **** {
 235              		.loc 1 42 1 is_stmt 1 view -0
 236              		.cfi_startproc
 237              		@ args = 0, pretend = 0, frame = 0
 238              		@ frame_needed = 0, uses_anonymous_args = 0
 239 0000 08B5     		push	{r3, lr}
 240              	.LCFI8:
 241              		.cfi_def_cfa_offset 8
 242              		.cfi_offset 3, -8
 243              		.cfi_offset 14, -4
  43:sensor_device/ADXL345.c ****     return ADXL345_ReadReg(ADXL345_DEVID);
 244              		.loc 1 43 5 view .LVU40
 245              		.loc 1 43 12 is_stmt 0 view .LVU41
 246 0002 0020     		movs	r0, #0
 247 0004 FFF7FEFF 		bl	ADXL345_ReadReg
 248              	.LVL24:
  44:sensor_device/ADXL345.c **** }
 249              		.loc 1 44 1 view .LVU42
 250 0008 08BD     		pop	{r3, pc}
 251              		.cfi_endproc
 252              	.LFE67:
 254              		.section	.text.ADXL345_Init,"ax",%progbits
 255              		.align	1
 256              		.global	ADXL345_Init
 257              		.syntax unified
 258              		.thumb
 259              		.thumb_func
 260              		.fpu softvfp
 262              	ADXL345_Init:
 263              	.LFB68:
  45:sensor_device/ADXL345.c **** 
  46:sensor_device/ADXL345.c **** // 初始化ADXL345
  47:sensor_device/ADXL345.c **** void ADXL345_Init(void)
  48:sensor_device/ADXL345.c **** {
ARM GAS  /tmp/ccSJApql.s 			page 7


 264              		.loc 1 48 1 is_stmt 1 view -0
 265              		.cfi_startproc
 266              		@ args = 0, pretend = 0, frame = 0
 267              		@ frame_needed = 0, uses_anonymous_args = 0
 268 0000 08B5     		push	{r3, lr}
 269              	.LCFI9:
 270              		.cfi_def_cfa_offset 8
 271              		.cfi_offset 3, -8
 272              		.cfi_offset 14, -4
  49:sensor_device/ADXL345.c ****     HAL_Delay(10); // 启动延迟
 273              		.loc 1 49 5 view .LVU44
 274 0002 0A20     		movs	r0, #10
 275 0004 FFF7FEFF 		bl	HAL_Delay
 276              	.LVL25:
  50:sensor_device/ADXL345.c ****     ADXL345_WriteReg(ADXL345_BW_RATE, 0x0A);     // 设置输出速率为100Hz
 277              		.loc 1 50 5 view .LVU45
 278 0008 0A21     		movs	r1, #10
 279 000a 2C20     		movs	r0, #44
 280 000c FFF7FEFF 		bl	ADXL345_WriteReg
 281              	.LVL26:
  51:sensor_device/ADXL345.c ****     ADXL345_WriteReg(ADXL345_DATA_FORMAT, 0x0A); // 设置为 ±8g + 全分辨率
 282              		.loc 1 51 5 view .LVU46
 283 0010 0A21     		movs	r1, #10
 284 0012 3120     		movs	r0, #49
 285 0014 FFF7FEFF 		bl	ADXL345_WriteReg
 286              	.LVL27:
  52:sensor_device/ADXL345.c ****     ADXL345_WriteReg(ADXL345_POWER_CTL, 0x08);   // 进入测量模式
 287              		.loc 1 52 5 view .LVU47
 288 0018 0821     		movs	r1, #8
 289 001a 2D20     		movs	r0, #45
 290 001c FFF7FEFF 		bl	ADXL345_WriteReg
 291              	.LVL28:
  53:sensor_device/ADXL345.c **** }
 292              		.loc 1 53 1 is_stmt 0 view .LVU48
 293 0020 08BD     		pop	{r3, pc}
 294              		.cfi_endproc
 295              	.LFE68:
 297              		.global	__aeabi_i2f
 298              		.global	__aeabi_fmul
 299              		.section	.text.ADXL345_ReadXYZ,"ax",%progbits
 300              		.align	1
 301              		.global	ADXL345_ReadXYZ
 302              		.syntax unified
 303              		.thumb
 304              		.thumb_func
 305              		.fpu softvfp
 307              	ADXL345_ReadXYZ:
 308              	.LVL29:
 309              	.LFB69:
  54:sensor_device/ADXL345.c **** 
  55:sensor_device/ADXL345.c **** // 读取三轴数据
  56:sensor_device/ADXL345.c **** void ADXL345_ReadXYZ(float *x, float *y, float *z)
  57:sensor_device/ADXL345.c **** {
 310              		.loc 1 57 1 is_stmt 1 view -0
 311              		.cfi_startproc
 312              		@ args = 0, pretend = 0, frame = 8
 313              		@ frame_needed = 0, uses_anonymous_args = 0
ARM GAS  /tmp/ccSJApql.s 			page 8


 314              		.loc 1 57 1 is_stmt 0 view .LVU50
 315 0000 2DE9F041 		push	{r4, r5, r6, r7, r8, lr}
 316              	.LCFI10:
 317              		.cfi_def_cfa_offset 24
 318              		.cfi_offset 4, -24
 319              		.cfi_offset 5, -20
 320              		.cfi_offset 6, -16
 321              		.cfi_offset 7, -12
 322              		.cfi_offset 8, -8
 323              		.cfi_offset 14, -4
 324 0004 82B0     		sub	sp, sp, #8
 325              	.LCFI11:
 326              		.cfi_def_cfa_offset 32
 327 0006 8046     		mov	r8, r0
 328 0008 0F46     		mov	r7, r1
 329 000a 1646     		mov	r6, r2
  58:sensor_device/ADXL345.c ****     int16_t tmp_x,tmp_y,tmp_z =0x00;
 330              		.loc 1 58 5 is_stmt 1 view .LVU51
 331              	.LVL30:
  59:sensor_device/ADXL345.c ****     uint8_t tx = ADXL345_DATAX0 | 0xC0; // 多字节 + 读操作
 332              		.loc 1 59 5 view .LVU52
 333              		.loc 1 59 13 is_stmt 0 view .LVU53
 334 000c F223     		movs	r3, #242
 335 000e 8DF80730 		strb	r3, [sp, #7]
  60:sensor_device/ADXL345.c ****     uint8_t buf[6];
 336              		.loc 1 60 5 is_stmt 1 view .LVU54
  61:sensor_device/ADXL345.c **** 
  62:sensor_device/ADXL345.c ****     ADXL345_CS_LOW();
 337              		.loc 1 62 5 view .LVU55
 338 0012 254C     		ldr	r4, .L21
 339 0014 0022     		movs	r2, #0
 340              	.LVL31:
 341              		.loc 1 62 5 is_stmt 0 view .LVU56
 342 0016 4FF48051 		mov	r1, #4096
 343              	.LVL32:
 344              		.loc 1 62 5 view .LVU57
 345 001a 2046     		mov	r0, r4
 346              	.LVL33:
 347              		.loc 1 62 5 view .LVU58
 348 001c FFF7FEFF 		bl	HAL_GPIO_WritePin
 349              	.LVL34:
  63:sensor_device/ADXL345.c ****     HAL_SPI_Transmit(&hspi2, &tx, 1, HAL_MAX_DELAY);
 350              		.loc 1 63 5 is_stmt 1 view .LVU59
 351 0020 224D     		ldr	r5, .L21+4
 352 0022 4FF0FF33 		mov	r3, #-1
 353 0026 0122     		movs	r2, #1
 354 0028 0DF10701 		add	r1, sp, #7
 355 002c 2846     		mov	r0, r5
 356 002e FFF7FEFF 		bl	HAL_SPI_Transmit
 357              	.LVL35:
  64:sensor_device/ADXL345.c ****     HAL_SPI_Receive(&hspi2, buf, 6, HAL_MAX_DELAY);
 358              		.loc 1 64 5 view .LVU60
 359 0032 4FF0FF33 		mov	r3, #-1
 360 0036 0622     		movs	r2, #6
 361 0038 6946     		mov	r1, sp
 362 003a 2846     		mov	r0, r5
 363 003c FFF7FEFF 		bl	HAL_SPI_Receive
ARM GAS  /tmp/ccSJApql.s 			page 9


 364              	.LVL36:
  65:sensor_device/ADXL345.c ****     ADXL345_CS_HIGH();
 365              		.loc 1 65 5 view .LVU61
 366 0040 0122     		movs	r2, #1
 367 0042 4FF48051 		mov	r1, #4096
 368 0046 2046     		mov	r0, r4
 369 0048 FFF7FEFF 		bl	HAL_GPIO_WritePin
 370              	.LVL37:
  66:sensor_device/ADXL345.c **** 
  67:sensor_device/ADXL345.c ****     tmp_x = (int16_t)((buf[1] << 8) | buf[0]);
 371              		.loc 1 67 5 view .LVU62
 372              		.loc 1 67 27 is_stmt 0 view .LVU63
 373 004c 9DF80130 		ldrb	r3, [sp, #1]	@ zero_extendqisi2
 374              		.loc 1 67 31 view .LVU64
 375 0050 1B02     		lsls	r3, r3, #8
 376              		.loc 1 67 13 view .LVU65
 377 0052 1BB2     		sxth	r3, r3
 378              		.loc 1 67 42 view .LVU66
 379 0054 9DF80000 		ldrb	r0, [sp]	@ zero_extendqisi2
 380              	.LVL38:
  68:sensor_device/ADXL345.c ****     tmp_y = (int16_t)((buf[3] << 8) | buf[2]);
 381              		.loc 1 68 5 is_stmt 1 view .LVU67
 382              		.loc 1 68 27 is_stmt 0 view .LVU68
 383 0058 9DF80350 		ldrb	r5, [sp, #3]	@ zero_extendqisi2
 384              		.loc 1 68 31 view .LVU69
 385 005c 2D02     		lsls	r5, r5, #8
 386              		.loc 1 68 13 view .LVU70
 387 005e 2DB2     		sxth	r5, r5
 388              		.loc 1 68 42 view .LVU71
 389 0060 9DF80220 		ldrb	r2, [sp, #2]	@ zero_extendqisi2
 390              		.loc 1 68 11 view .LVU72
 391 0064 1543     		orrs	r5, r5, r2
 392              	.LVL39:
  69:sensor_device/ADXL345.c ****     tmp_z = (int16_t)((buf[5] << 8) | buf[4]);
 393              		.loc 1 69 5 is_stmt 1 view .LVU73
 394              		.loc 1 69 27 is_stmt 0 view .LVU74
 395 0066 9DF80540 		ldrb	r4, [sp, #5]	@ zero_extendqisi2
 396              		.loc 1 69 31 view .LVU75
 397 006a 2402     		lsls	r4, r4, #8
 398              		.loc 1 69 13 view .LVU76
 399 006c 24B2     		sxth	r4, r4
 400              		.loc 1 69 42 view .LVU77
 401 006e 9DF80420 		ldrb	r2, [sp, #4]	@ zero_extendqisi2
 402              		.loc 1 69 11 view .LVU78
 403 0072 1443     		orrs	r4, r4, r2
 404              	.LVL40:
  70:sensor_device/ADXL345.c ****     *x = tmp_x*0.0039f;
 405              		.loc 1 70 5 is_stmt 1 view .LVU79
 406              		.loc 1 70 15 is_stmt 0 view .LVU80
 407 0074 1843     		orrs	r0, r0, r3
 408              	.LVL41:
 409              		.loc 1 70 15 view .LVU81
 410 0076 FFF7FEFF 		bl	__aeabi_i2f
 411              	.LVL42:
 412              		.loc 1 70 15 view .LVU82
 413 007a 0D49     		ldr	r1, .L21+8
 414 007c FFF7FEFF 		bl	__aeabi_fmul
ARM GAS  /tmp/ccSJApql.s 			page 10


 415              	.LVL43:
 416              		.loc 1 70 8 view .LVU83
 417 0080 C8F80000 		str	r0, [r8]	@ float
  71:sensor_device/ADXL345.c ****     *y = tmp_y*0.0039f;
 418              		.loc 1 71 5 is_stmt 1 view .LVU84
 419              		.loc 1 71 15 is_stmt 0 view .LVU85
 420 0084 2846     		mov	r0, r5
 421 0086 FFF7FEFF 		bl	__aeabi_i2f
 422              	.LVL44:
 423 008a 0949     		ldr	r1, .L21+8
 424 008c FFF7FEFF 		bl	__aeabi_fmul
 425              	.LVL45:
 426              		.loc 1 71 8 view .LVU86
 427 0090 3860     		str	r0, [r7]	@ float
  72:sensor_device/ADXL345.c ****     *z = tmp_z*0.0039f;
 428              		.loc 1 72 5 is_stmt 1 view .LVU87
 429              		.loc 1 72 15 is_stmt 0 view .LVU88
 430 0092 2046     		mov	r0, r4
 431 0094 FFF7FEFF 		bl	__aeabi_i2f
 432              	.LVL46:
 433 0098 0549     		ldr	r1, .L21+8
 434 009a FFF7FEFF 		bl	__aeabi_fmul
 435              	.LVL47:
 436              		.loc 1 72 8 view .LVU89
 437 009e 3060     		str	r0, [r6]	@ float
  73:sensor_device/ADXL345.c **** 
  74:sensor_device/ADXL345.c **** }
 438              		.loc 1 74 1 view .LVU90
 439 00a0 02B0     		add	sp, sp, #8
 440              	.LCFI12:
 441              		.cfi_def_cfa_offset 24
 442              		@ sp needed
 443 00a2 BDE8F081 		pop	{r4, r5, r6, r7, r8, pc}
 444              	.LVL48:
 445              	.L22:
 446              		.loc 1 74 1 view .LVU91
 447 00a6 00BF     		.align	2
 448              	.L21:
 449 00a8 000C0140 		.word	1073810432
 450 00ac 00000000 		.word	hspi2
 451 00b0 24977F3B 		.word	998217508
 452              		.cfi_endproc
 453              	.LFE69:
 455              		.section	.text.ADXL345_ConvertToG,"ax",%progbits
 456              		.align	1
 457              		.global	ADXL345_ConvertToG
 458              		.syntax unified
 459              		.thumb
 460              		.thumb_func
 461              		.fpu softvfp
 463              	ADXL345_ConvertToG:
 464              	.LVL49:
 465              	.LFB70:
  75:sensor_device/ADXL345.c **** float ADXL345_ConvertToG(int16_t raw)
  76:sensor_device/ADXL345.c **** {
 466              		.loc 1 76 1 is_stmt 1 view -0
 467              		.cfi_startproc
ARM GAS  /tmp/ccSJApql.s 			page 11


 468              		@ args = 0, pretend = 0, frame = 0
 469              		@ frame_needed = 0, uses_anonymous_args = 0
 470              		.loc 1 76 1 is_stmt 0 view .LVU93
 471 0000 08B5     		push	{r3, lr}
 472              	.LCFI13:
 473              		.cfi_def_cfa_offset 8
 474              		.cfi_offset 3, -8
 475              		.cfi_offset 14, -4
  77:sensor_device/ADXL345.c ****     return raw * 0.0039f;
 476              		.loc 1 77 5 is_stmt 1 view .LVU94
 477              		.loc 1 77 16 is_stmt 0 view .LVU95
 478 0002 FFF7FEFF 		bl	__aeabi_i2f
 479              	.LVL50:
 480              		.loc 1 77 16 view .LVU96
 481 0006 0249     		ldr	r1, .L25
 482 0008 FFF7FEFF 		bl	__aeabi_fmul
 483              	.LVL51:
  78:sensor_device/ADXL345.c **** }...
 484              		.loc 1 78 1 view .LVU97
 485 000c 08BD     		pop	{r3, pc}
 486              	.L26:
 487 000e 00BF     		.align	2
 488              	.L25:
 489 0010 24977F3B 		.word	998217508
 490              		.cfi_endproc
 491              	.LFE70:
 493              		.text
 494              	.Letext0:
 495              		.file 2 "/opt/gcc-arm-none-eabi-9-2020-q2-update/arm-none-eabi/include/machine/_default_types.h"
 496              		.file 3 "/opt/gcc-arm-none-eabi-9-2020-q2-update/arm-none-eabi/include/sys/_stdint.h"
 497              		.file 4 "Drivers/CMSIS/Include/core_cm3.h"
 498              		.file 5 "Drivers/CMSIS/Device/ST/STM32F1xx/Include/system_stm32f1xx.h"
 499              		.file 6 "Drivers/CMSIS/Device/ST/STM32F1xx/Include/stm32f103xe.h"
 500              		.file 7 "Drivers/STM32F1xx_HAL_Driver/Inc/stm32f1xx_hal_def.h"
 501              		.file 8 "Drivers/STM32F1xx_HAL_Driver/Inc/stm32f1xx_hal_gpio.h"
 502              		.file 9 "Drivers/STM32F1xx_HAL_Driver/Inc/stm32f1xx_hal_dma.h"
 503              		.file 10 "Drivers/STM32F1xx_HAL_Driver/Inc/stm32f1xx_hal_spi.h"
 504              		.file 11 "Drivers/STM32F1xx_HAL_Driver/Inc/stm32f1xx_hal.h"
 505              		.file 12 "/opt/gcc-arm-none-eabi-9-2020-q2-update/lib/gcc/arm-none-eabi/9.3.1/include/stddef.h"
 506              		.file 13 "/opt/gcc-arm-none-eabi-9-2020-q2-update/arm-none-eabi/include/sys/_types.h"
 507              		.file 14 "/opt/gcc-arm-none-eabi-9-2020-q2-update/arm-none-eabi/include/sys/reent.h"
 508              		.file 15 "/opt/gcc-arm-none-eabi-9-2020-q2-update/arm-none-eabi/include/sys/lock.h"
 509              		.file 16 "/opt/gcc-arm-none-eabi-9-2020-q2-update/arm-none-eabi/include/stdlib.h"
 510              		.file 17 "Core/Inc/spi.h"
 511              		.file 18 "ARM_SEGGER_RTT/SEGGER_RTT.h"
ARM GAS  /tmp/ccSJApql.s 			page 12

