ARM GAS  /tmp/ccquzIMb.s 			page 1


   1              		.cpu cortex-m3
   2              		.eabi_attribute 20, 1
   3              		.eabi_attribute 21, 1
   4              		.eabi_attribute 23, 3
   5              		.eabi_attribute 24, 1
   6              		.eabi_attribute 25, 1
   7              		.eabi_attribute 26, 1
   8              		.eabi_attribute 30, 1
   9              		.eabi_attribute 34, 1
  10              		.eabi_attribute 18, 4
  11              		.file	"battery_adc.c"
  12              		.text
  13              	.Ltext0:
  14              		.cfi_sections	.debug_frame
  15              		.section	.text.BatteryADC_EnableClocks,"ax",%progbits
  16              		.align	1
  17              		.arch armv7-m
  18              		.syntax unified
  19              		.thumb
  20              		.thumb_func
  21              		.fpu softvfp
  23              	BatteryADC_EnableClocks:
  24              	.LFB65:
  25              		.file 1 "Core/Src/battery_adc.c"
   1:Core/Src/battery_adc.c **** #include "battery_adc.h"
   2:Core/Src/battery_adc.c **** 
   3:Core/Src/battery_adc.c **** /* 模块私有：ADC1 句柄 */
   4:Core/Src/battery_adc.c **** static ADC_HandleTypeDef hadc1;
   5:Core/Src/battery_adc.c **** 
   6:Core/Src/battery_adc.c **** /* 打开时钟、配置 ADC 预分频（F1: ADCCLK ≤ 14MHz） */
   7:Core/Src/battery_adc.c **** static void BatteryADC_EnableClocks(void)
   8:Core/Src/battery_adc.c **** {
  26              		.loc 1 8 1 view -0
  27              		.cfi_startproc
  28              		@ args = 0, pretend = 0, frame = 8
  29              		@ frame_needed = 0, uses_anonymous_args = 0
  30              		@ link register save eliminated.
  31 0000 82B0     		sub	sp, sp, #8
  32              	.LCFI0:
  33              		.cfi_def_cfa_offset 8
   9:Core/Src/battery_adc.c ****     __HAL_RCC_GPIOA_CLK_ENABLE();
  34              		.loc 1 9 5 view .LVU1
  35              	.LBB2:
  36              		.loc 1 9 5 view .LVU2
  37              		.loc 1 9 5 view .LVU3
  38 0002 0D4B     		ldr	r3, .L3
  39 0004 9A69     		ldr	r2, [r3, #24]
  40 0006 42F00402 		orr	r2, r2, #4
  41 000a 9A61     		str	r2, [r3, #24]
  42              		.loc 1 9 5 view .LVU4
  43 000c 9A69     		ldr	r2, [r3, #24]
  44 000e 02F00402 		and	r2, r2, #4
  45 0012 0092     		str	r2, [sp]
  46              		.loc 1 9 5 view .LVU5
  47 0014 009A     		ldr	r2, [sp]
  48              	.LBE2:
  49              		.loc 1 9 5 view .LVU6
ARM GAS  /tmp/ccquzIMb.s 			page 2


  10:Core/Src/battery_adc.c ****     __HAL_RCC_ADC1_CLK_ENABLE();
  50              		.loc 1 10 5 view .LVU7
  51              	.LBB3:
  52              		.loc 1 10 5 view .LVU8
  53              		.loc 1 10 5 view .LVU9
  54 0016 9A69     		ldr	r2, [r3, #24]
  55 0018 42F40072 		orr	r2, r2, #512
  56 001c 9A61     		str	r2, [r3, #24]
  57              		.loc 1 10 5 view .LVU10
  58 001e 9A69     		ldr	r2, [r3, #24]
  59 0020 02F40072 		and	r2, r2, #512
  60 0024 0192     		str	r2, [sp, #4]
  61              		.loc 1 10 5 view .LVU11
  62 0026 019A     		ldr	r2, [sp, #4]
  63              	.LBE3:
  64              		.loc 1 10 5 view .LVU12
  11:Core/Src/battery_adc.c **** 
  12:Core/Src/battery_adc.c ****     /* PCLK2=72MHz → ADCCLK = PCLK2/6 = 12MHz（合规） */
  13:Core/Src/battery_adc.c ****     __HAL_RCC_ADC_CONFIG(RCC_ADCPCLK2_DIV6);
  65              		.loc 1 13 5 view .LVU13
  66 0028 5A68     		ldr	r2, [r3, #4]
  67 002a 22F44042 		bic	r2, r2, #49152
  68 002e 42F40042 		orr	r2, r2, #32768
  69 0032 5A60     		str	r2, [r3, #4]
  14:Core/Src/battery_adc.c **** }
  70              		.loc 1 14 1 is_stmt 0 view .LVU14
  71 0034 02B0     		add	sp, sp, #8
  72              	.LCFI1:
  73              		.cfi_def_cfa_offset 0
  74              		@ sp needed
  75 0036 7047     		bx	lr
  76              	.L4:
  77              		.align	2
  78              	.L3:
  79 0038 00100240 		.word	1073876992
  80              		.cfi_endproc
  81              	.LFE65:
  83              		.section	.text.BatteryADC_GPIO_Init,"ax",%progbits
  84              		.align	1
  85              		.syntax unified
  86              		.thumb
  87              		.thumb_func
  88              		.fpu softvfp
  90              	BatteryADC_GPIO_Init:
  91              	.LFB66:
  15:Core/Src/battery_adc.c **** 
  16:Core/Src/battery_adc.c **** /* PA0 配置为模拟输入 */
  17:Core/Src/battery_adc.c **** static void BatteryADC_GPIO_Init(void)
  18:Core/Src/battery_adc.c **** {
  92              		.loc 1 18 1 is_stmt 1 view -0
  93              		.cfi_startproc
  94              		@ args = 0, pretend = 0, frame = 16
  95              		@ frame_needed = 0, uses_anonymous_args = 0
  96 0000 00B5     		push	{lr}
  97              	.LCFI2:
  98              		.cfi_def_cfa_offset 4
  99              		.cfi_offset 14, -4
ARM GAS  /tmp/ccquzIMb.s 			page 3


 100 0002 85B0     		sub	sp, sp, #20
 101              	.LCFI3:
 102              		.cfi_def_cfa_offset 24
  19:Core/Src/battery_adc.c ****     GPIO_InitTypeDef GPIO_InitStruct = {0};
 103              		.loc 1 19 5 view .LVU16
 104              		.loc 1 19 22 is_stmt 0 view .LVU17
 105 0004 0023     		movs	r3, #0
 106 0006 0293     		str	r3, [sp, #8]
 107 0008 0393     		str	r3, [sp, #12]
  20:Core/Src/battery_adc.c ****     GPIO_InitStruct.Pin  = GPIO_PIN_0;        /* PA0 -> ADC1_IN0 */
 108              		.loc 1 20 5 is_stmt 1 view .LVU18
 109              		.loc 1 20 26 is_stmt 0 view .LVU19
 110 000a 0123     		movs	r3, #1
 111 000c 0093     		str	r3, [sp]
  21:Core/Src/battery_adc.c ****     GPIO_InitStruct.Mode = GPIO_MODE_ANALOG;
 112              		.loc 1 21 5 is_stmt 1 view .LVU20
 113              		.loc 1 21 26 is_stmt 0 view .LVU21
 114 000e 0323     		movs	r3, #3
 115 0010 0193     		str	r3, [sp, #4]
  22:Core/Src/battery_adc.c ****     HAL_GPIO_Init(GPIOA, &GPIO_InitStruct);
 116              		.loc 1 22 5 is_stmt 1 view .LVU22
 117 0012 6946     		mov	r1, sp
 118 0014 0248     		ldr	r0, .L7
 119 0016 FFF7FEFF 		bl	HAL_GPIO_Init
 120              	.LVL0:
  23:Core/Src/battery_adc.c **** }
 121              		.loc 1 23 1 is_stmt 0 view .LVU23
 122 001a 05B0     		add	sp, sp, #20
 123              	.LCFI4:
 124              		.cfi_def_cfa_offset 4
 125              		@ sp needed
 126 001c 5DF804FB 		ldr	pc, [sp], #4
 127              	.L8:
 128              		.align	2
 129              	.L7:
 130 0020 00080140 		.word	1073809408
 131              		.cfi_endproc
 132              	.LFE66:
 134              		.section	.text.BatteryADC_ADC1_CoreInit,"ax",%progbits
 135              		.align	1
 136              		.syntax unified
 137              		.thumb
 138              		.thumb_func
 139              		.fpu softvfp
 141              	BatteryADC_ADC1_CoreInit:
 142              	.LFB67:
  24:Core/Src/battery_adc.c **** 
  25:Core/Src/battery_adc.c **** /* ADC1 基本参数 + 通道配置 */
  26:Core/Src/battery_adc.c **** static void BatteryADC_ADC1_CoreInit(void)
  27:Core/Src/battery_adc.c **** {
 143              		.loc 1 27 1 is_stmt 1 view -0
 144              		.cfi_startproc
 145              		@ args = 0, pretend = 0, frame = 16
 146              		@ frame_needed = 0, uses_anonymous_args = 0
 147 0000 70B5     		push	{r4, r5, r6, lr}
 148              	.LCFI5:
 149              		.cfi_def_cfa_offset 16
ARM GAS  /tmp/ccquzIMb.s 			page 4


 150              		.cfi_offset 4, -16
 151              		.cfi_offset 5, -12
 152              		.cfi_offset 6, -8
 153              		.cfi_offset 14, -4
 154 0002 84B0     		sub	sp, sp, #16
 155              	.LCFI6:
 156              		.cfi_def_cfa_offset 32
  28:Core/Src/battery_adc.c ****     hadc1.Instance                      = ADC1;
 157              		.loc 1 28 5 view .LVU25
 158              		.loc 1 28 41 is_stmt 0 view .LVU26
 159 0004 0C4C     		ldr	r4, .L11
 160 0006 0D4B     		ldr	r3, .L11+4
 161 0008 2360     		str	r3, [r4]
  29:Core/Src/battery_adc.c ****     hadc1.Init.ScanConvMode             = ADC_SCAN_DISABLE;
 162              		.loc 1 29 5 is_stmt 1 view .LVU27
 163              		.loc 1 29 41 is_stmt 0 view .LVU28
 164 000a 0025     		movs	r5, #0
 165 000c A560     		str	r5, [r4, #8]
  30:Core/Src/battery_adc.c ****     hadc1.Init.ContinuousConvMode       = DISABLE;
 166              		.loc 1 30 5 is_stmt 1 view .LVU29
 167              		.loc 1 30 41 is_stmt 0 view .LVU30
 168 000e 2573     		strb	r5, [r4, #12]
  31:Core/Src/battery_adc.c ****     hadc1.Init.DiscontinuousConvMode    = DISABLE;
 169              		.loc 1 31 5 is_stmt 1 view .LVU31
 170              		.loc 1 31 41 is_stmt 0 view .LVU32
 171 0010 2575     		strb	r5, [r4, #20]
  32:Core/Src/battery_adc.c ****     hadc1.Init.DataAlign                = ADC_DATAALIGN_RIGHT;
 172              		.loc 1 32 5 is_stmt 1 view .LVU33
 173              		.loc 1 32 41 is_stmt 0 view .LVU34
 174 0012 6560     		str	r5, [r4, #4]
  33:Core/Src/battery_adc.c ****     hadc1.Init.NbrOfConversion          = 1;
 175              		.loc 1 33 5 is_stmt 1 view .LVU35
 176              		.loc 1 33 41 is_stmt 0 view .LVU36
 177 0014 0126     		movs	r6, #1
 178 0016 2661     		str	r6, [r4, #16]
  34:Core/Src/battery_adc.c ****     hadc1.Init.ExternalTrigConv         = ADC_SOFTWARE_START;
 179              		.loc 1 34 5 is_stmt 1 view .LVU37
 180              		.loc 1 34 41 is_stmt 0 view .LVU38
 181 0018 4FF46023 		mov	r3, #917504
 182 001c E361     		str	r3, [r4, #28]
  35:Core/Src/battery_adc.c ****     HAL_ADC_Init(&hadc1);
 183              		.loc 1 35 5 is_stmt 1 view .LVU39
 184 001e 2046     		mov	r0, r4
 185 0020 FFF7FEFF 		bl	HAL_ADC_Init
 186              	.LVL1:
  36:Core/Src/battery_adc.c **** 
  37:Core/Src/battery_adc.c ****     /* 校准（提升精度） */
  38:Core/Src/battery_adc.c ****     // HAL_ADCEx_Calibration_Start(&hadc1);
  39:Core/Src/battery_adc.c **** 
  40:Core/Src/battery_adc.c ****     /* 通道：ADC1_IN0（PA0），长采样时间以适配 ~9kΩ 源阻 */
  41:Core/Src/battery_adc.c ****     ADC_ChannelConfTypeDef sConfig = {0};
 187              		.loc 1 41 5 view .LVU40
  42:Core/Src/battery_adc.c ****     sConfig.Channel      = ADC_CHANNEL_0;
 188              		.loc 1 42 5 view .LVU41
 189              		.loc 1 42 26 is_stmt 0 view .LVU42
 190 0024 0195     		str	r5, [sp, #4]
  43:Core/Src/battery_adc.c ****     sConfig.Rank         = ADC_REGULAR_RANK_1;
ARM GAS  /tmp/ccquzIMb.s 			page 5


 191              		.loc 1 43 5 is_stmt 1 view .LVU43
 192              		.loc 1 43 26 is_stmt 0 view .LVU44
 193 0026 0296     		str	r6, [sp, #8]
  44:Core/Src/battery_adc.c ****     sConfig.SamplingTime = ADC_SAMPLETIME_239CYCLES_5;
 194              		.loc 1 44 5 is_stmt 1 view .LVU45
 195              		.loc 1 44 26 is_stmt 0 view .LVU46
 196 0028 0723     		movs	r3, #7
 197 002a 0393     		str	r3, [sp, #12]
  45:Core/Src/battery_adc.c ****     HAL_ADC_ConfigChannel(&hadc1, &sConfig);
 198              		.loc 1 45 5 is_stmt 1 view .LVU47
 199 002c 01A9     		add	r1, sp, #4
 200 002e 2046     		mov	r0, r4
 201 0030 FFF7FEFF 		bl	HAL_ADC_ConfigChannel
 202              	.LVL2:
  46:Core/Src/battery_adc.c **** }
 203              		.loc 1 46 1 is_stmt 0 view .LVU48
 204 0034 04B0     		add	sp, sp, #16
 205              	.LCFI7:
 206              		.cfi_def_cfa_offset 16
 207              		@ sp needed
 208 0036 70BD     		pop	{r4, r5, r6, pc}
 209              	.L12:
 210              		.align	2
 211              	.L11:
 212 0038 00000000 		.word	.LANCHOR0
 213 003c 00240140 		.word	1073816576
 214              		.cfi_endproc
 215              	.LFE67:
 217              		.section	.text.BatteryADC_Init,"ax",%progbits
 218              		.align	1
 219              		.global	BatteryADC_Init
 220              		.syntax unified
 221              		.thumb
 222              		.thumb_func
 223              		.fpu softvfp
 225              	BatteryADC_Init:
 226              	.LFB68:
  47:Core/Src/battery_adc.c **** 
  48:Core/Src/battery_adc.c **** /*=================== 对外 API 实现 ===================*/
  49:Core/Src/battery_adc.c **** void BatteryADC_Init(void)
  50:Core/Src/battery_adc.c **** {
 227              		.loc 1 50 1 is_stmt 1 view -0
 228              		.cfi_startproc
 229              		@ args = 0, pretend = 0, frame = 0
 230              		@ frame_needed = 0, uses_anonymous_args = 0
 231 0000 08B5     		push	{r3, lr}
 232              	.LCFI8:
 233              		.cfi_def_cfa_offset 8
 234              		.cfi_offset 3, -8
 235              		.cfi_offset 14, -4
  51:Core/Src/battery_adc.c ****     BatteryADC_EnableClocks();
 236              		.loc 1 51 5 view .LVU50
 237 0002 FFF7FEFF 		bl	BatteryADC_EnableClocks
 238              	.LVL3:
  52:Core/Src/battery_adc.c ****     BatteryADC_GPIO_Init();
 239              		.loc 1 52 5 view .LVU51
 240 0006 FFF7FEFF 		bl	BatteryADC_GPIO_Init
ARM GAS  /tmp/ccquzIMb.s 			page 6


 241              	.LVL4:
  53:Core/Src/battery_adc.c ****     BatteryADC_ADC1_CoreInit();
 242              		.loc 1 53 5 view .LVU52
 243 000a FFF7FEFF 		bl	BatteryADC_ADC1_CoreInit
 244              	.LVL5:
  54:Core/Src/battery_adc.c **** }
 245              		.loc 1 54 1 is_stmt 0 view .LVU53
 246 000e 08BD     		pop	{r3, pc}
 247              		.cfi_endproc
 248              	.LFE68:
 250              		.section	.text.BatteryADC_ReadRawOnce,"ax",%progbits
 251              		.align	1
 252              		.global	BatteryADC_ReadRawOnce
 253              		.syntax unified
 254              		.thumb
 255              		.thumb_func
 256              		.fpu softvfp
 258              	BatteryADC_ReadRawOnce:
 259              	.LFB69:
  55:Core/Src/battery_adc.c **** 
  56:Core/Src/battery_adc.c **** uint16_t BatteryADC_ReadRawOnce(void)
  57:Core/Src/battery_adc.c **** {
 260              		.loc 1 57 1 is_stmt 1 view -0
 261              		.cfi_startproc
 262              		@ args = 0, pretend = 0, frame = 0
 263              		@ frame_needed = 0, uses_anonymous_args = 0
 264 0000 38B5     		push	{r3, r4, r5, lr}
 265              	.LCFI9:
 266              		.cfi_def_cfa_offset 16
 267              		.cfi_offset 3, -16
 268              		.cfi_offset 4, -12
 269              		.cfi_offset 5, -8
 270              		.cfi_offset 14, -4
  58:Core/Src/battery_adc.c ****     HAL_StatusTypeDef st;
 271              		.loc 1 58 5 view .LVU55
  59:Core/Src/battery_adc.c **** 
  60:Core/Src/battery_adc.c ****     st = HAL_ADC_Start(&hadc1);
 272              		.loc 1 60 5 view .LVU56
 273              		.loc 1 60 10 is_stmt 0 view .LVU57
 274 0002 0D48     		ldr	r0, .L22
 275 0004 FFF7FEFF 		bl	HAL_ADC_Start
 276              	.LVL6:
  61:Core/Src/battery_adc.c ****     if (st != HAL_OK) return 0;
 277              		.loc 1 61 5 is_stmt 1 view .LVU58
 278              		.loc 1 61 8 is_stmt 0 view .LVU59
 279 0008 10B1     		cbz	r0, .L20
 280              		.loc 1 61 30 view .LVU60
 281 000a 0024     		movs	r4, #0
 282              	.LVL7:
 283              	.L16:
  62:Core/Src/battery_adc.c **** 
  63:Core/Src/battery_adc.c ****     /* 轮询等待转换完成：给 10ms 超时足够 */
  64:Core/Src/battery_adc.c ****     st = HAL_ADC_PollForConversion(&hadc1, 10);
  65:Core/Src/battery_adc.c ****     if (st != HAL_OK)
  66:Core/Src/battery_adc.c ****     {
  67:Core/Src/battery_adc.c ****         HAL_ADC_Stop(&hadc1);
  68:Core/Src/battery_adc.c ****         return 0;
ARM GAS  /tmp/ccquzIMb.s 			page 7


  69:Core/Src/battery_adc.c ****     }
  70:Core/Src/battery_adc.c **** 
  71:Core/Src/battery_adc.c ****     uint16_t raw = (uint16_t)HAL_ADC_GetValue(&hadc1);
  72:Core/Src/battery_adc.c ****     HAL_ADC_Stop(&hadc1);
  73:Core/Src/battery_adc.c ****     return raw; 
  74:Core/Src/battery_adc.c **** }
 284              		.loc 1 74 1 view .LVU61
 285 000c 2046     		mov	r0, r4
 286 000e 38BD     		pop	{r3, r4, r5, pc}
 287              	.LVL8:
 288              	.L20:
  64:Core/Src/battery_adc.c ****     if (st != HAL_OK)
 289              		.loc 1 64 5 is_stmt 1 view .LVU62
  64:Core/Src/battery_adc.c ****     if (st != HAL_OK)
 290              		.loc 1 64 10 is_stmt 0 view .LVU63
 291 0010 0A21     		movs	r1, #10
 292 0012 0948     		ldr	r0, .L22
 293              	.LVL9:
  64:Core/Src/battery_adc.c ****     if (st != HAL_OK)
 294              		.loc 1 64 10 view .LVU64
 295 0014 FFF7FEFF 		bl	HAL_ADC_PollForConversion
 296              	.LVL10:
  65:Core/Src/battery_adc.c ****     {
 297              		.loc 1 65 5 is_stmt 1 view .LVU65
  65:Core/Src/battery_adc.c ****     {
 298              		.loc 1 65 8 is_stmt 0 view .LVU66
 299 0018 40B9     		cbnz	r0, .L21
  71:Core/Src/battery_adc.c ****     HAL_ADC_Stop(&hadc1);
 300              		.loc 1 71 5 is_stmt 1 view .LVU67
  71:Core/Src/battery_adc.c ****     HAL_ADC_Stop(&hadc1);
 301              		.loc 1 71 30 is_stmt 0 view .LVU68
 302 001a 074D     		ldr	r5, .L22
 303 001c 2846     		mov	r0, r5
 304              	.LVL11:
  71:Core/Src/battery_adc.c ****     HAL_ADC_Stop(&hadc1);
 305              		.loc 1 71 30 view .LVU69
 306 001e FFF7FEFF 		bl	HAL_ADC_GetValue
 307              	.LVL12:
  71:Core/Src/battery_adc.c ****     HAL_ADC_Stop(&hadc1);
 308              		.loc 1 71 14 view .LVU70
 309 0022 84B2     		uxth	r4, r0
 310              	.LVL13:
  72:Core/Src/battery_adc.c ****     return raw; 
 311              		.loc 1 72 5 is_stmt 1 view .LVU71
 312 0024 2846     		mov	r0, r5
 313 0026 FFF7FEFF 		bl	HAL_ADC_Stop
 314              	.LVL14:
  73:Core/Src/battery_adc.c **** }
 315              		.loc 1 73 5 view .LVU72
  73:Core/Src/battery_adc.c **** }
 316              		.loc 1 73 12 is_stmt 0 view .LVU73
 317 002a EFE7     		b	.L16
 318              	.LVL15:
 319              	.L21:
  67:Core/Src/battery_adc.c ****         return 0;
 320              		.loc 1 67 9 is_stmt 1 view .LVU74
 321 002c 0248     		ldr	r0, .L22
ARM GAS  /tmp/ccquzIMb.s 			page 8


 322              	.LVL16:
  67:Core/Src/battery_adc.c ****         return 0;
 323              		.loc 1 67 9 is_stmt 0 view .LVU75
 324 002e FFF7FEFF 		bl	HAL_ADC_Stop
 325              	.LVL17:
  68:Core/Src/battery_adc.c ****     }
 326              		.loc 1 68 9 is_stmt 1 view .LVU76
  68:Core/Src/battery_adc.c ****     }
 327              		.loc 1 68 16 is_stmt 0 view .LVU77
 328 0032 0024     		movs	r4, #0
 329 0034 EAE7     		b	.L16
 330              	.L23:
 331 0036 00BF     		.align	2
 332              	.L22:
 333 0038 00000000 		.word	.LANCHOR0
 334              		.cfi_endproc
 335              	.LFE69:
 337              		.section	.text.BatteryADC_ReadRawAverage,"ax",%progbits
 338              		.align	1
 339              		.global	BatteryADC_ReadRawAverage
 340              		.syntax unified
 341              		.thumb
 342              		.thumb_func
 343              		.fpu softvfp
 345              	BatteryADC_ReadRawAverage:
 346              	.LFB70:
  75:Core/Src/battery_adc.c **** 
  76:Core/Src/battery_adc.c **** uint16_t BatteryADC_ReadRawAverage(void)
  77:Core/Src/battery_adc.c **** {
 347              		.loc 1 77 1 is_stmt 1 view -0
 348              		.cfi_startproc
 349              		@ args = 0, pretend = 0, frame = 0
 350              		@ frame_needed = 0, uses_anonymous_args = 0
 351 0000 38B5     		push	{r3, r4, r5, lr}
 352              	.LCFI10:
 353              		.cfi_def_cfa_offset 16
 354              		.cfi_offset 3, -16
 355              		.cfi_offset 4, -12
 356              		.cfi_offset 5, -8
 357              		.cfi_offset 14, -4
  78:Core/Src/battery_adc.c ****     uint32_t acc = 0;
 358              		.loc 1 78 5 view .LVU79
 359              	.LVL18:
  79:Core/Src/battery_adc.c ****     for (uint32_t i = 0; i < BAT_ADC_AVG_TIMES; i++)
 360              		.loc 1 79 5 view .LVU80
 361              	.LBB4:
 362              		.loc 1 79 10 view .LVU81
 363              		.loc 1 79 19 is_stmt 0 view .LVU82
 364 0002 0024     		movs	r4, #0
 365              	.LBE4:
  78:Core/Src/battery_adc.c ****     uint32_t acc = 0;
 366              		.loc 1 78 14 view .LVU83
 367 0004 2546     		mov	r5, r4
 368              	.LVL19:
 369              	.L25:
 370              	.LBB5:
 371              		.loc 1 79 26 is_stmt 1 discriminator 1 view .LVU84
ARM GAS  /tmp/ccquzIMb.s 			page 9


 372              		.loc 1 79 5 is_stmt 0 discriminator 1 view .LVU85
 373 0006 1F2C     		cmp	r4, #31
 374 0008 04D8     		bhi	.L28
  80:Core/Src/battery_adc.c ****     {
  81:Core/Src/battery_adc.c ****         acc += BatteryADC_ReadRawOnce();
 375              		.loc 1 81 9 is_stmt 1 discriminator 3 view .LVU86
 376              		.loc 1 81 16 is_stmt 0 discriminator 3 view .LVU87
 377 000a FFF7FEFF 		bl	BatteryADC_ReadRawOnce
 378              	.LVL20:
 379              		.loc 1 81 13 discriminator 3 view .LVU88
 380 000e 0544     		add	r5, r5, r0
 381              	.LVL21:
  79:Core/Src/battery_adc.c ****     for (uint32_t i = 0; i < BAT_ADC_AVG_TIMES; i++)
 382              		.loc 1 79 49 is_stmt 1 discriminator 3 view .LVU89
  79:Core/Src/battery_adc.c ****     for (uint32_t i = 0; i < BAT_ADC_AVG_TIMES; i++)
 383              		.loc 1 79 50 is_stmt 0 discriminator 3 view .LVU90
 384 0010 0134     		adds	r4, r4, #1
 385              	.LVL22:
  79:Core/Src/battery_adc.c ****     for (uint32_t i = 0; i < BAT_ADC_AVG_TIMES; i++)
 386              		.loc 1 79 50 discriminator 3 view .LVU91
 387 0012 F8E7     		b	.L25
 388              	.L28:
  79:Core/Src/battery_adc.c ****     for (uint32_t i = 0; i < BAT_ADC_AVG_TIMES; i++)
 389              		.loc 1 79 50 discriminator 3 view .LVU92
 390              	.LBE5:
  82:Core/Src/battery_adc.c ****     }
  83:Core/Src/battery_adc.c ****     return (uint16_t)(acc / BAT_ADC_AVG_TIMES);
 391              		.loc 1 83 5 is_stmt 1 view .LVU93
  84:Core/Src/battery_adc.c **** }
 392              		.loc 1 84 1 is_stmt 0 view .LVU94
 393 0014 C5F34F10 		ubfx	r0, r5, #5, #16
 394 0018 38BD     		pop	{r3, r4, r5, pc}
 395              		.loc 1 84 1 view .LVU95
 396              		.cfi_endproc
 397              	.LFE70:
 399              		.global	__aeabi_uldivmod
 400              		.section	.text.BatteryADC_ReadPA0_mV,"ax",%progbits
 401              		.align	1
 402              		.global	BatteryADC_ReadPA0_mV
 403              		.syntax unified
 404              		.thumb
 405              		.thumb_func
 406              		.fpu softvfp
 408              	BatteryADC_ReadPA0_mV:
 409              	.LFB71:
  85:Core/Src/battery_adc.c **** 
  86:Core/Src/battery_adc.c **** uint32_t BatteryADC_ReadPA0_mV(void)
  87:Core/Src/battery_adc.c **** {
 410              		.loc 1 87 1 is_stmt 1 view -0
 411              		.cfi_startproc
 412              		@ args = 0, pretend = 0, frame = 0
 413              		@ frame_needed = 0, uses_anonymous_args = 0
 414 0000 38B5     		push	{r3, r4, r5, lr}
 415              	.LCFI11:
 416              		.cfi_def_cfa_offset 16
 417              		.cfi_offset 3, -16
 418              		.cfi_offset 4, -12
ARM GAS  /tmp/ccquzIMb.s 			page 10


 419              		.cfi_offset 5, -8
 420              		.cfi_offset 14, -4
  88:Core/Src/battery_adc.c ****     uint16_t raw = BatteryADC_ReadRawAverage();
 421              		.loc 1 88 5 view .LVU97
 422              		.loc 1 88 20 is_stmt 0 view .LVU98
 423 0002 FFF7FEFF 		bl	BatteryADC_ReadRawAverage
 424              	.LVL23:
  89:Core/Src/battery_adc.c ****     /* mV = raw * Vref / 4095，使用 64bit 避免中间溢出 */
  90:Core/Src/battery_adc.c ****     return (uint32_t)((uint64_t)raw * (uint64_t)ADC_VREF_MV / 4095ULL);
 425              		.loc 1 90 5 is_stmt 1 view .LVU99
 426              		.loc 1 90 23 is_stmt 0 view .LVU100
 427 0006 0025     		movs	r5, #0
 428              		.loc 1 90 37 view .LVU101
 429 0008 0318     		adds	r3, r0, r0
 430 000a 45EB0502 		adc	r2, r5, r5
 431 000e 1B18     		adds	r3, r3, r0
 432 0010 45EB0202 		adc	r2, r5, r2
 433 0014 5101     		lsls	r1, r2, #5
 434 0016 5C01     		lsls	r4, r3, #5
 435 0018 0A46     		mov	r2, r1
 436 001a 2318     		adds	r3, r4, r0
 437 001c 45EB0202 		adc	r2, r5, r2
 438 0020 1101     		lsls	r1, r2, #4
 439 0022 41EA1371 		orr	r1, r1, r3, lsr #28
 440 0026 1C01     		lsls	r4, r3, #4
 441 0028 1B19     		adds	r3, r3, r4
 442 002a 41EB0202 		adc	r2, r1, r2
 443 002e DC18     		adds	r4, r3, r3
 444 0030 42EB0201 		adc	r1, r2, r2
 445              		.loc 1 90 61 view .LVU102
 446 0034 40F6FF72 		movw	r2, #4095
 447 0038 0023     		movs	r3, #0
 448 003a 2018     		adds	r0, r4, r0
 449              	.LVL24:
 450              		.loc 1 90 61 view .LVU103
 451 003c 45EB0101 		adc	r1, r5, r1
 452 0040 FFF7FEFF 		bl	__aeabi_uldivmod
 453              	.LVL25:
  91:Core/Src/battery_adc.c **** }
 454              		.loc 1 91 1 view .LVU104
 455 0044 38BD     		pop	{r3, r4, r5, pc}
 456              		.cfi_endproc
 457              	.LFE71:
 459              		.section	.text.BatteryADC_ReadBattery_mV,"ax",%progbits
 460              		.align	1
 461              		.global	BatteryADC_ReadBattery_mV
 462              		.syntax unified
 463              		.thumb
 464              		.thumb_func
 465              		.fpu softvfp
 467              	BatteryADC_ReadBattery_mV:
 468              	.LFB72:
  92:Core/Src/battery_adc.c **** 
  93:Core/Src/battery_adc.c **** uint32_t BatteryADC_ReadBattery_mV(void)
  94:Core/Src/battery_adc.c **** {
 469              		.loc 1 94 1 is_stmt 1 view -0
 470              		.cfi_startproc
ARM GAS  /tmp/ccquzIMb.s 			page 11


 471              		@ args = 0, pretend = 0, frame = 0
 472              		@ frame_needed = 0, uses_anonymous_args = 0
 473 0000 08B5     		push	{r3, lr}
 474              	.LCFI12:
 475              		.cfi_def_cfa_offset 8
 476              		.cfi_offset 3, -8
 477              		.cfi_offset 14, -4
  95:Core/Src/battery_adc.c ****     /* Vbat = Vpa0 * (RTOP + RBOT) / RBOT */
  96:Core/Src/battery_adc.c ****     uint32_t pa0_mV = BatteryADC_ReadPA0_mV();
 478              		.loc 1 96 5 view .LVU106
 479              		.loc 1 96 23 is_stmt 0 view .LVU107
 480 0002 FFF7FEFF 		bl	BatteryADC_ReadPA0_mV
 481              	.LVL26:
  97:Core/Src/battery_adc.c ****     uint32_t num = (BAT_RTOP_OHM + BAT_RBOT_OHM);
 482              		.loc 1 97 5 is_stmt 1 view .LVU108
  98:Core/Src/battery_adc.c ****     uint32_t den = BAT_RBOT_OHM;
 483              		.loc 1 98 5 view .LVU109
  99:Core/Src/battery_adc.c **** 
 100:Core/Src/battery_adc.c ****     return (uint32_t)((uint64_t)pa0_mV * (uint64_t)num / (uint64_t)den);
 484              		.loc 1 100 5 view .LVU110
 485              		.loc 1 100 56 is_stmt 0 view .LVU111
 486 0006 42F21072 		movw	r2, #10000
 487 000a 0023     		movs	r3, #0
 488 000c 0249     		ldr	r1, .L33
 489 000e A0FB0101 		umull	r0, r1, r0, r1
 490              	.LVL27:
 491              		.loc 1 100 56 view .LVU112
 492 0012 FFF7FEFF 		bl	__aeabi_uldivmod
 493              	.LVL28:
 101:Core/Src/battery_adc.c **** }
 494              		.loc 1 101 1 view .LVU113
 495 0016 08BD     		pop	{r3, pc}
 496              	.L34:
 497              		.align	2
 498              	.L33:
 499 0018 B0AD0100 		.word	110000
 500              		.cfi_endproc
 501              	.LFE72:
 503              		.global	__aeabi_ui2d
 504              		.global	__aeabi_dmul
 505              		.global	__aeabi_d2f
 506              		.global	__aeabi_f2uiz
 507              		.section	.text.BatteryADC_ReadPercent,"ax",%progbits
 508              		.align	1
 509              		.global	BatteryADC_ReadPercent
 510              		.syntax unified
 511              		.thumb
 512              		.thumb_func
 513              		.fpu softvfp
 515              	BatteryADC_ReadPercent:
 516              	.LFB73:
 102:Core/Src/battery_adc.c **** 
 103:Core/Src/battery_adc.c **** uint8_t BatteryADC_ReadPercent(void)
 104:Core/Src/battery_adc.c **** {
 517              		.loc 1 104 1 is_stmt 1 view -0
 518              		.cfi_startproc
 519              		@ args = 0, pretend = 0, frame = 0
ARM GAS  /tmp/ccquzIMb.s 			page 12


 520              		@ frame_needed = 0, uses_anonymous_args = 0
 521 0000 08B5     		push	{r3, lr}
 522              	.LCFI13:
 523              		.cfi_def_cfa_offset 8
 524              		.cfi_offset 3, -8
 525              		.cfi_offset 14, -4
 105:Core/Src/battery_adc.c ****     uint32_t vbat = BatteryADC_ReadBattery_mV();
 526              		.loc 1 105 5 view .LVU115
 527              		.loc 1 105 21 is_stmt 0 view .LVU116
 528 0002 FFF7FEFF 		bl	BatteryADC_ReadBattery_mV
 529              	.LVL29:
 106:Core/Src/battery_adc.c **** 
 107:Core/Src/battery_adc.c ****     if (vbat <= BAT_VMIN_MV) return 0;
 530              		.loc 1 107 5 is_stmt 1 view .LVU117
 531              		.loc 1 107 8 is_stmt 0 view .LVU118
 532 0006 42F6E063 		movw	r3, #12000
 533 000a 9842     		cmp	r0, r3
 534 000c 1BD9     		bls	.L37
 108:Core/Src/battery_adc.c ****     if (vbat >= BAT_VMAX_MV) return 100;
 535              		.loc 1 108 5 is_stmt 1 view .LVU119
 536              		.loc 1 108 8 is_stmt 0 view .LVU120
 537 000e 44F29F13 		movw	r3, #16799
 538 0012 9842     		cmp	r0, r3
 539 0014 19D8     		bhi	.L38
 109:Core/Src/battery_adc.c **** 
 110:Core/Src/battery_adc.c ****     uint32_t pct = (uint32_t)((vbat - BAT_VMIN_MV) * 100UL
 540              		.loc 1 110 5 is_stmt 1 view .LVU121
 541              		.loc 1 110 52 is_stmt 0 view .LVU122
 542 0016 6423     		movs	r3, #100
 543 0018 03FB00F0 		mul	r0, r3, r0
 544              	.LVL30:
 545              		.loc 1 110 52 view .LVU123
 546 001c A0F59210 		sub	r0, r0, #1196032
 547 0020 A0F57860 		sub	r0, r0, #3968
 548              		.loc 1 110 14 view .LVU124
 549 0024 0C4B     		ldr	r3, .L40+8
 550 0026 A3FB0030 		umull	r3, r0, r3, r0
 551              	.LVL31:
 111:Core/Src/battery_adc.c ****                               / (BAT_VMAX_MV - BAT_VMIN_MV));
 112:Core/Src/battery_adc.c ****     float real_data = pct *1.1628;
 552              		.loc 1 112 5 is_stmt 1 view .LVU125
 553              		.loc 1 112 27 is_stmt 0 view .LVU126
 554 002a 400A     		lsrs	r0, r0, #9
 555              	.LVL32:
 556              		.loc 1 112 27 view .LVU127
 557 002c FFF7FEFF 		bl	__aeabi_ui2d
 558              	.LVL33:
 559              		.loc 1 112 27 view .LVU128
 560 0030 07A3     		adr	r3, .L40
 561 0032 D3E90023 		ldrd	r2, [r3]
 562 0036 FFF7FEFF 		bl	__aeabi_dmul
 563              	.LVL34:
 564              		.loc 1 112 11 view .LVU129
 565 003a FFF7FEFF 		bl	__aeabi_d2f
 566              	.LVL35:
 113:Core/Src/battery_adc.c ****     return (uint8_t)real_data;
 567              		.loc 1 113 5 is_stmt 1 view .LVU130
ARM GAS  /tmp/ccquzIMb.s 			page 13


 568              		.loc 1 113 12 is_stmt 0 view .LVU131
 569 003e FFF7FEFF 		bl	__aeabi_f2uiz
 570              	.LVL36:
 571              		.loc 1 113 12 view .LVU132
 572 0042 C0B2     		uxtb	r0, r0
 573              	.L36:
 114:Core/Src/battery_adc.c **** }
 574              		.loc 1 114 1 view .LVU133
 575 0044 08BD     		pop	{r3, pc}
 576              	.LVL37:
 577              	.L37:
 107:Core/Src/battery_adc.c ****     if (vbat >= BAT_VMAX_MV) return 100;
 578              		.loc 1 107 37 view .LVU134
 579 0046 0020     		movs	r0, #0
 580              	.LVL38:
 107:Core/Src/battery_adc.c ****     if (vbat >= BAT_VMAX_MV) return 100;
 581              		.loc 1 107 37 view .LVU135
 582 0048 FCE7     		b	.L36
 583              	.LVL39:
 584              	.L38:
 108:Core/Src/battery_adc.c **** 
 585              		.loc 1 108 37 view .LVU136
 586 004a 6420     		movs	r0, #100
 587              	.LVL40:
 108:Core/Src/battery_adc.c **** 
 588              		.loc 1 108 37 view .LVU137
 589 004c FAE7     		b	.L36
 590              	.L41:
 591 004e 00BF     		.align	3
 592              	.L40:
 593 0050 ED9E3C2C 		.word	742170349
 594 0054 D49AF23F 		.word	1072863956
 595 0058 B5814E1B 		.word	458129845
 596              		.cfi_endproc
 597              	.LFE73:
 599              		.section	.bss.hadc1,"aw",%nobits
 600              		.align	2
 601              		.set	.LANCHOR0,. + 0
 604              	hadc1:
 605 0000 00000000 		.space	48
 605      00000000 
 605      00000000 
 605      00000000 
 605      00000000 
 606              		.text
 607              	.Letext0:
 608              		.file 2 "/opt/gcc-arm-none-eabi-9-2020-q2-update/arm-none-eabi/include/machine/_default_types.h"
 609              		.file 3 "/opt/gcc-arm-none-eabi-9-2020-q2-update/arm-none-eabi/include/sys/_stdint.h"
 610              		.file 4 "Drivers/CMSIS/Include/core_cm3.h"
 611              		.file 5 "Drivers/CMSIS/Device/ST/STM32F1xx/Include/system_stm32f1xx.h"
 612              		.file 6 "Drivers/CMSIS/Device/ST/STM32F1xx/Include/stm32f103xe.h"
 613              		.file 7 "Drivers/CMSIS/Device/ST/STM32F1xx/Include/stm32f1xx.h"
 614              		.file 8 "Drivers/STM32F1xx_HAL_Driver/Inc/stm32f1xx_hal_def.h"
 615              		.file 9 "Drivers/STM32F1xx_HAL_Driver/Inc/stm32f1xx_hal_gpio.h"
 616              		.file 10 "Drivers/STM32F1xx_HAL_Driver/Inc/stm32f1xx_hal_dma.h"
 617              		.file 11 "Drivers/STM32F1xx_HAL_Driver/Inc/stm32f1xx_hal_adc.h"
 618              		.file 12 "Drivers/STM32F1xx_HAL_Driver/Inc/stm32f1xx_hal.h"
ARM GAS  /tmp/ccquzIMb.s 			page 14


ARM GAS  /tmp/ccquzIMb.s 			page 15

