ARM GAS  /tmp/ccnJVm93.s 			page 1


   1              		.cpu cortex-m3
   2              		.eabi_attribute 20, 1
   3              		.eabi_attribute 21, 1
   4              		.eabi_attribute 23, 3
   5              		.eabi_attribute 24, 1
   6              		.eabi_attribute 25, 1
   7              		.eabi_attribute 26, 1
   8              		.eabi_attribute 30, 1
   9              		.eabi_attribute 34, 1
  10              		.eabi_attribute 18, 4
  11              		.file	"channel_change.c"
  12              		.text
  13              	.Ltext0:
  14              		.cfi_sections	.debug_frame
  15              		.section	.text.channel_257_switch,"ax",%progbits
  16              		.align	1
  17              		.arch armv7-m
  18              		.syntax unified
  19              		.thumb
  20              		.thumb_func
  21              		.fpu softvfp
  23              	channel_257_switch:
  24              	.LVL0:
  25              	.LFB66:
  26              		.file 1 "diff_signal/channel_change.c"
   1:diff_signal/channel_change.c **** #include "stdint.h"
   2:diff_signal/channel_change.c **** #include "stdbool.h"
   3:diff_signal/channel_change.c **** #include "stm32f1xx_hal.h"
   4:diff_signal/channel_change.c **** #include "channel_change.h"
   5:diff_signal/channel_change.c **** #include "gpio.h"
   6:diff_signal/channel_change.c **** #include "diff_signal.h"
   7:diff_signal/channel_change.c **** 
   8:diff_signal/channel_change.c **** /*
   9:diff_signal/channel_change.c ****  * 说明：
  10:diff_signal/channel_change.c ****  * 1. 保持原有接口名字不变
  11:diff_signal/channel_change.c ****  * 2. 去掉 HAL_Delay(1)，避免 ms 级阻塞影响 100bps 发送节拍
  12:diff_signal/channel_change.c ****  * 3. 对 74HCT257 这类逻辑器件，本体切换是 ns 级，不需要 1ms 等待
  13:diff_signal/channel_change.c ****  * 4. 如果你后级模拟链路确实需要更长建立时间，后续再单独加
  14:diff_signal/channel_change.c ****  */
  15:diff_signal/channel_change.c **** 
  16:diff_signal/channel_change.c **** /* 很短的保护延时，避免GPIO连续翻转过快。
  17:diff_signal/channel_change.c ****    这里只做几个 NOP，不再用 HAL_Delay 或 DWT。 */
  18:diff_signal/channel_change.c **** static inline void channel_short_delay(void)
  19:diff_signal/channel_change.c **** {
  20:diff_signal/channel_change.c ****     __NOP();
  21:diff_signal/channel_change.c ****     __NOP();
  22:diff_signal/channel_change.c ****     __NOP();
  23:diff_signal/channel_change.c ****     __NOP();
  24:diff_signal/channel_change.c ****     __NOP();
  25:diff_signal/channel_change.c ****     __NOP();
  26:diff_signal/channel_change.c ****     __NOP();
  27:diff_signal/channel_change.c ****     __NOP();
  28:diff_signal/channel_change.c **** }
  29:diff_signal/channel_change.c **** 
  30:diff_signal/channel_change.c **** /* 通用 74HCT257 切换函数
  31:diff_signal/channel_change.c ****    /OE 低有效：
  32:diff_signal/channel_change.c ****    - GPIO_PIN_SET   -> 禁止输出（高阻）
ARM GAS  /tmp/ccnJVm93.s 			page 2


  33:diff_signal/channel_change.c ****    - GPIO_PIN_RESET -> 使能输出
  34:diff_signal/channel_change.c **** 
  35:diff_signal/channel_change.c ****    S 选择端：
  36:diff_signal/channel_change.c ****    - GPIO_PIN_RESET -> 选 A
  37:diff_signal/channel_change.c ****    - GPIO_PIN_SET   -> 选 B
  38:diff_signal/channel_change.c **** */
  39:diff_signal/channel_change.c **** static void channel_257_switch(GPIO_TypeDef *oe_port, uint16_t oe_pin,
  40:diff_signal/channel_change.c ****                                GPIO_TypeDef *sel_port, uint16_t sel_pin,
  41:diff_signal/channel_change.c ****                                GPIO_PinState sel_state)
  42:diff_signal/channel_change.c **** {
  27              		.loc 1 42 1 view -0
  28              		.cfi_startproc
  29              		@ args = 4, pretend = 0, frame = 0
  30              		@ frame_needed = 0, uses_anonymous_args = 0
  31              		.loc 1 42 1 is_stmt 0 view .LVU1
  32 0000 F8B5     		push	{r3, r4, r5, r6, r7, lr}
  33              	.LCFI0:
  34              		.cfi_def_cfa_offset 24
  35              		.cfi_offset 3, -24
  36              		.cfi_offset 4, -20
  37              		.cfi_offset 5, -16
  38              		.cfi_offset 6, -12
  39              		.cfi_offset 7, -8
  40              		.cfi_offset 14, -4
  41 0002 0446     		mov	r4, r0
  42 0004 0D46     		mov	r5, r1
  43 0006 1646     		mov	r6, r2
  44 0008 1F46     		mov	r7, r3
  43:diff_signal/channel_change.c ****     /* 1. 先禁止输出 */
  44:diff_signal/channel_change.c ****     HAL_GPIO_WritePin(oe_port, oe_pin, GPIO_PIN_SET);
  45              		.loc 1 44 5 is_stmt 1 view .LVU2
  46 000a 0122     		movs	r2, #1
  47              	.LVL1:
  48              		.loc 1 44 5 is_stmt 0 view .LVU3
  49 000c FFF7FEFF 		bl	HAL_GPIO_WritePin
  50              	.LVL2:
  45:diff_signal/channel_change.c ****     channel_short_delay();
  51              		.loc 1 45 5 is_stmt 1 view .LVU4
  52              	.LBB14:
  53              	.LBI14:
  18:diff_signal/channel_change.c **** {
  54              		.loc 1 18 20 view .LVU5
  55              	.LBB15:
  20:diff_signal/channel_change.c ****     __NOP();
  56              		.loc 1 20 5 view .LVU6
  57              		.syntax unified
  58              	@ 20 "diff_signal/channel_change.c" 1
  59 0010 00BF     		nop
  60              	@ 0 "" 2
  21:diff_signal/channel_change.c ****     __NOP();
  61              		.loc 1 21 5 view .LVU7
  62              	@ 21 "diff_signal/channel_change.c" 1
  63 0012 00BF     		nop
  64              	@ 0 "" 2
  22:diff_signal/channel_change.c ****     __NOP();
  65              		.loc 1 22 5 view .LVU8
  66              	@ 22 "diff_signal/channel_change.c" 1
ARM GAS  /tmp/ccnJVm93.s 			page 3


  67 0014 00BF     		nop
  68              	@ 0 "" 2
  23:diff_signal/channel_change.c ****     __NOP();
  69              		.loc 1 23 5 view .LVU9
  70              	@ 23 "diff_signal/channel_change.c" 1
  71 0016 00BF     		nop
  72              	@ 0 "" 2
  24:diff_signal/channel_change.c ****     __NOP();
  73              		.loc 1 24 5 view .LVU10
  74              	@ 24 "diff_signal/channel_change.c" 1
  75 0018 00BF     		nop
  76              	@ 0 "" 2
  25:diff_signal/channel_change.c ****     __NOP();
  77              		.loc 1 25 5 view .LVU11
  78              	@ 25 "diff_signal/channel_change.c" 1
  79 001a 00BF     		nop
  80              	@ 0 "" 2
  26:diff_signal/channel_change.c ****     __NOP();
  81              		.loc 1 26 5 view .LVU12
  82              	@ 26 "diff_signal/channel_change.c" 1
  83 001c 00BF     		nop
  84              	@ 0 "" 2
  27:diff_signal/channel_change.c **** }
  85              		.loc 1 27 5 view .LVU13
  86              	@ 27 "diff_signal/channel_change.c" 1
  87 001e 00BF     		nop
  88              	@ 0 "" 2
  89              		.thumb
  90              		.syntax unified
  91              	.LBE15:
  92              	.LBE14:
  46:diff_signal/channel_change.c **** 
  47:diff_signal/channel_change.c ****     /* 2. 切换选择端 */
  48:diff_signal/channel_change.c ****     HAL_GPIO_WritePin(sel_port, sel_pin, sel_state);
  93              		.loc 1 48 5 view .LVU14
  94 0020 9DF81820 		ldrb	r2, [sp, #24]	@ zero_extendqisi2
  95 0024 3946     		mov	r1, r7
  96 0026 3046     		mov	r0, r6
  97 0028 FFF7FEFF 		bl	HAL_GPIO_WritePin
  98              	.LVL3:
  49:diff_signal/channel_change.c ****     channel_short_delay();
  99              		.loc 1 49 5 view .LVU15
 100              	.LBB16:
 101              	.LBI16:
  18:diff_signal/channel_change.c **** {
 102              		.loc 1 18 20 view .LVU16
 103              	.LBB17:
  20:diff_signal/channel_change.c ****     __NOP();
 104              		.loc 1 20 5 view .LVU17
 105              		.syntax unified
 106              	@ 20 "diff_signal/channel_change.c" 1
 107 002c 00BF     		nop
 108              	@ 0 "" 2
  21:diff_signal/channel_change.c ****     __NOP();
 109              		.loc 1 21 5 view .LVU18
 110              	@ 21 "diff_signal/channel_change.c" 1
 111 002e 00BF     		nop
ARM GAS  /tmp/ccnJVm93.s 			page 4


 112              	@ 0 "" 2
  22:diff_signal/channel_change.c ****     __NOP();
 113              		.loc 1 22 5 view .LVU19
 114              	@ 22 "diff_signal/channel_change.c" 1
 115 0030 00BF     		nop
 116              	@ 0 "" 2
  23:diff_signal/channel_change.c ****     __NOP();
 117              		.loc 1 23 5 view .LVU20
 118              	@ 23 "diff_signal/channel_change.c" 1
 119 0032 00BF     		nop
 120              	@ 0 "" 2
  24:diff_signal/channel_change.c ****     __NOP();
 121              		.loc 1 24 5 view .LVU21
 122              	@ 24 "diff_signal/channel_change.c" 1
 123 0034 00BF     		nop
 124              	@ 0 "" 2
  25:diff_signal/channel_change.c ****     __NOP();
 125              		.loc 1 25 5 view .LVU22
 126              	@ 25 "diff_signal/channel_change.c" 1
 127 0036 00BF     		nop
 128              	@ 0 "" 2
  26:diff_signal/channel_change.c ****     __NOP();
 129              		.loc 1 26 5 view .LVU23
 130              	@ 26 "diff_signal/channel_change.c" 1
 131 0038 00BF     		nop
 132              	@ 0 "" 2
  27:diff_signal/channel_change.c **** }
 133              		.loc 1 27 5 view .LVU24
 134              	@ 27 "diff_signal/channel_change.c" 1
 135 003a 00BF     		nop
 136              	@ 0 "" 2
 137              		.thumb
 138              		.syntax unified
 139              	.LBE17:
 140              	.LBE16:
  50:diff_signal/channel_change.c **** 
  51:diff_signal/channel_change.c ****     /* 3. 恢复输出 */
  52:diff_signal/channel_change.c ****     HAL_GPIO_WritePin(oe_port, oe_pin, GPIO_PIN_RESET);
 141              		.loc 1 52 5 view .LVU25
 142 003c 0022     		movs	r2, #0
 143 003e 2946     		mov	r1, r5
 144 0040 2046     		mov	r0, r4
 145 0042 FFF7FEFF 		bl	HAL_GPIO_WritePin
 146              	.LVL4:
  53:diff_signal/channel_change.c ****     channel_short_delay();
 147              		.loc 1 53 5 view .LVU26
 148              	.LBB18:
 149              	.LBI18:
  18:diff_signal/channel_change.c **** {
 150              		.loc 1 18 20 view .LVU27
 151              	.LBB19:
  20:diff_signal/channel_change.c ****     __NOP();
 152              		.loc 1 20 5 view .LVU28
 153              		.syntax unified
 154              	@ 20 "diff_signal/channel_change.c" 1
 155 0046 00BF     		nop
 156              	@ 0 "" 2
ARM GAS  /tmp/ccnJVm93.s 			page 5


  21:diff_signal/channel_change.c ****     __NOP();
 157              		.loc 1 21 5 view .LVU29
 158              	@ 21 "diff_signal/channel_change.c" 1
 159 0048 00BF     		nop
 160              	@ 0 "" 2
  22:diff_signal/channel_change.c ****     __NOP();
 161              		.loc 1 22 5 view .LVU30
 162              	@ 22 "diff_signal/channel_change.c" 1
 163 004a 00BF     		nop
 164              	@ 0 "" 2
  23:diff_signal/channel_change.c ****     __NOP();
 165              		.loc 1 23 5 view .LVU31
 166              	@ 23 "diff_signal/channel_change.c" 1
 167 004c 00BF     		nop
 168              	@ 0 "" 2
  24:diff_signal/channel_change.c ****     __NOP();
 169              		.loc 1 24 5 view .LVU32
 170              	@ 24 "diff_signal/channel_change.c" 1
 171 004e 00BF     		nop
 172              	@ 0 "" 2
  25:diff_signal/channel_change.c ****     __NOP();
 173              		.loc 1 25 5 view .LVU33
 174              	@ 25 "diff_signal/channel_change.c" 1
 175 0050 00BF     		nop
 176              	@ 0 "" 2
  26:diff_signal/channel_change.c ****     __NOP();
 177              		.loc 1 26 5 view .LVU34
 178              	@ 26 "diff_signal/channel_change.c" 1
 179 0052 00BF     		nop
 180              	@ 0 "" 2
  27:diff_signal/channel_change.c **** }
 181              		.loc 1 27 5 view .LVU35
 182              	@ 27 "diff_signal/channel_change.c" 1
 183 0054 00BF     		nop
 184              	@ 0 "" 2
 185              		.thumb
 186              		.syntax unified
 187              	.LBE19:
 188              	.LBE18:
  54:diff_signal/channel_change.c **** }
 189              		.loc 1 54 1 is_stmt 0 view .LVU36
 190 0056 F8BD     		pop	{r3, r4, r5, r6, r7, pc}
 191              		.loc 1 54 1 view .LVU37
 192              		.cfi_endproc
 193              	.LFE66:
 195              		.section	.text.freq_update_latch,"ax",%progbits
 196              		.align	1
 197              		.syntax unified
 198              		.thumb
 199              		.thumb_func
 200              		.fpu softvfp
 202              	freq_update_latch:
 203              	.LVL5:
 204              	.LFB67:
  55:diff_signal/channel_change.c **** 
  56:diff_signal/channel_change.c **** /* 频率选择更新
  57:diff_signal/channel_change.c ****    保持你原来逻辑：
ARM GAS  /tmp/ccnJVm93.s 			page 6


  58:diff_signal/channel_change.c ****    PC8 先拉高 -> 更新 PA2 -> PC8 拉低
  59:diff_signal/channel_change.c **** */
  60:diff_signal/channel_change.c **** static void freq_update_latch(GPIO_PinState freq_sel_state)
  61:diff_signal/channel_change.c **** {
 205              		.loc 1 61 1 is_stmt 1 view -0
 206              		.cfi_startproc
 207              		@ args = 0, pretend = 0, frame = 0
 208              		@ frame_needed = 0, uses_anonymous_args = 0
 209              		.loc 1 61 1 is_stmt 0 view .LVU39
 210 0000 38B5     		push	{r3, r4, r5, lr}
 211              	.LCFI1:
 212              		.cfi_def_cfa_offset 16
 213              		.cfi_offset 3, -16
 214              		.cfi_offset 4, -12
 215              		.cfi_offset 5, -8
 216              		.cfi_offset 14, -4
 217 0002 0446     		mov	r4, r0
  62:diff_signal/channel_change.c ****     HAL_GPIO_WritePin(GPIOC, GPIO_PIN_8, GPIO_PIN_SET);
 218              		.loc 1 62 5 is_stmt 1 view .LVU40
 219 0004 154D     		ldr	r5, .L5
 220 0006 0122     		movs	r2, #1
 221 0008 4FF48071 		mov	r1, #256
 222 000c 2846     		mov	r0, r5
 223              	.LVL6:
 224              		.loc 1 62 5 is_stmt 0 view .LVU41
 225 000e FFF7FEFF 		bl	HAL_GPIO_WritePin
 226              	.LVL7:
  63:diff_signal/channel_change.c ****     channel_short_delay();
 227              		.loc 1 63 5 is_stmt 1 view .LVU42
 228              	.LBB20:
 229              	.LBI20:
  18:diff_signal/channel_change.c **** {
 230              		.loc 1 18 20 view .LVU43
 231              	.LBB21:
  20:diff_signal/channel_change.c ****     __NOP();
 232              		.loc 1 20 5 view .LVU44
 233              		.syntax unified
 234              	@ 20 "diff_signal/channel_change.c" 1
 235 0012 00BF     		nop
 236              	@ 0 "" 2
  21:diff_signal/channel_change.c ****     __NOP();
 237              		.loc 1 21 5 view .LVU45
 238              	@ 21 "diff_signal/channel_change.c" 1
 239 0014 00BF     		nop
 240              	@ 0 "" 2
  22:diff_signal/channel_change.c ****     __NOP();
 241              		.loc 1 22 5 view .LVU46
 242              	@ 22 "diff_signal/channel_change.c" 1
 243 0016 00BF     		nop
 244              	@ 0 "" 2
  23:diff_signal/channel_change.c ****     __NOP();
 245              		.loc 1 23 5 view .LVU47
 246              	@ 23 "diff_signal/channel_change.c" 1
 247 0018 00BF     		nop
 248              	@ 0 "" 2
  24:diff_signal/channel_change.c ****     __NOP();
 249              		.loc 1 24 5 view .LVU48
ARM GAS  /tmp/ccnJVm93.s 			page 7


 250              	@ 24 "diff_signal/channel_change.c" 1
 251 001a 00BF     		nop
 252              	@ 0 "" 2
  25:diff_signal/channel_change.c ****     __NOP();
 253              		.loc 1 25 5 view .LVU49
 254              	@ 25 "diff_signal/channel_change.c" 1
 255 001c 00BF     		nop
 256              	@ 0 "" 2
  26:diff_signal/channel_change.c ****     __NOP();
 257              		.loc 1 26 5 view .LVU50
 258              	@ 26 "diff_signal/channel_change.c" 1
 259 001e 00BF     		nop
 260              	@ 0 "" 2
  27:diff_signal/channel_change.c **** }
 261              		.loc 1 27 5 view .LVU51
 262              	@ 27 "diff_signal/channel_change.c" 1
 263 0020 00BF     		nop
 264              	@ 0 "" 2
 265              		.thumb
 266              		.syntax unified
 267              	.LBE21:
 268              	.LBE20:
  64:diff_signal/channel_change.c **** 
  65:diff_signal/channel_change.c ****     HAL_GPIO_WritePin(GPIOA, GPIO_PIN_2, freq_sel_state);
 269              		.loc 1 65 5 view .LVU52
 270 0022 2246     		mov	r2, r4
 271 0024 0421     		movs	r1, #4
 272 0026 0E48     		ldr	r0, .L5+4
 273 0028 FFF7FEFF 		bl	HAL_GPIO_WritePin
 274              	.LVL8:
  66:diff_signal/channel_change.c ****     channel_short_delay();
 275              		.loc 1 66 5 view .LVU53
 276              	.LBB22:
 277              	.LBI22:
  18:diff_signal/channel_change.c **** {
 278              		.loc 1 18 20 view .LVU54
 279              	.LBB23:
  20:diff_signal/channel_change.c ****     __NOP();
 280              		.loc 1 20 5 view .LVU55
 281              		.syntax unified
 282              	@ 20 "diff_signal/channel_change.c" 1
 283 002c 00BF     		nop
 284              	@ 0 "" 2
  21:diff_signal/channel_change.c ****     __NOP();
 285              		.loc 1 21 5 view .LVU56
 286              	@ 21 "diff_signal/channel_change.c" 1
 287 002e 00BF     		nop
 288              	@ 0 "" 2
  22:diff_signal/channel_change.c ****     __NOP();
 289              		.loc 1 22 5 view .LVU57
 290              	@ 22 "diff_signal/channel_change.c" 1
 291 0030 00BF     		nop
 292              	@ 0 "" 2
  23:diff_signal/channel_change.c ****     __NOP();
 293              		.loc 1 23 5 view .LVU58
 294              	@ 23 "diff_signal/channel_change.c" 1
 295 0032 00BF     		nop
ARM GAS  /tmp/ccnJVm93.s 			page 8


 296              	@ 0 "" 2
  24:diff_signal/channel_change.c ****     __NOP();
 297              		.loc 1 24 5 view .LVU59
 298              	@ 24 "diff_signal/channel_change.c" 1
 299 0034 00BF     		nop
 300              	@ 0 "" 2
  25:diff_signal/channel_change.c ****     __NOP();
 301              		.loc 1 25 5 view .LVU60
 302              	@ 25 "diff_signal/channel_change.c" 1
 303 0036 00BF     		nop
 304              	@ 0 "" 2
  26:diff_signal/channel_change.c ****     __NOP();
 305              		.loc 1 26 5 view .LVU61
 306              	@ 26 "diff_signal/channel_change.c" 1
 307 0038 00BF     		nop
 308              	@ 0 "" 2
  27:diff_signal/channel_change.c **** }
 309              		.loc 1 27 5 view .LVU62
 310              	@ 27 "diff_signal/channel_change.c" 1
 311 003a 00BF     		nop
 312              	@ 0 "" 2
 313              		.thumb
 314              		.syntax unified
 315              	.LBE23:
 316              	.LBE22:
  67:diff_signal/channel_change.c **** 
  68:diff_signal/channel_change.c ****     HAL_GPIO_WritePin(GPIOC, GPIO_PIN_8, GPIO_PIN_RESET);
 317              		.loc 1 68 5 view .LVU63
 318 003c 0022     		movs	r2, #0
 319 003e 4FF48071 		mov	r1, #256
 320 0042 2846     		mov	r0, r5
 321 0044 FFF7FEFF 		bl	HAL_GPIO_WritePin
 322              	.LVL9:
  69:diff_signal/channel_change.c ****     channel_short_delay();
 323              		.loc 1 69 5 view .LVU64
 324              	.LBB24:
 325              	.LBI24:
  18:diff_signal/channel_change.c **** {
 326              		.loc 1 18 20 view .LVU65
 327              	.LBB25:
  20:diff_signal/channel_change.c ****     __NOP();
 328              		.loc 1 20 5 view .LVU66
 329              		.syntax unified
 330              	@ 20 "diff_signal/channel_change.c" 1
 331 0048 00BF     		nop
 332              	@ 0 "" 2
  21:diff_signal/channel_change.c ****     __NOP();
 333              		.loc 1 21 5 view .LVU67
 334              	@ 21 "diff_signal/channel_change.c" 1
 335 004a 00BF     		nop
 336              	@ 0 "" 2
  22:diff_signal/channel_change.c ****     __NOP();
 337              		.loc 1 22 5 view .LVU68
 338              	@ 22 "diff_signal/channel_change.c" 1
 339 004c 00BF     		nop
 340              	@ 0 "" 2
  23:diff_signal/channel_change.c ****     __NOP();
ARM GAS  /tmp/ccnJVm93.s 			page 9


 341              		.loc 1 23 5 view .LVU69
 342              	@ 23 "diff_signal/channel_change.c" 1
 343 004e 00BF     		nop
 344              	@ 0 "" 2
  24:diff_signal/channel_change.c ****     __NOP();
 345              		.loc 1 24 5 view .LVU70
 346              	@ 24 "diff_signal/channel_change.c" 1
 347 0050 00BF     		nop
 348              	@ 0 "" 2
  25:diff_signal/channel_change.c ****     __NOP();
 349              		.loc 1 25 5 view .LVU71
 350              	@ 25 "diff_signal/channel_change.c" 1
 351 0052 00BF     		nop
 352              	@ 0 "" 2
  26:diff_signal/channel_change.c ****     __NOP();
 353              		.loc 1 26 5 view .LVU72
 354              	@ 26 "diff_signal/channel_change.c" 1
 355 0054 00BF     		nop
 356              	@ 0 "" 2
  27:diff_signal/channel_change.c **** }
 357              		.loc 1 27 5 view .LVU73
 358              	@ 27 "diff_signal/channel_change.c" 1
 359 0056 00BF     		nop
 360              	@ 0 "" 2
 361              		.thumb
 362              		.syntax unified
 363              	.LBE25:
 364              	.LBE24:
  70:diff_signal/channel_change.c **** }
 365              		.loc 1 70 1 is_stmt 0 view .LVU74
 366 0058 38BD     		pop	{r3, r4, r5, pc}
 367              	.L6:
 368 005a 00BF     		.align	2
 369              	.L5:
 370 005c 00100140 		.word	1073811456
 371 0060 00080140 		.word	1073809408
 372              		.cfi_endproc
 373              	.LFE67:
 375              		.section	.text.change_local_channel,"ax",%progbits
 376              		.align	1
 377              		.global	change_local_channel
 378              		.syntax unified
 379              		.thumb
 380              		.thumb_func
 381              		.fpu softvfp
 383              	change_local_channel:
 384              	.LFB69:
  71:diff_signal/channel_change.c **** 
  72:diff_signal/channel_change.c **** void channel_init(void)
  73:diff_signal/channel_change.c **** {
  74:diff_signal/channel_change.c ****     change_origin_channel();
  75:diff_signal/channel_change.c **** }
  76:diff_signal/channel_change.c **** 
  77:diff_signal/channel_change.c **** /* 本地信号 = A 路，原始信号 = B 路
  78:diff_signal/channel_change.c ****    若 S=0 选 A，S=1 选 B，则：
  79:diff_signal/channel_change.c ****    本地通道 -> GPIO_PIN_RESET
  80:diff_signal/channel_change.c **** */
ARM GAS  /tmp/ccnJVm93.s 			page 10


  81:diff_signal/channel_change.c **** void change_local_channel(void)
  82:diff_signal/channel_change.c **** {
 385              		.loc 1 82 1 is_stmt 1 view -0
 386              		.cfi_startproc
 387              		@ args = 0, pretend = 0, frame = 0
 388              		@ frame_needed = 0, uses_anonymous_args = 0
 389 0000 00B5     		push	{lr}
 390              	.LCFI2:
 391              		.cfi_def_cfa_offset 4
 392              		.cfi_offset 14, -4
 393 0002 83B0     		sub	sp, sp, #12
 394              	.LCFI3:
 395              		.cfi_def_cfa_offset 16
  83:diff_signal/channel_change.c ****     channel_257_switch(GPIOB, GPIO_PIN_15,
 396              		.loc 1 83 5 view .LVU76
 397 0004 0648     		ldr	r0, .L9
 398 0006 0023     		movs	r3, #0
 399 0008 0093     		str	r3, [sp]
 400 000a 4FF48043 		mov	r3, #16384
 401 000e 0246     		mov	r2, r0
 402 0010 4FF40041 		mov	r1, #32768
 403 0014 FFF7FEFF 		bl	channel_257_switch
 404              	.LVL10:
  84:diff_signal/channel_change.c ****                        GPIOB, GPIO_PIN_14,
  85:diff_signal/channel_change.c ****                        GPIO_PIN_RESET);
  86:diff_signal/channel_change.c **** }
 405              		.loc 1 86 1 is_stmt 0 view .LVU77
 406 0018 03B0     		add	sp, sp, #12
 407              	.LCFI4:
 408              		.cfi_def_cfa_offset 4
 409              		@ sp needed
 410 001a 5DF804FB 		ldr	pc, [sp], #4
 411              	.L10:
 412 001e 00BF     		.align	2
 413              	.L9:
 414 0020 000C0140 		.word	1073810432
 415              		.cfi_endproc
 416              	.LFE69:
 418              		.section	.text.change_origin_channel,"ax",%progbits
 419              		.align	1
 420              		.global	change_origin_channel
 421              		.syntax unified
 422              		.thumb
 423              		.thumb_func
 424              		.fpu softvfp
 426              	change_origin_channel:
 427              	.LFB70:
  87:diff_signal/channel_change.c **** 
  88:diff_signal/channel_change.c **** /* 原始通道 = B 路 */
  89:diff_signal/channel_change.c **** void change_origin_channel(void)
  90:diff_signal/channel_change.c **** {
 428              		.loc 1 90 1 is_stmt 1 view -0
 429              		.cfi_startproc
 430              		@ args = 0, pretend = 0, frame = 0
 431              		@ frame_needed = 0, uses_anonymous_args = 0
 432 0000 00B5     		push	{lr}
 433              	.LCFI5:
ARM GAS  /tmp/ccnJVm93.s 			page 11


 434              		.cfi_def_cfa_offset 4
 435              		.cfi_offset 14, -4
 436 0002 83B0     		sub	sp, sp, #12
 437              	.LCFI6:
 438              		.cfi_def_cfa_offset 16
  91:diff_signal/channel_change.c ****     channel_257_switch(GPIOB, GPIO_PIN_15,
 439              		.loc 1 91 5 view .LVU79
 440 0004 0648     		ldr	r0, .L13
 441 0006 0123     		movs	r3, #1
 442 0008 0093     		str	r3, [sp]
 443 000a 4FF48043 		mov	r3, #16384
 444 000e 0246     		mov	r2, r0
 445 0010 4FF40041 		mov	r1, #32768
 446 0014 FFF7FEFF 		bl	channel_257_switch
 447              	.LVL11:
  92:diff_signal/channel_change.c ****                        GPIOB, GPIO_PIN_14,
  93:diff_signal/channel_change.c ****                        GPIO_PIN_SET);
  94:diff_signal/channel_change.c **** }
 448              		.loc 1 94 1 is_stmt 0 view .LVU80
 449 0018 03B0     		add	sp, sp, #12
 450              	.LCFI7:
 451              		.cfi_def_cfa_offset 4
 452              		@ sp needed
 453 001a 5DF804FB 		ldr	pc, [sp], #4
 454              	.L14:
 455 001e 00BF     		.align	2
 456              	.L13:
 457 0020 000C0140 		.word	1073810432
 458              		.cfi_endproc
 459              	.LFE70:
 461              		.section	.text.channel_init,"ax",%progbits
 462              		.align	1
 463              		.global	channel_init
 464              		.syntax unified
 465              		.thumb
 466              		.thumb_func
 467              		.fpu softvfp
 469              	channel_init:
 470              	.LFB68:
  73:diff_signal/channel_change.c ****     change_origin_channel();
 471              		.loc 1 73 1 is_stmt 1 view -0
 472              		.cfi_startproc
 473              		@ args = 0, pretend = 0, frame = 0
 474              		@ frame_needed = 0, uses_anonymous_args = 0
 475 0000 08B5     		push	{r3, lr}
 476              	.LCFI8:
 477              		.cfi_def_cfa_offset 8
 478              		.cfi_offset 3, -8
 479              		.cfi_offset 14, -4
  74:diff_signal/channel_change.c **** }
 480              		.loc 1 74 5 view .LVU82
 481 0002 FFF7FEFF 		bl	change_origin_channel
 482              	.LVL12:
  75:diff_signal/channel_change.c **** 
 483              		.loc 1 75 1 is_stmt 0 view .LVU83
 484 0006 08BD     		pop	{r3, pc}
 485              		.cfi_endproc
ARM GAS  /tmp/ccnJVm93.s 			page 12


 486              	.LFE68:
 488              		.section	.text.change_rx_local_channel,"ax",%progbits
 489              		.align	1
 490              		.global	change_rx_local_channel
 491              		.syntax unified
 492              		.thumb
 493              		.thumb_func
 494              		.fpu softvfp
 496              	change_rx_local_channel:
 497              	.LFB71:
  95:diff_signal/channel_change.c **** 
  96:diff_signal/channel_change.c **** void change_rx_local_channel(void)
  97:diff_signal/channel_change.c **** {
 498              		.loc 1 97 1 is_stmt 1 view -0
 499              		.cfi_startproc
 500              		@ args = 0, pretend = 0, frame = 0
 501              		@ frame_needed = 0, uses_anonymous_args = 0
 502 0000 00B5     		push	{lr}
 503              	.LCFI9:
 504              		.cfi_def_cfa_offset 4
 505              		.cfi_offset 14, -4
 506 0002 83B0     		sub	sp, sp, #12
 507              	.LCFI10:
 508              		.cfi_def_cfa_offset 16
  98:diff_signal/channel_change.c ****     channel_257_switch(GPIOB, GPIO_PIN_13,
 509              		.loc 1 98 5 view .LVU85
 510 0004 0648     		ldr	r0, .L19
 511 0006 0123     		movs	r3, #1
 512 0008 0093     		str	r3, [sp]
 513 000a 4FF48053 		mov	r3, #4096
 514 000e 0246     		mov	r2, r0
 515 0010 4FF40051 		mov	r1, #8192
 516 0014 FFF7FEFF 		bl	channel_257_switch
 517              	.LVL13:
  99:diff_signal/channel_change.c ****                        GPIOB, GPIO_PIN_12,
 100:diff_signal/channel_change.c ****                        GPIO_PIN_SET);
 101:diff_signal/channel_change.c **** }
 518              		.loc 1 101 1 is_stmt 0 view .LVU86
 519 0018 03B0     		add	sp, sp, #12
 520              	.LCFI11:
 521              		.cfi_def_cfa_offset 4
 522              		@ sp needed
 523 001a 5DF804FB 		ldr	pc, [sp], #4
 524              	.L20:
 525 001e 00BF     		.align	2
 526              	.L19:
 527 0020 000C0140 		.word	1073810432
 528              		.cfi_endproc
 529              	.LFE71:
 531              		.section	.text.change_local_trans_freq,"ax",%progbits
 532              		.align	1
 533              		.global	change_local_trans_freq
 534              		.syntax unified
 535              		.thumb
 536              		.thumb_func
 537              		.fpu softvfp
 539              	change_local_trans_freq:
ARM GAS  /tmp/ccnJVm93.s 			page 13


 540              	.LVL14:
 541              	.LFB72:
 102:diff_signal/channel_change.c **** 
 103:diff_signal/channel_change.c **** /**
 104:diff_signal/channel_change.c ****  * @brief 切换本地发送频率
 105:diff_signal/channel_change.c ****  * 0 表示 12k
 106:diff_signal/channel_change.c ****  * 1 表示 14k
 107:diff_signal/channel_change.c ****  */
 108:diff_signal/channel_change.c **** void change_local_trans_freq(uint8_t freq)
 109:diff_signal/channel_change.c **** {
 542              		.loc 1 109 1 is_stmt 1 view -0
 543              		.cfi_startproc
 544              		@ args = 0, pretend = 0, frame = 0
 545              		@ frame_needed = 0, uses_anonymous_args = 0
 546              		.loc 1 109 1 is_stmt 0 view .LVU88
 547 0000 08B5     		push	{r3, lr}
 548              	.LCFI12:
 549              		.cfi_def_cfa_offset 8
 550              		.cfi_offset 3, -8
 551              		.cfi_offset 14, -4
 110:diff_signal/channel_change.c ****     if (freq == 0x00u)
 552              		.loc 1 110 5 is_stmt 1 view .LVU89
 553              		.loc 1 110 8 is_stmt 0 view .LVU90
 554 0002 10B1     		cbz	r0, .L25
 111:diff_signal/channel_change.c ****     {
 112:diff_signal/channel_change.c ****         /* 12k -> PA2 = 0 */
 113:diff_signal/channel_change.c ****         freq_update_latch(GPIO_PIN_RESET);
 114:diff_signal/channel_change.c ****     }
 115:diff_signal/channel_change.c ****     else if (freq == 0x01u)
 555              		.loc 1 115 10 is_stmt 1 view .LVU91
 556              		.loc 1 115 13 is_stmt 0 view .LVU92
 557 0004 0128     		cmp	r0, #1
 558 0006 03D0     		beq	.L26
 559              	.LVL15:
 560              	.L21:
 116:diff_signal/channel_change.c ****     {
 117:diff_signal/channel_change.c ****         /* 14k -> PA2 = 1 */
 118:diff_signal/channel_change.c ****         freq_update_latch(GPIO_PIN_SET);
 119:diff_signal/channel_change.c ****     }
 120:diff_signal/channel_change.c ****     else
 121:diff_signal/channel_change.c ****     {
 122:diff_signal/channel_change.c ****         /* 非法参数，直接返回 */
 123:diff_signal/channel_change.c ****         return;
 124:diff_signal/channel_change.c ****     }
 125:diff_signal/channel_change.c **** }
 561              		.loc 1 125 1 view .LVU93
 562 0008 08BD     		pop	{r3, pc}
 563              	.LVL16:
 564              	.L25:
 113:diff_signal/channel_change.c ****     }
 565              		.loc 1 113 9 is_stmt 1 view .LVU94
 566 000a FFF7FEFF 		bl	freq_update_latch
 567              	.LVL17:
 113:diff_signal/channel_change.c ****     }
 568              		.loc 1 113 9 is_stmt 0 view .LVU95
 569 000e FBE7     		b	.L21
 570              	.LVL18:
ARM GAS  /tmp/ccnJVm93.s 			page 14


 571              	.L26:
 118:diff_signal/channel_change.c ****     }
 572              		.loc 1 118 9 is_stmt 1 view .LVU96
 573 0010 0120     		movs	r0, #1
 574              	.LVL19:
 118:diff_signal/channel_change.c ****     }
 575              		.loc 1 118 9 is_stmt 0 view .LVU97
 576 0012 FFF7FEFF 		bl	freq_update_latch
 577              	.LVL20:
 578 0016 F7E7     		b	.L21
 579              		.cfi_endproc
 580              	.LFE72:
 582              		.section	.text.send_data_change_channel,"ax",%progbits
 583              		.align	1
 584              		.global	send_data_change_channel
 585              		.syntax unified
 586              		.thumb
 587              		.thumb_func
 588              		.fpu softvfp
 590              	send_data_change_channel:
 591              	.LFB73:
 126:diff_signal/channel_change.c **** 
 127:diff_signal/channel_change.c **** void send_data_change_channel(void)
 128:diff_signal/channel_change.c **** {
 592              		.loc 1 128 1 is_stmt 1 view -0
 593              		.cfi_startproc
 594              		@ args = 0, pretend = 0, frame = 0
 595              		@ frame_needed = 0, uses_anonymous_args = 0
 596 0000 08B5     		push	{r3, lr}
 597              	.LCFI13:
 598              		.cfi_def_cfa_offset 8
 599              		.cfi_offset 3, -8
 600              		.cfi_offset 14, -4
 129:diff_signal/channel_change.c ****     change_local_channel();
 601              		.loc 1 129 5 view .LVU99
 602 0002 FFF7FEFF 		bl	change_local_channel
 603              	.LVL21:
 130:diff_signal/channel_change.c ****     /* change_rx_local_channel(); */
 131:diff_signal/channel_change.c **** }
 604              		.loc 1 131 1 is_stmt 0 view .LVU100
 605 0006 08BD     		pop	{r3, pc}
 606              		.cfi_endproc
 607              	.LFE73:
 609              		.section	.text.restore_send_data_change_channel,"ax",%progbits
 610              		.align	1
 611              		.global	restore_send_data_change_channel
 612              		.syntax unified
 613              		.thumb
 614              		.thumb_func
 615              		.fpu softvfp
 617              	restore_send_data_change_channel:
 618              	.LFB74:
 132:diff_signal/channel_change.c **** 
 133:diff_signal/channel_change.c **** void restore_send_data_change_channel(void)
 134:diff_signal/channel_change.c **** {
 619              		.loc 1 134 1 is_stmt 1 view -0
 620              		.cfi_startproc
ARM GAS  /tmp/ccnJVm93.s 			page 15


 621              		@ args = 0, pretend = 0, frame = 0
 622              		@ frame_needed = 0, uses_anonymous_args = 0
 623 0000 08B5     		push	{r3, lr}
 624              	.LCFI14:
 625              		.cfi_def_cfa_offset 8
 626              		.cfi_offset 3, -8
 627              		.cfi_offset 14, -4
 135:diff_signal/channel_change.c ****     change_origin_channel();
 628              		.loc 1 135 5 view .LVU102
 629 0002 FFF7FEFF 		bl	change_origin_channel
 630              	.LVL22:
 136:diff_signal/channel_change.c **** }...
 631              		.loc 1 136 1 is_stmt 0 view .LVU103
 632 0006 08BD     		pop	{r3, pc}
 633              		.cfi_endproc
 634              	.LFE74:
 636              		.text
 637              	.Letext0:
 638              		.file 2 "/opt/gcc-arm-none-eabi-9-2020-q2-update/arm-none-eabi/include/machine/_default_types.h"
 639              		.file 3 "/opt/gcc-arm-none-eabi-9-2020-q2-update/arm-none-eabi/include/sys/_stdint.h"
 640              		.file 4 "Drivers/CMSIS/Include/core_cm3.h"
 641              		.file 5 "Drivers/CMSIS/Device/ST/STM32F1xx/Include/system_stm32f1xx.h"
 642              		.file 6 "Drivers/CMSIS/Device/ST/STM32F1xx/Include/stm32f103xe.h"
 643              		.file 7 "Drivers/STM32F1xx_HAL_Driver/Inc/stm32f1xx_hal_gpio.h"
 644              		.file 8 "Drivers/STM32F1xx_HAL_Driver/Inc/stm32f1xx_hal.h"
ARM GAS  /tmp/ccnJVm93.s 			page 16

