ARM GAS  /tmp/ccsmDdxh.s 			page 1


   1              		.cpu cortex-m3
   2              		.eabi_attribute 20, 1
   3              		.eabi_attribute 21, 1
   4              		.eabi_attribute 23, 3
   5              		.eabi_attribute 24, 1
   6              		.eabi_attribute 25, 1
   7              		.eabi_attribute 26, 1
   8              		.eabi_attribute 30, 1
   9              		.eabi_attribute 34, 1
  10              		.eabi_attribute 18, 4
  11              		.file	"DHT22.c"
  12              		.text
  13              	.Ltext0:
  14              		.cfi_sections	.debug_frame
  15              		.section	.text.DHT22_Pin_Output,"ax",%progbits
  16              		.align	1
  17              		.arch armv7-m
  18              		.syntax unified
  19              		.thumb
  20              		.thumb_func
  21              		.fpu softvfp
  23              	DHT22_Pin_Output:
  24              	.LFB66:
  25              		.file 1 "sensor_device/DHT22.c"
   1:sensor_device/DHT22.c **** /* dht22.c */
   2:sensor_device/DHT22.c **** #include "DHT22.h"  // CMSIS，提供 DWT 结构定义
   3:sensor_device/DHT22.c **** #include "diff_signal.h"
   4:sensor_device/DHT22.c **** #include "SEGGER_RTT.h"
   5:sensor_device/DHT22.c **** // 延时 us 微秒
   6:sensor_device/DHT22.c **** static void Delay_us(uint32_t us)
   7:sensor_device/DHT22.c **** {
   8:sensor_device/DHT22.c ****     // DWT_Delay_us(us);
   9:sensor_device/DHT22.c **** }
  10:sensor_device/DHT22.c **** 
  11:sensor_device/DHT22.c **** // 切换为输出模式
  12:sensor_device/DHT22.c **** static void DHT22_Pin_Output(void)
  13:sensor_device/DHT22.c **** {
  26              		.loc 1 13 1 view -0
  27              		.cfi_startproc
  28              		@ args = 0, pretend = 0, frame = 16
  29              		@ frame_needed = 0, uses_anonymous_args = 0
  30 0000 00B5     		push	{lr}
  31              	.LCFI0:
  32              		.cfi_def_cfa_offset 4
  33              		.cfi_offset 14, -4
  34 0002 85B0     		sub	sp, sp, #20
  35              	.LCFI1:
  36              		.cfi_def_cfa_offset 24
  14:sensor_device/DHT22.c ****     GPIO_InitTypeDef GPIO_Init = {0};
  37              		.loc 1 14 5 view .LVU1
  15:sensor_device/DHT22.c ****     GPIO_Init.Pin   = DHT22_Pin;
  38              		.loc 1 15 5 view .LVU2
  39              		.loc 1 15 21 is_stmt 0 view .LVU3
  40 0004 0423     		movs	r3, #4
  41 0006 0093     		str	r3, [sp]
  16:sensor_device/DHT22.c ****     GPIO_Init.Mode  = GPIO_MODE_OUTPUT_OD;
  42              		.loc 1 16 5 is_stmt 1 view .LVU4
ARM GAS  /tmp/ccsmDdxh.s 			page 2


  43              		.loc 1 16 21 is_stmt 0 view .LVU5
  44 0008 1123     		movs	r3, #17
  45 000a 0193     		str	r3, [sp, #4]
  17:sensor_device/DHT22.c ****     GPIO_Init.Pull  = GPIO_NOPULL;
  46              		.loc 1 17 5 is_stmt 1 view .LVU6
  47              		.loc 1 17 21 is_stmt 0 view .LVU7
  48 000c 0023     		movs	r3, #0
  49 000e 0293     		str	r3, [sp, #8]
  18:sensor_device/DHT22.c ****     GPIO_Init.Speed = GPIO_SPEED_FREQ_HIGH;
  50              		.loc 1 18 5 is_stmt 1 view .LVU8
  51              		.loc 1 18 21 is_stmt 0 view .LVU9
  52 0010 0323     		movs	r3, #3
  53 0012 0393     		str	r3, [sp, #12]
  19:sensor_device/DHT22.c ****     HAL_GPIO_Init(DHT22_GPIO_Port, &GPIO_Init);
  54              		.loc 1 19 5 is_stmt 1 view .LVU10
  55 0014 6946     		mov	r1, sp
  56 0016 0348     		ldr	r0, .L3
  57 0018 FFF7FEFF 		bl	HAL_GPIO_Init
  58              	.LVL0:
  20:sensor_device/DHT22.c **** }
  59              		.loc 1 20 1 is_stmt 0 view .LVU11
  60 001c 05B0     		add	sp, sp, #20
  61              	.LCFI2:
  62              		.cfi_def_cfa_offset 4
  63              		@ sp needed
  64 001e 5DF804FB 		ldr	pc, [sp], #4
  65              	.L4:
  66 0022 00BF     		.align	2
  67              	.L3:
  68 0024 00100140 		.word	1073811456
  69              		.cfi_endproc
  70              	.LFE66:
  72              		.section	.text.DHT22_Pin_Input,"ax",%progbits
  73              		.align	1
  74              		.syntax unified
  75              		.thumb
  76              		.thumb_func
  77              		.fpu softvfp
  79              	DHT22_Pin_Input:
  80              	.LFB67:
  21:sensor_device/DHT22.c **** // 切换为输入模式
  22:sensor_device/DHT22.c **** static void DHT22_Pin_Input(void)
  23:sensor_device/DHT22.c **** {
  81              		.loc 1 23 1 is_stmt 1 view -0
  82              		.cfi_startproc
  83              		@ args = 0, pretend = 0, frame = 16
  84              		@ frame_needed = 0, uses_anonymous_args = 0
  85 0000 00B5     		push	{lr}
  86              	.LCFI3:
  87              		.cfi_def_cfa_offset 4
  88              		.cfi_offset 14, -4
  89 0002 85B0     		sub	sp, sp, #20
  90              	.LCFI4:
  91              		.cfi_def_cfa_offset 24
  24:sensor_device/DHT22.c ****     GPIO_InitTypeDef GPIO_Init = {0};
  92              		.loc 1 24 5 view .LVU13
  93              		.loc 1 24 22 is_stmt 0 view .LVU14
ARM GAS  /tmp/ccsmDdxh.s 			page 3


  94 0004 0023     		movs	r3, #0
  95 0006 0393     		str	r3, [sp, #12]
  25:sensor_device/DHT22.c ****     GPIO_Init.Pin  = DHT22_Pin;
  96              		.loc 1 25 5 is_stmt 1 view .LVU15
  97              		.loc 1 25 20 is_stmt 0 view .LVU16
  98 0008 0422     		movs	r2, #4
  99 000a 0092     		str	r2, [sp]
  26:sensor_device/DHT22.c ****     GPIO_Init.Mode = GPIO_MODE_INPUT;
 100              		.loc 1 26 5 is_stmt 1 view .LVU17
 101              		.loc 1 26 20 is_stmt 0 view .LVU18
 102 000c 0193     		str	r3, [sp, #4]
  27:sensor_device/DHT22.c ****     GPIO_Init.Pull = GPIO_NOPULL;
 103              		.loc 1 27 5 is_stmt 1 view .LVU19
 104              		.loc 1 27 20 is_stmt 0 view .LVU20
 105 000e 0293     		str	r3, [sp, #8]
  28:sensor_device/DHT22.c ****     HAL_GPIO_Init(DHT22_GPIO_Port, &GPIO_Init);
 106              		.loc 1 28 5 is_stmt 1 view .LVU21
 107 0010 6946     		mov	r1, sp
 108 0012 0348     		ldr	r0, .L7
 109 0014 FFF7FEFF 		bl	HAL_GPIO_Init
 110              	.LVL1:
  29:sensor_device/DHT22.c **** }
 111              		.loc 1 29 1 is_stmt 0 view .LVU22
 112 0018 05B0     		add	sp, sp, #20
 113              	.LCFI5:
 114              		.cfi_def_cfa_offset 4
 115              		@ sp needed
 116 001a 5DF804FB 		ldr	pc, [sp], #4
 117              	.L8:
 118 001e 00BF     		.align	2
 119              	.L7:
 120 0020 00100140 		.word	1073811456
 121              		.cfi_endproc
 122              	.LFE67:
 124              		.section	.text.DHT22_StartSignal,"ax",%progbits
 125              		.align	1
 126              		.syntax unified
 127              		.thumb
 128              		.thumb_func
 129              		.fpu softvfp
 131              	DHT22_StartSignal:
 132              	.LFB69:
  30:sensor_device/DHT22.c **** 
  31:sensor_device/DHT22.c **** /**
  32:sensor_device/DHT22.c ****  * @brief  初始化，调用一次即可
  33:sensor_device/DHT22.c ****  */
  34:sensor_device/DHT22.c **** void DHT22_Init(void)
  35:sensor_device/DHT22.c **** {
  36:sensor_device/DHT22.c ****     __HAL_RCC_GPIOC_CLK_ENABLE();
  37:sensor_device/DHT22.c ****     DHT22_Pin_Output();
  38:sensor_device/DHT22.c ****     HAL_GPIO_WritePin(DHT22_GPIO_Port, DHT22_Pin, GPIO_PIN_SET);
  39:sensor_device/DHT22.c **** }
  40:sensor_device/DHT22.c **** 
  41:sensor_device/DHT22.c **** /**
  42:sensor_device/DHT22.c ****  * @brief  发送启动脉冲：拉低 >500us，然后拉高 20–40us
  43:sensor_device/DHT22.c ****  */
  44:sensor_device/DHT22.c **** static void DHT22_StartSignal(void)
ARM GAS  /tmp/ccsmDdxh.s 			page 4


  45:sensor_device/DHT22.c **** {
 133              		.loc 1 45 1 is_stmt 1 view -0
 134              		.cfi_startproc
 135              		@ args = 0, pretend = 0, frame = 0
 136              		@ frame_needed = 0, uses_anonymous_args = 0
 137 0000 10B5     		push	{r4, lr}
 138              	.LCFI6:
 139              		.cfi_def_cfa_offset 8
 140              		.cfi_offset 4, -8
 141              		.cfi_offset 14, -4
  46:sensor_device/DHT22.c ****     DHT22_Pin_Output();
 142              		.loc 1 46 5 view .LVU24
 143 0002 FFF7FEFF 		bl	DHT22_Pin_Output
 144              	.LVL2:
  47:sensor_device/DHT22.c ****     HAL_GPIO_WritePin(DHT22_GPIO_Port, DHT22_Pin, GPIO_PIN_RESET);
 145              		.loc 1 47 5 view .LVU25
 146 0006 074C     		ldr	r4, .L11
 147 0008 0022     		movs	r2, #0
 148 000a 0421     		movs	r1, #4
 149 000c 2046     		mov	r0, r4
 150 000e FFF7FEFF 		bl	HAL_GPIO_WritePin
 151              	.LVL3:
  48:sensor_device/DHT22.c ****     Delay_us(800);      // 500–1000us 起始信号 :contentReference[oaicite:2]{index=2}
 152              		.loc 1 48 5 view .LVU26
  49:sensor_device/DHT22.c ****     HAL_GPIO_WritePin(DHT22_GPIO_Port, DHT22_Pin, GPIO_PIN_SET);
 153              		.loc 1 49 5 view .LVU27
 154 0012 0122     		movs	r2, #1
 155 0014 0421     		movs	r1, #4
 156 0016 2046     		mov	r0, r4
 157 0018 FFF7FEFF 		bl	HAL_GPIO_WritePin
 158              	.LVL4:
  50:sensor_device/DHT22.c ****     Delay_us(30);       // 等待 20–40us
 159              		.loc 1 50 5 view .LVU28
  51:sensor_device/DHT22.c ****     DHT22_Pin_Input();
 160              		.loc 1 51 5 view .LVU29
 161 001c FFF7FEFF 		bl	DHT22_Pin_Input
 162              	.LVL5:
  52:sensor_device/DHT22.c **** }
 163              		.loc 1 52 1 is_stmt 0 view .LVU30
 164 0020 10BD     		pop	{r4, pc}
 165              	.L12:
 166 0022 00BF     		.align	2
 167              	.L11:
 168 0024 00100140 		.word	1073811456
 169              		.cfi_endproc
 170              	.LFE69:
 172              		.section	.text.DHT22_ReadBit,"ax",%progbits
 173              		.align	1
 174              		.syntax unified
 175              		.thumb
 176              		.thumb_func
 177              		.fpu softvfp
 179              	DHT22_ReadBit:
 180              	.LFB71:
  53:sensor_device/DHT22.c **** 
  54:sensor_device/DHT22.c **** /**
  55:sensor_device/DHT22.c ****  * @brief  检测传感器应答信号
ARM GAS  /tmp/ccsmDdxh.s 			page 5


  56:sensor_device/DHT22.c ****  * @return 1 = 有响应，0 = 无响应
  57:sensor_device/DHT22.c ****  */
  58:sensor_device/DHT22.c **** static uint8_t DHT22_CheckResponse(void)
  59:sensor_device/DHT22.c **** {
  60:sensor_device/DHT22.c ****     uint32_t t = 0;
  61:sensor_device/DHT22.c ****     // 等待拉低（≈80us）
  62:sensor_device/DHT22.c ****     while (HAL_GPIO_ReadPin(DHT22_GPIO_Port, DHT22_Pin) == GPIO_PIN_SET)
  63:sensor_device/DHT22.c ****     {
  64:sensor_device/DHT22.c ****         if (++t > 100) return 0;
  65:sensor_device/DHT22.c ****         Delay_us(1);
  66:sensor_device/DHT22.c ****     }
  67:sensor_device/DHT22.c ****     t = 0;
  68:sensor_device/DHT22.c ****     // 等待拉高（≈80us）
  69:sensor_device/DHT22.c ****     while (HAL_GPIO_ReadPin(DHT22_GPIO_Port, DHT22_Pin) == GPIO_PIN_RESET)
  70:sensor_device/DHT22.c ****     {
  71:sensor_device/DHT22.c ****         if (++t > 100) return 0;
  72:sensor_device/DHT22.c ****         Delay_us(1);
  73:sensor_device/DHT22.c ****     }
  74:sensor_device/DHT22.c ****     myprintf("tsssss is %d\n",t);
  75:sensor_device/DHT22.c ****     return 1;
  76:sensor_device/DHT22.c **** }
  77:sensor_device/DHT22.c **** 
  78:sensor_device/DHT22.c **** /**
  79:sensor_device/DHT22.c ****  * @brief  读取 1 bit
  80:sensor_device/DHT22.c ****  */
  81:sensor_device/DHT22.c **** static uint8_t DHT22_ReadBit(void)
  82:sensor_device/DHT22.c **** {
 181              		.loc 1 82 1 is_stmt 1 view -0
 182              		.cfi_startproc
 183              		@ args = 0, pretend = 0, frame = 0
 184              		@ frame_needed = 0, uses_anonymous_args = 0
 185 0000 10B5     		push	{r4, lr}
 186              	.LCFI7:
 187              		.cfi_def_cfa_offset 8
 188              		.cfi_offset 4, -8
 189              		.cfi_offset 14, -4
 190              	.L14:
  83:sensor_device/DHT22.c ****     uint8_t bit = 0;
  84:sensor_device/DHT22.c ****     uint32_t t = 0;
  85:sensor_device/DHT22.c **** 
  86:sensor_device/DHT22.c ****     // 等待低电平结束 (~50us)
  87:sensor_device/DHT22.c ****     while (HAL_GPIO_ReadPin(DHT22_GPIO_Port, DHT22_Pin) == GPIO_PIN_RESET)
  88:sensor_device/DHT22.c ****         ;
 191              		.loc 1 88 9 discriminator 1 view .LVU32
  87:sensor_device/DHT22.c ****         ;
 192              		.loc 1 87 11 discriminator 1 view .LVU33
  87:sensor_device/DHT22.c ****         ;
 193              		.loc 1 87 12 is_stmt 0 discriminator 1 view .LVU34
 194 0002 0421     		movs	r1, #4
 195 0004 0A48     		ldr	r0, .L21
 196 0006 FFF7FEFF 		bl	HAL_GPIO_ReadPin
 197              	.LVL6:
  87:sensor_device/DHT22.c ****         ;
 198              		.loc 1 87 11 discriminator 1 view .LVU35
 199 000a 0028     		cmp	r0, #0
 200 000c F9D0     		beq	.L14
  84:sensor_device/DHT22.c **** 
ARM GAS  /tmp/ccsmDdxh.s 			page 6


 201              		.loc 1 84 14 view .LVU36
 202 000e 0024     		movs	r4, #0
 203              	.L15:
 204              	.LVL7:
  89:sensor_device/DHT22.c ****     // 计时高电平长度
  90:sensor_device/DHT22.c ****     while (HAL_GPIO_ReadPin(DHT22_GPIO_Port, DHT22_Pin) == GPIO_PIN_SET)
 205              		.loc 1 90 11 is_stmt 1 view .LVU37
 206              		.loc 1 90 12 is_stmt 0 view .LVU38
 207 0010 0421     		movs	r1, #4
 208 0012 0748     		ldr	r0, .L21
 209 0014 FFF7FEFF 		bl	HAL_GPIO_ReadPin
 210              	.LVL8:
 211              		.loc 1 90 11 view .LVU39
 212 0018 0128     		cmp	r0, #1
 213 001a 02D1     		bne	.L16
  91:sensor_device/DHT22.c ****     {
  92:sensor_device/DHT22.c ****         if (++t > 100) break;
 214              		.loc 1 92 9 is_stmt 1 view .LVU40
 215              		.loc 1 92 12 is_stmt 0 view .LVU41
 216 001c 0134     		adds	r4, r4, #1
 217              	.LVL9:
 218              		.loc 1 92 12 view .LVU42
 219 001e 642C     		cmp	r4, #100
 220 0020 F6D9     		bls	.L15
 221              	.L16:
  93:sensor_device/DHT22.c ****         Delay_us(1);
  94:sensor_device/DHT22.c ****     }
  95:sensor_device/DHT22.c ****     // 高电平持续时间 > 40us 判为“1”
  96:sensor_device/DHT22.c ****     if (t > 20) bit = 1;
 222              		.loc 1 96 5 is_stmt 1 view .LVU43
 223              		.loc 1 96 8 is_stmt 0 view .LVU44
 224 0022 142C     		cmp	r4, #20
 225 0024 01D8     		bhi	.L19
  83:sensor_device/DHT22.c ****     uint32_t t = 0;
 226              		.loc 1 83 13 view .LVU45
 227 0026 0020     		movs	r0, #0
 228              	.L18:
 229              	.LVL10:
  97:sensor_device/DHT22.c ****     return bit;
 230              		.loc 1 97 5 is_stmt 1 view .LVU46
  98:sensor_device/DHT22.c **** }
 231              		.loc 1 98 1 is_stmt 0 view .LVU47
 232 0028 10BD     		pop	{r4, pc}
 233              	.LVL11:
 234              	.L19:
  96:sensor_device/DHT22.c ****     return bit;
 235              		.loc 1 96 21 view .LVU48
 236 002a 0120     		movs	r0, #1
 237 002c FCE7     		b	.L18
 238              	.L22:
 239 002e 00BF     		.align	2
 240              	.L21:
 241 0030 00100140 		.word	1073811456
 242              		.cfi_endproc
 243              	.LFE71:
 245              		.section	.text.DHT22_ReadByte,"ax",%progbits
 246              		.align	1
ARM GAS  /tmp/ccsmDdxh.s 			page 7


 247              		.syntax unified
 248              		.thumb
 249              		.thumb_func
 250              		.fpu softvfp
 252              	DHT22_ReadByte:
 253              	.LFB72:
  99:sensor_device/DHT22.c **** 
 100:sensor_device/DHT22.c **** /**
 101:sensor_device/DHT22.c ****  * @brief  读取 1 字节
 102:sensor_device/DHT22.c ****  */
 103:sensor_device/DHT22.c **** static uint8_t DHT22_ReadByte(void)
 104:sensor_device/DHT22.c **** {
 254              		.loc 1 104 1 is_stmt 1 view -0
 255              		.cfi_startproc
 256              		@ args = 0, pretend = 0, frame = 0
 257              		@ frame_needed = 0, uses_anonymous_args = 0
 258 0000 38B5     		push	{r3, r4, r5, lr}
 259              	.LCFI8:
 260              		.cfi_def_cfa_offset 16
 261              		.cfi_offset 3, -16
 262              		.cfi_offset 4, -12
 263              		.cfi_offset 5, -8
 264              		.cfi_offset 14, -4
 105:sensor_device/DHT22.c ****     uint8_t byte = 0;
 265              		.loc 1 105 5 view .LVU50
 266              	.LVL12:
 106:sensor_device/DHT22.c ****     for (int8_t i = 7; i >= 0; i--)
 267              		.loc 1 106 5 view .LVU51
 268              	.LBB2:
 269              		.loc 1 106 10 view .LVU52
 270              		.loc 1 106 17 is_stmt 0 view .LVU53
 271 0002 0725     		movs	r5, #7
 272              	.LBE2:
 105:sensor_device/DHT22.c ****     uint8_t byte = 0;
 273              		.loc 1 105 13 view .LVU54
 274 0004 0020     		movs	r0, #0
 275              	.LBB3:
 276              		.loc 1 106 5 view .LVU55
 277 0006 07E0     		b	.L24
 278              	.LVL13:
 279              	.L25:
 107:sensor_device/DHT22.c ****     {
 108:sensor_device/DHT22.c ****         byte <<= 1;
 280              		.loc 1 108 9 is_stmt 1 discriminator 3 view .LVU56
 281              		.loc 1 108 14 is_stmt 0 discriminator 3 view .LVU57
 282 0008 4000     		lsls	r0, r0, #1
 283              	.LVL14:
 284              		.loc 1 108 14 discriminator 3 view .LVU58
 285 000a C4B2     		uxtb	r4, r0
 286              	.LVL15:
 109:sensor_device/DHT22.c ****         byte |= DHT22_ReadBit();
 287              		.loc 1 109 9 is_stmt 1 discriminator 3 view .LVU59
 288              		.loc 1 109 17 is_stmt 0 discriminator 3 view .LVU60
 289 000c FFF7FEFF 		bl	DHT22_ReadBit
 290              	.LVL16:
 291              		.loc 1 109 14 discriminator 3 view .LVU61
 292 0010 2043     		orrs	r0, r0, r4
ARM GAS  /tmp/ccsmDdxh.s 			page 8


 293 0012 C0B2     		uxtb	r0, r0
 294              	.LVL17:
 106:sensor_device/DHT22.c ****     for (int8_t i = 7; i >= 0; i--)
 295              		.loc 1 106 32 is_stmt 1 discriminator 3 view .LVU62
 106:sensor_device/DHT22.c ****     for (int8_t i = 7; i >= 0; i--)
 296              		.loc 1 106 33 is_stmt 0 discriminator 3 view .LVU63
 297 0014 013D     		subs	r5, r5, #1
 298              	.LVL18:
 106:sensor_device/DHT22.c ****     for (int8_t i = 7; i >= 0; i--)
 299              		.loc 1 106 33 discriminator 3 view .LVU64
 300 0016 6DB2     		sxtb	r5, r5
 301              	.LVL19:
 302              	.L24:
 106:sensor_device/DHT22.c ****     for (int8_t i = 7; i >= 0; i--)
 303              		.loc 1 106 24 is_stmt 1 discriminator 1 view .LVU65
 106:sensor_device/DHT22.c ****     for (int8_t i = 7; i >= 0; i--)
 304              		.loc 1 106 5 is_stmt 0 discriminator 1 view .LVU66
 305 0018 002D     		cmp	r5, #0
 306 001a F5DA     		bge	.L25
 307              	.LBE3:
 110:sensor_device/DHT22.c ****     }
 111:sensor_device/DHT22.c ****     return byte;
 112:sensor_device/DHT22.c **** }
 308              		.loc 1 112 1 view .LVU67
 309 001c 38BD     		pop	{r3, r4, r5, pc}
 310              		.loc 1 112 1 view .LVU68
 311              		.cfi_endproc
 312              	.LFE72:
 314              		.section	.rodata.DHT22_CheckResponse.str1.4,"aMS",%progbits,1
 315              		.align	2
 316              	.LC0:
 317 0000 74737373 		.ascii	"tsssss is %d\012\000"
 317      73732069 
 317      73202564 
 317      0A00
 318              		.section	.text.DHT22_CheckResponse,"ax",%progbits
 319              		.align	1
 320              		.syntax unified
 321              		.thumb
 322              		.thumb_func
 323              		.fpu softvfp
 325              	DHT22_CheckResponse:
 326              	.LFB70:
  59:sensor_device/DHT22.c ****     uint32_t t = 0;
 327              		.loc 1 59 1 is_stmt 1 view -0
 328              		.cfi_startproc
 329              		@ args = 0, pretend = 0, frame = 0
 330              		@ frame_needed = 0, uses_anonymous_args = 0
 331 0000 10B5     		push	{r4, lr}
 332              	.LCFI9:
 333              		.cfi_def_cfa_offset 8
 334              		.cfi_offset 4, -8
 335              		.cfi_offset 14, -4
  60:sensor_device/DHT22.c ****     // 等待拉低（≈80us）
 336              		.loc 1 60 5 view .LVU70
 337              	.LVL20:
  62:sensor_device/DHT22.c ****     {
ARM GAS  /tmp/ccsmDdxh.s 			page 9


 338              		.loc 1 62 5 view .LVU71
  60:sensor_device/DHT22.c ****     // 等待拉低（≈80us）
 339              		.loc 1 60 14 is_stmt 0 view .LVU72
 340 0002 0024     		movs	r4, #0
 341              	.LVL21:
 342              	.L28:
  62:sensor_device/DHT22.c ****     {
 343              		.loc 1 62 11 is_stmt 1 view .LVU73
  62:sensor_device/DHT22.c ****     {
 344              		.loc 1 62 12 is_stmt 0 view .LVU74
 345 0004 0421     		movs	r1, #4
 346 0006 0E48     		ldr	r0, .L37
 347 0008 FFF7FEFF 		bl	HAL_GPIO_ReadPin
 348              	.LVL22:
  62:sensor_device/DHT22.c ****     {
 349              		.loc 1 62 11 view .LVU75
 350 000c 0128     		cmp	r0, #1
 351 000e 04D1     		bne	.L35
  64:sensor_device/DHT22.c ****         Delay_us(1);
 352              		.loc 1 64 9 is_stmt 1 view .LVU76
  64:sensor_device/DHT22.c ****         Delay_us(1);
 353              		.loc 1 64 12 is_stmt 0 view .LVU77
 354 0010 0134     		adds	r4, r4, #1
 355              	.LVL23:
  64:sensor_device/DHT22.c ****         Delay_us(1);
 356              		.loc 1 64 12 view .LVU78
 357 0012 642C     		cmp	r4, #100
 358 0014 F6D9     		bls	.L28
  64:sensor_device/DHT22.c ****         Delay_us(1);
 359              		.loc 1 64 31 view .LVU79
 360 0016 0023     		movs	r3, #0
 361 0018 10E0     		b	.L29
 362              	.L35:
  67:sensor_device/DHT22.c ****     // 等待拉高（≈80us）
 363              		.loc 1 67 7 view .LVU80
 364 001a 0024     		movs	r4, #0
 365              	.LVL24:
 366              	.L31:
  69:sensor_device/DHT22.c ****     {
 367              		.loc 1 69 11 is_stmt 1 view .LVU81
  69:sensor_device/DHT22.c ****     {
 368              		.loc 1 69 12 is_stmt 0 view .LVU82
 369 001c 0421     		movs	r1, #4
 370 001e 0848     		ldr	r0, .L37
 371 0020 FFF7FEFF 		bl	HAL_GPIO_ReadPin
 372              	.LVL25:
  69:sensor_device/DHT22.c ****     {
 373              		.loc 1 69 11 view .LVU83
 374 0024 0346     		mov	r3, r0
 375 0026 18B9     		cbnz	r0, .L36
  71:sensor_device/DHT22.c ****         Delay_us(1);
 376              		.loc 1 71 9 is_stmt 1 view .LVU84
  71:sensor_device/DHT22.c ****         Delay_us(1);
 377              		.loc 1 71 12 is_stmt 0 view .LVU85
 378 0028 0134     		adds	r4, r4, #1
 379              	.LVL26:
  71:sensor_device/DHT22.c ****         Delay_us(1);
ARM GAS  /tmp/ccsmDdxh.s 			page 10


 380              		.loc 1 71 12 view .LVU86
 381 002a 642C     		cmp	r4, #100
 382 002c F6D9     		bls	.L31
 383 002e 05E0     		b	.L29
 384              	.L36:
  74:sensor_device/DHT22.c ****     return 1;
 385              		.loc 1 74 5 is_stmt 1 view .LVU87
 386 0030 2246     		mov	r2, r4
 387 0032 0449     		ldr	r1, .L37+4
 388 0034 0020     		movs	r0, #0
 389 0036 FFF7FEFF 		bl	SEGGER_RTT_printf
 390              	.LVL27:
  75:sensor_device/DHT22.c **** }
 391              		.loc 1 75 5 view .LVU88
  75:sensor_device/DHT22.c **** }
 392              		.loc 1 75 12 is_stmt 0 view .LVU89
 393 003a 0123     		movs	r3, #1
 394              	.L29:
  76:sensor_device/DHT22.c **** 
 395              		.loc 1 76 1 view .LVU90
 396 003c 1846     		mov	r0, r3
 397 003e 10BD     		pop	{r4, pc}
 398              	.LVL28:
 399              	.L38:
  76:sensor_device/DHT22.c **** 
 400              		.loc 1 76 1 view .LVU91
 401              		.align	2
 402              	.L37:
 403 0040 00100140 		.word	1073811456
 404 0044 00000000 		.word	.LC0
 405              		.cfi_endproc
 406              	.LFE70:
 408              		.section	.text.DHT22_Init,"ax",%progbits
 409              		.align	1
 410              		.global	DHT22_Init
 411              		.syntax unified
 412              		.thumb
 413              		.thumb_func
 414              		.fpu softvfp
 416              	DHT22_Init:
 417              	.LFB68:
  35:sensor_device/DHT22.c ****     __HAL_RCC_GPIOC_CLK_ENABLE();
 418              		.loc 1 35 1 is_stmt 1 view -0
 419              		.cfi_startproc
 420              		@ args = 0, pretend = 0, frame = 8
 421              		@ frame_needed = 0, uses_anonymous_args = 0
 422 0000 00B5     		push	{lr}
 423              	.LCFI10:
 424              		.cfi_def_cfa_offset 4
 425              		.cfi_offset 14, -4
 426 0002 83B0     		sub	sp, sp, #12
 427              	.LCFI11:
 428              		.cfi_def_cfa_offset 16
  36:sensor_device/DHT22.c ****     DHT22_Pin_Output();
 429              		.loc 1 36 5 view .LVU93
 430              	.LBB4:
  36:sensor_device/DHT22.c ****     DHT22_Pin_Output();
ARM GAS  /tmp/ccsmDdxh.s 			page 11


 431              		.loc 1 36 5 view .LVU94
  36:sensor_device/DHT22.c ****     DHT22_Pin_Output();
 432              		.loc 1 36 5 view .LVU95
 433 0004 094B     		ldr	r3, .L41
 434 0006 9A69     		ldr	r2, [r3, #24]
 435 0008 42F01002 		orr	r2, r2, #16
 436 000c 9A61     		str	r2, [r3, #24]
  36:sensor_device/DHT22.c ****     DHT22_Pin_Output();
 437              		.loc 1 36 5 view .LVU96
 438 000e 9B69     		ldr	r3, [r3, #24]
 439 0010 03F01003 		and	r3, r3, #16
 440 0014 0193     		str	r3, [sp, #4]
  36:sensor_device/DHT22.c ****     DHT22_Pin_Output();
 441              		.loc 1 36 5 view .LVU97
 442 0016 019B     		ldr	r3, [sp, #4]
 443              	.LBE4:
  36:sensor_device/DHT22.c ****     DHT22_Pin_Output();
 444              		.loc 1 36 5 view .LVU98
  37:sensor_device/DHT22.c ****     HAL_GPIO_WritePin(DHT22_GPIO_Port, DHT22_Pin, GPIO_PIN_SET);
 445              		.loc 1 37 5 view .LVU99
 446 0018 FFF7FEFF 		bl	DHT22_Pin_Output
 447              	.LVL29:
  38:sensor_device/DHT22.c **** }
 448              		.loc 1 38 5 view .LVU100
 449 001c 0122     		movs	r2, #1
 450 001e 0421     		movs	r1, #4
 451 0020 0348     		ldr	r0, .L41+4
 452 0022 FFF7FEFF 		bl	HAL_GPIO_WritePin
 453              	.LVL30:
  39:sensor_device/DHT22.c **** 
 454              		.loc 1 39 1 is_stmt 0 view .LVU101
 455 0026 03B0     		add	sp, sp, #12
 456              	.LCFI12:
 457              		.cfi_def_cfa_offset 4
 458              		@ sp needed
 459 0028 5DF804FB 		ldr	pc, [sp], #4
 460              	.L42:
 461              		.align	2
 462              	.L41:
 463 002c 00100240 		.word	1073876992
 464 0030 00100140 		.word	1073811456
 465              		.cfi_endproc
 466              	.LFE68:
 468              		.global	__aeabi_i2f
 469              		.global	__aeabi_fmul
 470              		.section	.text.DHT22_ReadData,"ax",%progbits
 471              		.align	1
 472              		.global	DHT22_ReadData
 473              		.syntax unified
 474              		.thumb
 475              		.thumb_func
 476              		.fpu softvfp
 478              	DHT22_ReadData:
 479              	.LVL31:
 480              	.LFB73:
 113:sensor_device/DHT22.c **** 
 114:sensor_device/DHT22.c **** /**
ARM GAS  /tmp/ccsmDdxh.s 			page 12


 115:sensor_device/DHT22.c ****  * @brief  公有接口：读取温度和湿度
 116:sensor_device/DHT22.c ****  */
 117:sensor_device/DHT22.c **** uint8_t DHT22_ReadData(float *temperature, float *humidity)
 118:sensor_device/DHT22.c **** {
 481              		.loc 1 118 1 is_stmt 1 view -0
 482              		.cfi_startproc
 483              		@ args = 0, pretend = 0, frame = 8
 484              		@ frame_needed = 0, uses_anonymous_args = 0
 485              		.loc 1 118 1 is_stmt 0 view .LVU103
 486 0000 F0B5     		push	{r4, r5, r6, r7, lr}
 487              	.LCFI13:
 488              		.cfi_def_cfa_offset 20
 489              		.cfi_offset 4, -20
 490              		.cfi_offset 5, -16
 491              		.cfi_offset 6, -12
 492              		.cfi_offset 7, -8
 493              		.cfi_offset 14, -4
 494 0002 83B0     		sub	sp, sp, #12
 495              	.LCFI14:
 496              		.cfi_def_cfa_offset 32
 497 0004 0646     		mov	r6, r0
 498 0006 0D46     		mov	r5, r1
 119:sensor_device/DHT22.c ****     uint8_t data[5] = {0};
 499              		.loc 1 119 5 is_stmt 1 view .LVU104
 500              		.loc 1 119 13 is_stmt 0 view .LVU105
 501 0008 0023     		movs	r3, #0
 502 000a 0093     		str	r3, [sp]
 503 000c 8DF80430 		strb	r3, [sp, #4]
 120:sensor_device/DHT22.c **** 
 121:sensor_device/DHT22.c ****     DHT22_StartSignal();
 504              		.loc 1 121 5 is_stmt 1 view .LVU106
 505 0010 FFF7FEFF 		bl	DHT22_StartSignal
 506              	.LVL32:
 122:sensor_device/DHT22.c ****     if (!DHT22_CheckResponse()) return 1;
 507              		.loc 1 122 5 view .LVU107
 508              		.loc 1 122 10 is_stmt 0 view .LVU108
 509 0014 FFF7FEFF 		bl	DHT22_CheckResponse
 510              	.LVL33:
 511              		.loc 1 122 8 view .LVU109
 512 0018 0028     		cmp	r0, #0
 513 001a 3DD0     		beq	.L48
 514              	.LBB5:
 123:sensor_device/DHT22.c ****     // DWT_Delay_us(50);
 124:sensor_device/DHT22.c **** 
 125:sensor_device/DHT22.c ****     // 依次读取 5 个字节：湿度高、湿度低、温度高、温度低、校验
 126:sensor_device/DHT22.c ****     for (uint8_t i = 0; i < 5; i++)
 515              		.loc 1 126 18 view .LVU110
 516 001c 0024     		movs	r4, #0
 517              	.L45:
 518              	.LVL34:
 519              		.loc 1 126 25 is_stmt 1 discriminator 1 view .LVU111
 520              		.loc 1 126 5 is_stmt 0 discriminator 1 view .LVU112
 521 001e 042C     		cmp	r4, #4
 522 0020 08D8     		bhi	.L51
 127:sensor_device/DHT22.c ****     {
 128:sensor_device/DHT22.c ****         data[i] = DHT22_ReadByte();
 523              		.loc 1 128 9 is_stmt 1 discriminator 3 view .LVU113
ARM GAS  /tmp/ccsmDdxh.s 			page 13


 524              		.loc 1 128 19 is_stmt 0 discriminator 3 view .LVU114
 525 0022 FFF7FEFF 		bl	DHT22_ReadByte
 526              	.LVL35:
 527              		.loc 1 128 17 discriminator 3 view .LVU115
 528 0026 02AB     		add	r3, sp, #8
 529 0028 2344     		add	r3, r3, r4
 530 002a 03F8080C 		strb	r0, [r3, #-8]
 126:sensor_device/DHT22.c ****     {
 531              		.loc 1 126 32 is_stmt 1 discriminator 3 view .LVU116
 126:sensor_device/DHT22.c ****     {
 532              		.loc 1 126 33 is_stmt 0 discriminator 3 view .LVU117
 533 002e 0134     		adds	r4, r4, #1
 534              	.LVL36:
 126:sensor_device/DHT22.c ****     {
 535              		.loc 1 126 33 discriminator 3 view .LVU118
 536 0030 E4B2     		uxtb	r4, r4
 537              	.LVL37:
 126:sensor_device/DHT22.c ****     {
 538              		.loc 1 126 33 discriminator 3 view .LVU119
 539 0032 F4E7     		b	.L45
 540              	.L51:
 126:sensor_device/DHT22.c ****     {
 541              		.loc 1 126 33 discriminator 3 view .LVU120
 542              	.LBE5:
 129:sensor_device/DHT22.c ****         // myprintf("read data %x\n",data[i]);
 130:sensor_device/DHT22.c ****     }
 131:sensor_device/DHT22.c **** 
 132:sensor_device/DHT22.c ****     // CRC 校验
 133:sensor_device/DHT22.c ****     if (data[4] != ((data[0] + data[1] + data[2] + data[3]) & 0xFF))
 543              		.loc 1 133 5 is_stmt 1 view .LVU121
 544              		.loc 1 133 13 is_stmt 0 view .LVU122
 545 0034 9DF80410 		ldrb	r1, [sp, #4]	@ zero_extendqisi2
 546              		.loc 1 133 26 view .LVU123
 547 0038 9DF80000 		ldrb	r0, [sp]	@ zero_extendqisi2
 548              		.loc 1 133 36 view .LVU124
 549 003c 9DF80120 		ldrb	r2, [sp, #1]	@ zero_extendqisi2
 550              		.loc 1 133 30 view .LVU125
 551 0040 8318     		adds	r3, r0, r2
 552              		.loc 1 133 46 view .LVU126
 553 0042 9DF80270 		ldrb	r7, [sp, #2]	@ zero_extendqisi2
 554              		.loc 1 133 40 view .LVU127
 555 0046 3B44     		add	r3, r3, r7
 556              		.loc 1 133 56 view .LVU128
 557 0048 9DF80340 		ldrb	r4, [sp, #3]	@ zero_extendqisi2
 558              	.LVL38:
 559              		.loc 1 133 50 view .LVU129
 560 004c 2344     		add	r3, r3, r4
 561              		.loc 1 133 61 view .LVU130
 562 004e DBB2     		uxtb	r3, r3
 563              		.loc 1 133 8 view .LVU131
 564 0050 9942     		cmp	r1, r3
 565 0052 24D1     		bne	.L49
 134:sensor_device/DHT22.c ****         return 2;
 135:sensor_device/DHT22.c **** 
 136:sensor_device/DHT22.c ****     // 解析湿度（16-bit -> 10×%RH）
 137:sensor_device/DHT22.c ****     uint16_t rawH = (data[0] << 8) | data[1];
 566              		.loc 1 137 5 is_stmt 1 view .LVU132
ARM GAS  /tmp/ccsmDdxh.s 			page 14


 567              	.LVL39:
 138:sensor_device/DHT22.c ****     *humidity    = rawH * 0.1f;
 568              		.loc 1 138 5 view .LVU133
 569              		.loc 1 138 25 is_stmt 0 view .LVU134
 570 0054 42EA0020 		orr	r0, r2, r0, lsl #8
 571              	.LVL40:
 572              		.loc 1 138 25 view .LVU135
 573 0058 FFF7FEFF 		bl	__aeabi_i2f
 574              	.LVL41:
 575              		.loc 1 138 25 view .LVU136
 576 005c 1149     		ldr	r1, .L53
 577 005e FFF7FEFF 		bl	__aeabi_fmul
 578              	.LVL42:
 579              		.loc 1 138 18 view .LVU137
 580 0062 2860     		str	r0, [r5]	@ float
 139:sensor_device/DHT22.c **** 
 140:sensor_device/DHT22.c ****     // 解析温度（16-bit，最高位符号）
 141:sensor_device/DHT22.c ****     uint16_t rawT = (data[2] << 8) | data[3];
 581              		.loc 1 141 5 is_stmt 1 view .LVU138
 582              		.loc 1 141 36 is_stmt 0 view .LVU139
 583 0064 44EA0724 		orr	r4, r4, r7, lsl #8
 584              		.loc 1 141 14 view .LVU140
 585 0068 2046     		mov	r0, r4
 586              	.LVL43:
 142:sensor_device/DHT22.c ****     if (rawT & 0x8000)
 587              		.loc 1 142 5 is_stmt 1 view .LVU141
 588              		.loc 1 142 8 is_stmt 0 view .LVU142
 589 006a 14F4004F 		tst	r4, #32768
 590 006e 07D1     		bne	.L52
 143:sensor_device/DHT22.c ****     {
 144:sensor_device/DHT22.c ****         rawT &= 0x7FFF;
 145:sensor_device/DHT22.c ****         *temperature = -(rawT * 0.1f);
 146:sensor_device/DHT22.c ****     }
 147:sensor_device/DHT22.c ****     else
 148:sensor_device/DHT22.c ****     {
 149:sensor_device/DHT22.c ****         *temperature = rawT * 0.1f;
 591              		.loc 1 149 9 is_stmt 1 view .LVU143
 592              		.loc 1 149 29 is_stmt 0 view .LVU144
 593 0070 FFF7FEFF 		bl	__aeabi_i2f
 594              	.LVL44:
 595 0074 0B49     		ldr	r1, .L53
 596 0076 FFF7FEFF 		bl	__aeabi_fmul
 597              	.LVL45:
 598              		.loc 1 149 22 view .LVU145
 599 007a 3060     		str	r0, [r6]	@ float
 150:sensor_device/DHT22.c ****     }
 151:sensor_device/DHT22.c **** 
 152:sensor_device/DHT22.c ****     return 0;
 600              		.loc 1 152 12 view .LVU146
 601 007c 0020     		movs	r0, #0
 602 007e 0CE0     		b	.L44
 603              	.L52:
 144:sensor_device/DHT22.c ****         *temperature = -(rawT * 0.1f);
 604              		.loc 1 144 9 is_stmt 1 view .LVU147
 605              	.LVL46:
 145:sensor_device/DHT22.c ****     }
 606              		.loc 1 145 9 view .LVU148
ARM GAS  /tmp/ccsmDdxh.s 			page 15


 145:sensor_device/DHT22.c ****     }
 607              		.loc 1 145 31 is_stmt 0 view .LVU149
 608 0080 C4F30E00 		ubfx	r0, r4, #0, #15
 609              	.LVL47:
 145:sensor_device/DHT22.c ****     }
 610              		.loc 1 145 31 view .LVU150
 611 0084 FFF7FEFF 		bl	__aeabi_i2f
 612              	.LVL48:
 613 0088 0649     		ldr	r1, .L53
 614 008a FFF7FEFF 		bl	__aeabi_fmul
 615              	.LVL49:
 145:sensor_device/DHT22.c ****     }
 616              		.loc 1 145 24 view .LVU151
 617 008e 00F10040 		add	r0, r0, #-2147483648
 145:sensor_device/DHT22.c ****     }
 618              		.loc 1 145 22 view .LVU152
 619 0092 3060     		str	r0, [r6]	@ float
 620              		.loc 1 152 12 view .LVU153
 621 0094 0020     		movs	r0, #0
 622 0096 00E0     		b	.L44
 623              	.LVL50:
 624              	.L48:
 122:sensor_device/DHT22.c ****     // DWT_Delay_us(50);
 625              		.loc 1 122 40 view .LVU154
 626 0098 0120     		movs	r0, #1
 627              	.L44:
 153:sensor_device/DHT22.c **** }
 628              		.loc 1 153 1 view .LVU155
 629 009a 03B0     		add	sp, sp, #12
 630              	.LCFI15:
 631              		.cfi_remember_state
 632              		.cfi_def_cfa_offset 20
 633              		@ sp needed
 634 009c F0BD     		pop	{r4, r5, r6, r7, pc}
 635              	.LVL51:
 636              	.L49:
 637              	.LCFI16:
 638              		.cfi_restore_state
 134:sensor_device/DHT22.c **** 
 639              		.loc 1 134 16 view .LVU156
 640 009e 0220     		movs	r0, #2
 641 00a0 FBE7     		b	.L44
 642              	.L54:
 643 00a2 00BF     		.align	2
 644              	.L53:
 645 00a4 CDCCCC3D 		.word	1036831949
 646              		.cfi_endproc
 647              	.LFE73:
 649              		.text
 650              	.Letext0:
 651              		.file 2 "/opt/gcc-arm-none-eabi-9-2020-q2-update/arm-none-eabi/include/machine/_default_types.h"
 652              		.file 3 "/opt/gcc-arm-none-eabi-9-2020-q2-update/arm-none-eabi/include/sys/_stdint.h"
 653              		.file 4 "Drivers/CMSIS/Include/core_cm3.h"
 654              		.file 5 "Drivers/CMSIS/Device/ST/STM32F1xx/Include/system_stm32f1xx.h"
 655              		.file 6 "Drivers/CMSIS/Device/ST/STM32F1xx/Include/stm32f103xe.h"
 656              		.file 7 "Drivers/STM32F1xx_HAL_Driver/Inc/stm32f1xx_hal_gpio.h"
 657              		.file 8 "Drivers/STM32F1xx_HAL_Driver/Inc/stm32f1xx_hal.h"
ARM GAS  /tmp/ccsmDdxh.s 			page 16


 658              		.file 9 "ARM_SEGGER_RTT/SEGGER_RTT.h"
ARM GAS  /tmp/ccsmDdxh.s 			page 17


DEFINED SYMBOLS
                            *ABS*:0000000000000000 DHT22.c
     /tmp/ccsmDdxh.s:16     .text.DHT22_Pin_Output:0000000000000000 $t
     /tmp/ccsmDdxh.s:23     .text.DHT22_Pin_Output:0000000000000000 DHT22_Pin_Output
     /tmp/ccsmDdxh.s:68     .text.DHT22_Pin_Output:0000000000000024 $d
     /tmp/ccsmDdxh.s:73     .text.DHT22_Pin_Input:0000000000000000 $t
     /tmp/ccsmDdxh.s:79     .text.DHT22_Pin_Input:0000000000000000 DHT22_Pin_Input
     /tmp/ccsmDdxh.s:120    .text.DHT22_Pin_Input:0000000000000020 $d
     /tmp/ccsmDdxh.s:125    .text.DHT22_StartSignal:0000000000000000 $t
     /tmp/ccsmDdxh.s:131    .text.DHT22_StartSignal:0000000000000000 DHT22_StartSignal
     /tmp/ccsmDdxh.s:168    .text.DHT22_StartSignal:0000000000000024 $d
     /tmp/ccsmDdxh.s:173    .text.DHT22_ReadBit:0000000000000000 $t
     /tmp/ccsmDdxh.s:179    .text.DHT22_ReadBit:0000000000000000 DHT22_ReadBit
     /tmp/ccsmDdxh.s:241    .text.DHT22_ReadBit:0000000000000030 $d
     /tmp/ccsmDdxh.s:246    .text.DHT22_ReadByte:0000000000000000 $t
     /tmp/ccsmDdxh.s:252    .text.DHT22_ReadByte:0000000000000000 DHT22_ReadByte
     /tmp/ccsmDdxh.s:315    .rodata.DHT22_CheckResponse.str1.4:0000000000000000 $d
     /tmp/ccsmDdxh.s:319    .text.DHT22_CheckResponse:0000000000000000 $t
     /tmp/ccsmDdxh.s:325    .text.DHT22_CheckResponse:0000000000000000 DHT22_CheckResponse
     /tmp/ccsmDdxh.s:403    .text.DHT22_CheckResponse:0000000000000040 $d
     /tmp/ccsmDdxh.s:409    .text.DHT22_Init:0000000000000000 $t
     /tmp/ccsmDdxh.s:416    .text.DHT22_Init:0000000000000000 DHT22_Init
     /tmp/ccsmDdxh.s:463    .text.DHT22_Init:000000000000002c $d
     /tmp/ccsmDdxh.s:471    .text.DHT22_ReadData:0000000000000000 $t
     /tmp/ccsmDdxh.s:478    .text.DHT22_ReadData:0000000000000000 DHT22_ReadData
     /tmp/ccsmDdxh.s:645    .text.DHT22_ReadData:00000000000000a4 $d

UNDEFINED SYMBOLS
HAL_GPIO_Init
HAL_GPIO_WritePin
HAL_GPIO_ReadPin
SEGGER_RTT_printf
__aeabi_i2f
__aeabi_fmul
