ARM GAS  /tmp/cc2IpUNT.s 			page 1


   1              		.cpu cortex-m3
   2              		.eabi_attribute 20, 1
   3              		.eabi_attribute 21, 1
   4              		.eabi_attribute 23, 3
   5              		.eabi_attribute 24, 1
   6              		.eabi_attribute 25, 1
   7              		.eabi_attribute 26, 1
   8              		.eabi_attribute 30, 1
   9              		.eabi_attribute 34, 1
  10              		.eabi_attribute 18, 4
  11              		.file	"diff_signal_rx.c"
  12              		.text
  13              	.Ltext0:
  14              		.cfi_sections	.debug_frame
  15              		.section	.text.DiffSignal_RX_Init,"ax",%progbits
  16              		.align	1
  17              		.global	DiffSignal_RX_Init
  18              		.arch armv7-m
  19              		.syntax unified
  20              		.thumb
  21              		.thumb_func
  22              		.fpu softvfp
  24              	DiffSignal_RX_Init:
  25              	.LFB65:
  26              		.file 1 "diff_signal/diff_signal_rx.c"
   1:diff_signal/diff_signal_rx.c **** #include "diff_signal_rx.h"
   2:diff_signal/diff_signal_rx.c **** #include "stm32f1xx_hal.h"
   3:diff_signal/diff_signal_rx.c **** #include "stm32f1xx_hal_adc.h"
   4:diff_signal/diff_signal_rx.c **** #include "stm32f1xx_it.h"
   5:diff_signal/diff_signal_rx.c **** // 你的 DWT 延时初始化，保证 DWT->CYCCNT 可用
   6:diff_signal/diff_signal_rx.c **** extern void DWT_Delay_Init(void);
   7:diff_signal/diff_signal_rx.c **** extern void DWT_Delay_us(uint32_t us);
   8:diff_signal/diff_signal_rx.c **** 
   9:diff_signal/diff_signal_rx.c **** #define DIFF_PIN        GPIO_PIN_1
  10:diff_signal/diff_signal_rx.c **** #define DIFF_PORT       GPIOA
  11:diff_signal/diff_signal_rx.c **** 
  12:diff_signal/diff_signal_rx.c **** #define DIFF_THRESHOLD  2000  // 如果你要比较ADC值，可改此阈值
  13:diff_signal/diff_signal_rx.c **** 
  14:diff_signal/diff_signal_rx.c **** TIM_HandleTypeDef htim2;
  15:diff_signal/diff_signal_rx.c **** ADC_HandleTypeDef hadc1;
  16:diff_signal/diff_signal_rx.c **** static uint8_t recv_byte;
  17:diff_signal/diff_signal_rx.c **** static uint8_t bit_cnt;
  18:diff_signal/diff_signal_rx.c **** 
  19:diff_signal/diff_signal_rx.c **** //    ----------------- 初始化 -----------------
  20:diff_signal/diff_signal_rx.c **** void DiffSignal_RX_Init(void)
  21:diff_signal/diff_signal_rx.c **** {
  27              		.loc 1 21 1 view -0
  28              		.cfi_startproc
  29              		@ args = 0, pretend = 0, frame = 48
  30              		@ frame_needed = 0, uses_anonymous_args = 0
  31 0000 70B5     		push	{r4, r5, r6, lr}
  32              	.LCFI0:
  33              		.cfi_def_cfa_offset 16
  34              		.cfi_offset 4, -16
  35              		.cfi_offset 5, -12
  36              		.cfi_offset 6, -8
  37              		.cfi_offset 14, -4
ARM GAS  /tmp/cc2IpUNT.s 			page 2


  38 0002 8CB0     		sub	sp, sp, #48
  39              	.LCFI1:
  40              		.cfi_def_cfa_offset 64
  22:diff_signal/diff_signal_rx.c ****     // 1) DWT 初始化
  23:diff_signal/diff_signal_rx.c **** 
  24:diff_signal/diff_signal_rx.c **** 
  25:diff_signal/diff_signal_rx.c ****     // 2) PA1 EXTI 下降沿触发（起始位）
  26:diff_signal/diff_signal_rx.c ****     __HAL_RCC_GPIOA_CLK_ENABLE();
  41              		.loc 1 26 5 view .LVU1
  42              	.LBB2:
  43              		.loc 1 26 5 view .LVU2
  44              		.loc 1 26 5 view .LVU3
  45 0004 3B4D     		ldr	r5, .L3
  46 0006 AB69     		ldr	r3, [r5, #24]
  47 0008 43F00403 		orr	r3, r3, #4
  48 000c AB61     		str	r3, [r5, #24]
  49              		.loc 1 26 5 view .LVU4
  50 000e AB69     		ldr	r3, [r5, #24]
  51 0010 03F00403 		and	r3, r3, #4
  52 0014 0193     		str	r3, [sp, #4]
  53              		.loc 1 26 5 view .LVU5
  54 0016 019B     		ldr	r3, [sp, #4]
  55              	.LBE2:
  56              		.loc 1 26 5 view .LVU6
  27:diff_signal/diff_signal_rx.c ****     __HAL_RCC_AFIO_CLK_ENABLE();
  57              		.loc 1 27 5 view .LVU7
  58              	.LBB3:
  59              		.loc 1 27 5 view .LVU8
  60              		.loc 1 27 5 view .LVU9
  61 0018 AB69     		ldr	r3, [r5, #24]
  62 001a 43F00103 		orr	r3, r3, #1
  63 001e AB61     		str	r3, [r5, #24]
  64              		.loc 1 27 5 view .LVU10
  65 0020 AB69     		ldr	r3, [r5, #24]
  66 0022 03F00103 		and	r3, r3, #1
  67 0026 0293     		str	r3, [sp, #8]
  68              		.loc 1 27 5 view .LVU11
  69 0028 029B     		ldr	r3, [sp, #8]
  70              	.LBE3:
  71              		.loc 1 27 5 view .LVU12
  28:diff_signal/diff_signal_rx.c ****     GPIO_InitTypeDef gp = {0};
  72              		.loc 1 28 5 view .LVU13
  73              		.loc 1 28 22 is_stmt 0 view .LVU14
  74 002a 0024     		movs	r4, #0
  75 002c 0B94     		str	r4, [sp, #44]
  29:diff_signal/diff_signal_rx.c ****     gp.Pin  = DIFF_PIN;
  76              		.loc 1 29 5 is_stmt 1 view .LVU15
  77              		.loc 1 29 13 is_stmt 0 view .LVU16
  78 002e 0223     		movs	r3, #2
  79 0030 0893     		str	r3, [sp, #32]
  30:diff_signal/diff_signal_rx.c ****     gp.Mode = GPIO_MODE_IT_FALLING;
  80              		.loc 1 30 5 is_stmt 1 view .LVU17
  81              		.loc 1 30 13 is_stmt 0 view .LVU18
  82 0032 314B     		ldr	r3, .L3+4
  83 0034 0993     		str	r3, [sp, #36]
  31:diff_signal/diff_signal_rx.c ****     gp.Pull = GPIO_NOPULL;
  84              		.loc 1 31 5 is_stmt 1 view .LVU19
ARM GAS  /tmp/cc2IpUNT.s 			page 3


  85              		.loc 1 31 13 is_stmt 0 view .LVU20
  86 0036 0A94     		str	r4, [sp, #40]
  32:diff_signal/diff_signal_rx.c ****     HAL_GPIO_Init(DIFF_PORT, &gp);
  87              		.loc 1 32 5 is_stmt 1 view .LVU21
  88 0038 08A9     		add	r1, sp, #32
  89 003a 3048     		ldr	r0, .L3+8
  90 003c FFF7FEFF 		bl	HAL_GPIO_Init
  91              	.LVL0:
  33:diff_signal/diff_signal_rx.c ****     HAL_NVIC_SetPriority(EXTI1_IRQn, 1, 0);
  92              		.loc 1 33 5 view .LVU22
  93 0040 2246     		mov	r2, r4
  94 0042 0121     		movs	r1, #1
  95 0044 0720     		movs	r0, #7
  96 0046 FFF7FEFF 		bl	HAL_NVIC_SetPriority
  97              	.LVL1:
  34:diff_signal/diff_signal_rx.c ****     HAL_NVIC_EnableIRQ(EXTI1_IRQn);
  98              		.loc 1 34 5 view .LVU23
  99 004a 0720     		movs	r0, #7
 100 004c FFF7FEFF 		bl	HAL_NVIC_EnableIRQ
 101              	.LVL2:
  35:diff_signal/diff_signal_rx.c **** 
  36:diff_signal/diff_signal_rx.c ****     // 3) TIM2 初始化，用于定时采样
  37:diff_signal/diff_signal_rx.c ****     __HAL_RCC_TIM2_CLK_ENABLE();
 102              		.loc 1 37 5 view .LVU24
 103              	.LBB4:
 104              		.loc 1 37 5 view .LVU25
 105              		.loc 1 37 5 view .LVU26
 106 0050 EB69     		ldr	r3, [r5, #28]
 107 0052 43F00103 		orr	r3, r3, #1
 108 0056 EB61     		str	r3, [r5, #28]
 109              		.loc 1 37 5 view .LVU27
 110 0058 EB69     		ldr	r3, [r5, #28]
 111 005a 03F00103 		and	r3, r3, #1
 112 005e 0393     		str	r3, [sp, #12]
 113              		.loc 1 37 5 view .LVU28
 114 0060 039B     		ldr	r3, [sp, #12]
 115              	.LBE4:
 116              		.loc 1 37 5 view .LVU29
  38:diff_signal/diff_signal_rx.c ****     htim2.Instance           = TIM2;
 117              		.loc 1 38 5 view .LVU30
 118              		.loc 1 38 30 is_stmt 0 view .LVU31
 119 0062 2748     		ldr	r0, .L3+12
 120 0064 4FF08043 		mov	r3, #1073741824
 121 0068 0360     		str	r3, [r0]
  39:diff_signal/diff_signal_rx.c ****     htim2.Init.Prescaler     = (SystemCoreClock/1000000) - 1; // 1MHz
 122              		.loc 1 39 5 is_stmt 1 view .LVU32
 123              		.loc 1 39 48 is_stmt 0 view .LVU33
 124 006a 264B     		ldr	r3, .L3+16
 125 006c 1B68     		ldr	r3, [r3]
 126 006e 264A     		ldr	r2, .L3+20
 127 0070 A2FB0323 		umull	r2, r3, r2, r3
 128 0074 9B0C     		lsrs	r3, r3, #18
 129              		.loc 1 39 58 view .LVU34
 130 0076 013B     		subs	r3, r3, #1
 131              		.loc 1 39 30 view .LVU35
 132 0078 4360     		str	r3, [r0, #4]
  40:diff_signal/diff_signal_rx.c ****     htim2.Init.CounterMode   = TIM_COUNTERMODE_UP;
ARM GAS  /tmp/cc2IpUNT.s 			page 4


 133              		.loc 1 40 5 is_stmt 1 view .LVU36
 134              		.loc 1 40 30 is_stmt 0 view .LVU37
 135 007a 8460     		str	r4, [r0, #8]
  41:diff_signal/diff_signal_rx.c ****     htim2.Init.Period        = BIT_DURATION_US - 1;
 136              		.loc 1 41 5 is_stmt 1 view .LVU38
 137              		.loc 1 41 30 is_stmt 0 view .LVU39
 138 007c 4FF45073 		mov	r3, #832
 139 0080 C360     		str	r3, [r0, #12]
  42:diff_signal/diff_signal_rx.c ****     htim2.Init.ClockDivision = TIM_CLOCKDIVISION_DIV1;
 140              		.loc 1 42 5 is_stmt 1 view .LVU40
 141              		.loc 1 42 30 is_stmt 0 view .LVU41
 142 0082 0461     		str	r4, [r0, #16]
  43:diff_signal/diff_signal_rx.c ****     HAL_TIM_Base_Init(&htim2);
 143              		.loc 1 43 5 is_stmt 1 view .LVU42
 144 0084 FFF7FEFF 		bl	HAL_TIM_Base_Init
 145              	.LVL3:
  44:diff_signal/diff_signal_rx.c ****     HAL_NVIC_SetPriority(TIM2_IRQn, 1, 0);
 146              		.loc 1 44 5 view .LVU43
 147 0088 2246     		mov	r2, r4
 148 008a 0121     		movs	r1, #1
 149 008c 1C20     		movs	r0, #28
 150 008e FFF7FEFF 		bl	HAL_NVIC_SetPriority
 151              	.LVL4:
  45:diff_signal/diff_signal_rx.c ****     HAL_NVIC_EnableIRQ(TIM2_IRQn);
 152              		.loc 1 45 5 view .LVU44
 153 0092 1C20     		movs	r0, #28
 154 0094 FFF7FEFF 		bl	HAL_NVIC_EnableIRQ
 155              	.LVL5:
  46:diff_signal/diff_signal_rx.c **** 
  47:diff_signal/diff_signal_rx.c ****     // 4) ADC1 初始化，软件触发模式，单次转换+中断
  48:diff_signal/diff_signal_rx.c ****     __HAL_RCC_ADC1_CLK_ENABLE();
 156              		.loc 1 48 5 view .LVU45
 157              	.LBB5:
 158              		.loc 1 48 5 view .LVU46
 159              		.loc 1 48 5 view .LVU47
 160 0098 AB69     		ldr	r3, [r5, #24]
 161 009a 43F40073 		orr	r3, r3, #512
 162 009e AB61     		str	r3, [r5, #24]
 163              		.loc 1 48 5 view .LVU48
 164 00a0 AB69     		ldr	r3, [r5, #24]
 165 00a2 03F40073 		and	r3, r3, #512
 166 00a6 0493     		str	r3, [sp, #16]
 167              		.loc 1 48 5 view .LVU49
 168 00a8 049B     		ldr	r3, [sp, #16]
 169              	.LBE5:
 170              		.loc 1 48 5 view .LVU50
  49:diff_signal/diff_signal_rx.c ****     hadc1.Instance                   = ADC1;
 171              		.loc 1 49 5 view .LVU51
 172              		.loc 1 49 38 is_stmt 0 view .LVU52
 173 00aa 184D     		ldr	r5, .L3+24
 174 00ac 184B     		ldr	r3, .L3+28
 175 00ae 2B60     		str	r3, [r5]
  50:diff_signal/diff_signal_rx.c ****     hadc1.Init.ScanConvMode          = ADC_SCAN_DISABLE;
 176              		.loc 1 50 5 is_stmt 1 view .LVU53
 177              		.loc 1 50 38 is_stmt 0 view .LVU54
 178 00b0 AC60     		str	r4, [r5, #8]
  51:diff_signal/diff_signal_rx.c ****     hadc1.Init.ContinuousConvMode    = DISABLE;
ARM GAS  /tmp/cc2IpUNT.s 			page 5


 179              		.loc 1 51 5 is_stmt 1 view .LVU55
 180              		.loc 1 51 38 is_stmt 0 view .LVU56
 181 00b2 2C73     		strb	r4, [r5, #12]
  52:diff_signal/diff_signal_rx.c ****     hadc1.Init.DiscontinuousConvMode = DISABLE;
 182              		.loc 1 52 5 is_stmt 1 view .LVU57
 183              		.loc 1 52 38 is_stmt 0 view .LVU58
 184 00b4 2C75     		strb	r4, [r5, #20]
  53:diff_signal/diff_signal_rx.c ****     hadc1.Init.ExternalTrigConv      = ADC_SOFTWARE_START;  // 软件触发
 185              		.loc 1 53 5 is_stmt 1 view .LVU59
 186              		.loc 1 53 38 is_stmt 0 view .LVU60
 187 00b6 4FF46023 		mov	r3, #917504
 188 00ba EB61     		str	r3, [r5, #28]
  54:diff_signal/diff_signal_rx.c ****     hadc1.Init.DataAlign             = ADC_DATAALIGN_RIGHT;
 189              		.loc 1 54 5 is_stmt 1 view .LVU61
 190              		.loc 1 54 38 is_stmt 0 view .LVU62
 191 00bc 6C60     		str	r4, [r5, #4]
  55:diff_signal/diff_signal_rx.c ****     hadc1.Init.NbrOfConversion       = 1;
 192              		.loc 1 55 5 is_stmt 1 view .LVU63
 193              		.loc 1 55 38 is_stmt 0 view .LVU64
 194 00be 0126     		movs	r6, #1
 195 00c0 2E61     		str	r6, [r5, #16]
  56:diff_signal/diff_signal_rx.c ****     HAL_ADC_Init(&hadc1);
 196              		.loc 1 56 5 is_stmt 1 view .LVU65
 197 00c2 2846     		mov	r0, r5
 198 00c4 FFF7FEFF 		bl	HAL_ADC_Init
 199              	.LVL6:
  57:diff_signal/diff_signal_rx.c ****     ADC_ChannelConfTypeDef cfg = {0};
 200              		.loc 1 57 5 view .LVU66
  58:diff_signal/diff_signal_rx.c ****     cfg.Channel      = ADC_CHANNEL_1; // PA1
 201              		.loc 1 58 5 view .LVU67
 202              		.loc 1 58 22 is_stmt 0 view .LVU68
 203 00c8 0596     		str	r6, [sp, #20]
  59:diff_signal/diff_signal_rx.c ****     cfg.Rank         = ADC_REGULAR_RANK_1;
 204              		.loc 1 59 5 is_stmt 1 view .LVU69
 205              		.loc 1 59 22 is_stmt 0 view .LVU70
 206 00ca 0696     		str	r6, [sp, #24]
  60:diff_signal/diff_signal_rx.c ****     cfg.SamplingTime = ADC_SAMPLETIME_1CYCLE_5;
 207              		.loc 1 60 5 is_stmt 1 view .LVU71
 208              		.loc 1 60 22 is_stmt 0 view .LVU72
 209 00cc 0794     		str	r4, [sp, #28]
  61:diff_signal/diff_signal_rx.c ****     HAL_ADC_ConfigChannel(&hadc1, &cfg);
 210              		.loc 1 61 5 is_stmt 1 view .LVU73
 211 00ce 05A9     		add	r1, sp, #20
 212 00d0 2846     		mov	r0, r5
 213 00d2 FFF7FEFF 		bl	HAL_ADC_ConfigChannel
 214              	.LVL7:
  62:diff_signal/diff_signal_rx.c ****     __HAL_ADC_ENABLE_IT(&hadc1, ADC_IT_EOC);
 215              		.loc 1 62 5 view .LVU74
 216 00d6 2A68     		ldr	r2, [r5]
 217 00d8 5368     		ldr	r3, [r2, #4]
 218 00da 43F02003 		orr	r3, r3, #32
 219 00de 5360     		str	r3, [r2, #4]
  63:diff_signal/diff_signal_rx.c ****     HAL_NVIC_SetPriority(ADC1_2_IRQn, 1, 0);
 220              		.loc 1 63 5 view .LVU75
 221 00e0 2246     		mov	r2, r4
 222 00e2 3146     		mov	r1, r6
 223 00e4 1220     		movs	r0, #18
ARM GAS  /tmp/cc2IpUNT.s 			page 6


 224 00e6 FFF7FEFF 		bl	HAL_NVIC_SetPriority
 225              	.LVL8:
  64:diff_signal/diff_signal_rx.c ****     HAL_NVIC_EnableIRQ(ADC1_2_IRQn);
 226              		.loc 1 64 5 view .LVU76
 227 00ea 1220     		movs	r0, #18
 228 00ec FFF7FEFF 		bl	HAL_NVIC_EnableIRQ
 229              	.LVL9:
  65:diff_signal/diff_signal_rx.c **** }
 230              		.loc 1 65 1 is_stmt 0 view .LVU77
 231 00f0 0CB0     		add	sp, sp, #48
 232              	.LCFI2:
 233              		.cfi_def_cfa_offset 16
 234              		@ sp needed
 235 00f2 70BD     		pop	{r4, r5, r6, pc}
 236              	.L4:
 237              		.align	2
 238              	.L3:
 239 00f4 00100240 		.word	1073876992
 240 00f8 00002110 		.word	270598144
 241 00fc 00080140 		.word	1073809408
 242 0100 00000000 		.word	htim2
 243 0104 00000000 		.word	SystemCoreClock
 244 0108 83DE1B43 		.word	1125899907
 245 010c 00000000 		.word	hadc1
 246 0110 00240140 		.word	1073816576
 247              		.cfi_endproc
 248              	.LFE65:
 250              		.section	.text.HAL_GPIO_EXTI_Callback,"ax",%progbits
 251              		.align	1
 252              		.global	HAL_GPIO_EXTI_Callback
 253              		.syntax unified
 254              		.thumb
 255              		.thumb_func
 256              		.fpu softvfp
 258              	HAL_GPIO_EXTI_Callback:
 259              	.LVL10:
 260              	.LFB66:
  66:diff_signal/diff_signal_rx.c **** 
  67:diff_signal/diff_signal_rx.c **** // ----------------- EXTI 回调（起始位到达） -----------------
  68:diff_signal/diff_signal_rx.c **** void HAL_GPIO_EXTI_Callback(uint16_t GPIO_Pin)
  69:diff_signal/diff_signal_rx.c **** {
 261              		.loc 1 69 1 is_stmt 1 view -0
 262              		.cfi_startproc
 263              		@ args = 0, pretend = 0, frame = 0
 264              		@ frame_needed = 0, uses_anonymous_args = 0
  70:diff_signal/diff_signal_rx.c ****     if (GPIO_Pin != DIFF_PIN) return;
 265              		.loc 1 70 5 view .LVU79
 266              		.loc 1 70 8 is_stmt 0 view .LVU80
 267 0000 0228     		cmp	r0, #2
 268 0002 00D0     		beq	.L11
 269 0004 7047     		bx	lr
 270              	.L11:
  69:diff_signal/diff_signal_rx.c ****     if (GPIO_Pin != DIFF_PIN) return;
 271              		.loc 1 69 1 view .LVU81
 272 0006 08B5     		push	{r3, lr}
 273              	.LCFI3:
 274              		.cfi_def_cfa_offset 8
ARM GAS  /tmp/cc2IpUNT.s 			page 7


 275              		.cfi_offset 3, -8
 276              		.cfi_offset 14, -4
  71:diff_signal/diff_signal_rx.c **** 
  72:diff_signal/diff_signal_rx.c ****     // 重置字节和位计数
  73:diff_signal/diff_signal_rx.c ****     recv_byte = 0;
 277              		.loc 1 73 5 is_stmt 1 view .LVU82
 278              		.loc 1 73 15 is_stmt 0 view .LVU83
 279 0008 0023     		movs	r3, #0
 280 000a 064A     		ldr	r2, .L12
 281 000c 1370     		strb	r3, [r2]
  74:diff_signal/diff_signal_rx.c ****     bit_cnt   = 0;
 282              		.loc 1 74 5 is_stmt 1 view .LVU84
 283              		.loc 1 74 15 is_stmt 0 view .LVU85
 284 000e 064A     		ldr	r2, .L12+4
 285 0010 1370     		strb	r3, [r2]
  75:diff_signal/diff_signal_rx.c **** 
  76:diff_signal/diff_signal_rx.c ****     // 启动 TIM2，进入定时中断
  77:diff_signal/diff_signal_rx.c ****     __HAL_TIM_CLEAR_FLAG(&htim2, TIM_FLAG_UPDATE);
 286              		.loc 1 77 5 is_stmt 1 view .LVU86
 287 0012 0648     		ldr	r0, .L12+8
 288              	.LVL11:
 289              		.loc 1 77 5 is_stmt 0 view .LVU87
 290 0014 0368     		ldr	r3, [r0]
 291 0016 6FF00102 		mvn	r2, #1
 292 001a 1A61     		str	r2, [r3, #16]
  78:diff_signal/diff_signal_rx.c ****     HAL_TIM_Base_Start_IT(&htim2);
 293              		.loc 1 78 5 is_stmt 1 view .LVU88
 294 001c FFF7FEFF 		bl	HAL_TIM_Base_Start_IT
 295              	.LVL12:
  79:diff_signal/diff_signal_rx.c **** }
 296              		.loc 1 79 1 is_stmt 0 view .LVU89
 297 0020 08BD     		pop	{r3, pc}
 298              	.L13:
 299 0022 00BF     		.align	2
 300              	.L12:
 301 0024 00000000 		.word	.LANCHOR0
 302 0028 00000000 		.word	.LANCHOR1
 303 002c 00000000 		.word	htim2
 304              		.cfi_endproc
 305              	.LFE66:
 307              		.section	.text.HAL_ADC_ConvCpltCallback,"ax",%progbits
 308              		.align	1
 309              		.global	HAL_ADC_ConvCpltCallback
 310              		.syntax unified
 311              		.thumb
 312              		.thumb_func
 313              		.fpu softvfp
 315              	HAL_ADC_ConvCpltCallback:
 316              	.LVL13:
 317              	.LFB67:
  80:diff_signal/diff_signal_rx.c **** 
  81:diff_signal/diff_signal_rx.c **** 
  82:diff_signal/diff_signal_rx.c **** // ----------------- ADC 转换完成回调：收集一位 -----------------
  83:diff_signal/diff_signal_rx.c **** void HAL_ADC_ConvCpltCallback(ADC_HandleTypeDef *hadc)
  84:diff_signal/diff_signal_rx.c **** {
 318              		.loc 1 84 1 is_stmt 1 view -0
 319              		.cfi_startproc
ARM GAS  /tmp/cc2IpUNT.s 			page 8


 320              		@ args = 0, pretend = 0, frame = 0
 321              		@ frame_needed = 0, uses_anonymous_args = 0
  85:diff_signal/diff_signal_rx.c ****     if (hadc->Instance != ADC1) return;
 322              		.loc 1 85 5 view .LVU91
 323              		.loc 1 85 13 is_stmt 0 view .LVU92
 324 0000 0268     		ldr	r2, [r0]
 325              		.loc 1 85 8 view .LVU93
 326 0002 0F4B     		ldr	r3, .L22
 327 0004 9A42     		cmp	r2, r3
 328 0006 00D0     		beq	.L20
 329 0008 7047     		bx	lr
 330              	.L20:
  84:diff_signal/diff_signal_rx.c ****     if (hadc->Instance != ADC1) return;
 331              		.loc 1 84 1 view .LVU94
 332 000a 10B5     		push	{r4, lr}
 333              	.LCFI4:
 334              		.cfi_def_cfa_offset 8
 335              		.cfi_offset 4, -8
 336              		.cfi_offset 14, -4
  86:diff_signal/diff_signal_rx.c **** 
  87:diff_signal/diff_signal_rx.c ****     uint16_t v = HAL_ADC_GetValue(hadc);
 337              		.loc 1 87 5 is_stmt 1 view .LVU95
 338              		.loc 1 87 18 is_stmt 0 view .LVU96
 339 000c FFF7FEFF 		bl	HAL_ADC_GetValue
 340              	.LVL14:
 341              		.loc 1 87 14 view .LVU97
 342 0010 80B2     		uxth	r0, r0
 343              	.LVL15:
  88:diff_signal/diff_signal_rx.c ****     uint8_t bit = (v > DIFF_THRESHOLD) ? 1 : 0;
 344              		.loc 1 88 5 is_stmt 1 view .LVU98
 345              		.loc 1 88 44 is_stmt 0 view .LVU99
 346 0012 B0F5FA6F 		cmp	r0, #2000
 347 0016 94BF     		ite	ls
 348 0018 0020     		movls	r0, #0
 349              	.LVL16:
 350              		.loc 1 88 44 view .LVU100
 351 001a 0120     		movhi	r0, #1
 352              	.LVL17:
  89:diff_signal/diff_signal_rx.c ****     recv_byte |= (bit << bit_cnt);
 353              		.loc 1 89 5 is_stmt 1 view .LVU101
 354              		.loc 1 89 23 is_stmt 0 view .LVU102
 355 001c 0949     		ldr	r1, .L22+4
 356 001e 0B78     		ldrb	r3, [r1]	@ zero_extendqisi2
 357 0020 9840     		lsls	r0, r0, r3
 358              	.LVL18:
 359              		.loc 1 89 15 view .LVU103
 360 0022 094C     		ldr	r4, .L22+8
 361 0024 2278     		ldrb	r2, [r4]	@ zero_extendqisi2
 362 0026 1043     		orrs	r0, r0, r2
 363 0028 2070     		strb	r0, [r4]
  90:diff_signal/diff_signal_rx.c ****     bit_cnt++;
 364              		.loc 1 90 5 is_stmt 1 view .LVU104
 365              		.loc 1 90 12 is_stmt 0 view .LVU105
 366 002a 0133     		adds	r3, r3, #1
 367 002c DBB2     		uxtb	r3, r3
 368 002e 0B70     		strb	r3, [r1]
  91:diff_signal/diff_signal_rx.c **** 
ARM GAS  /tmp/cc2IpUNT.s 			page 9


  92:diff_signal/diff_signal_rx.c ****     if (bit_cnt >= 8)
 369              		.loc 1 92 5 is_stmt 1 view .LVU106
 370              		.loc 1 92 8 is_stmt 0 view .LVU107
 371 0030 072B     		cmp	r3, #7
 372              		.loc 1 92 8 view .LVU108
 373 0032 00D8     		bhi	.L21
 374              	.L14:
  93:diff_signal/diff_signal_rx.c ****     {
  94:diff_signal/diff_signal_rx.c ****         // 收满 8 位：停止定时，回调处理
  95:diff_signal/diff_signal_rx.c ****         HAL_TIM_Base_Stop_IT(&htim2);
  96:diff_signal/diff_signal_rx.c ****         DiffSignal_Frame_Handler(recv_byte);
  97:diff_signal/diff_signal_rx.c ****     }
  98:diff_signal/diff_signal_rx.c **** }
 375              		.loc 1 98 1 view .LVU109
 376 0034 10BD     		pop	{r4, pc}
 377              	.L21:
  95:diff_signal/diff_signal_rx.c ****         DiffSignal_Frame_Handler(recv_byte);
 378              		.loc 1 95 9 is_stmt 1 view .LVU110
 379 0036 0548     		ldr	r0, .L22+12
 380 0038 FFF7FEFF 		bl	HAL_TIM_Base_Stop_IT
 381              	.LVL19:
  96:diff_signal/diff_signal_rx.c ****     }
 382              		.loc 1 96 9 view .LVU111
 383 003c FAE7     		b	.L14
 384              	.L23:
 385 003e 00BF     		.align	2
 386              	.L22:
 387 0040 00240140 		.word	1073816576
 388 0044 00000000 		.word	.LANCHOR1
 389 0048 00000000 		.word	.LANCHOR0
 390 004c 00000000 		.word	htim2
 391              		.cfi_endproc
 392              	.LFE67:
 394              		.section	.text.DiffSignal_Frame_Handler,"ax",%progbits
 395              		.align	1
 396              		.global	DiffSignal_Frame_Handler
 397              		.syntax unified
 398              		.thumb
 399              		.thumb_func
 400              		.fpu softvfp
 402              	DiffSignal_Frame_Handler:
 403              	.LVL20:
 404              	.LFB68:
  99:diff_signal/diff_signal_rx.c **** 
 100:diff_signal/diff_signal_rx.c **** void DiffSignal_Frame_Handler(uint8_t byte)
 101:diff_signal/diff_signal_rx.c **** {
 405              		.loc 1 101 1 view -0
 406              		.cfi_startproc
 407              		@ args = 0, pretend = 0, frame = 0
 408              		@ frame_needed = 0, uses_anonymous_args = 0
 409              		@ link register save eliminated.
 102:diff_signal/diff_signal_rx.c ****     // TODO: 处理接收到的字节
 103:diff_signal/diff_signal_rx.c **** }
 410              		.loc 1 103 1 view .LVU113
 411 0000 7047     		bx	lr
 412              		.cfi_endproc
 413              	.LFE68:
ARM GAS  /tmp/cc2IpUNT.s 			page 10


 415              		.section	.text.HAL_ADCEx_InjectedConvCpltCallback,"ax",%progbits
 416              		.align	1
 417              		.weak	HAL_ADCEx_InjectedConvCpltCallback
 418              		.syntax unified
 419              		.thumb
 420              		.thumb_func
 421              		.fpu softvfp
 423              	HAL_ADCEx_InjectedConvCpltCallback:
 424              	.LVL21:
 425              	.LFB69:
 104:diff_signal/diff_signal_rx.c **** 
 105:diff_signal/diff_signal_rx.c **** __weak void HAL_ADCEx_InjectedConvCpltCallback(ADC_HandleTypeDef *hadc)
 106:diff_signal/diff_signal_rx.c **** {
 426              		.loc 1 106 1 view -0
 427              		.cfi_startproc
 428              		@ args = 0, pretend = 0, frame = 0
 429              		@ frame_needed = 0, uses_anonymous_args = 0
 430              		@ link register save eliminated.
 107:diff_signal/diff_signal_rx.c ****     // unused, do nothing
 108:diff_signal/diff_signal_rx.c **** }...
 431              		.loc 1 108 1 view .LVU115
 432 0000 7047     		bx	lr
 433              		.cfi_endproc
 434              	.LFE69:
 436              		.comm	hadc1,48,4
 437              		.comm	htim2,72,4
 438              		.section	.bss.bit_cnt,"aw",%nobits
 439              		.set	.LANCHOR1,. + 0
 442              	bit_cnt:
 443 0000 00       		.space	1
 444              		.section	.bss.recv_byte,"aw",%nobits
 445              		.set	.LANCHOR0,. + 0
 448              	recv_byte:
 449 0000 00       		.space	1
 450              		.text
 451              	.Letext0:
 452              		.file 2 "/opt/gcc-arm-none-eabi-9-2020-q2-update/arm-none-eabi/include/machine/_default_types.h"
 453              		.file 3 "/opt/gcc-arm-none-eabi-9-2020-q2-update/arm-none-eabi/include/sys/_stdint.h"
 454              		.file 4 "Drivers/CMSIS/Include/core_cm3.h"
 455              		.file 5 "Drivers/CMSIS/Device/ST/STM32F1xx/Include/system_stm32f1xx.h"
 456              		.file 6 "Drivers/CMSIS/Device/ST/STM32F1xx/Include/stm32f103xe.h"
 457              		.file 7 "Drivers/CMSIS/Device/ST/STM32F1xx/Include/stm32f1xx.h"
 458              		.file 8 "Drivers/STM32F1xx_HAL_Driver/Inc/stm32f1xx_hal_def.h"
 459              		.file 9 "Drivers/STM32F1xx_HAL_Driver/Inc/stm32f1xx_hal_gpio.h"
 460              		.file 10 "Drivers/STM32F1xx_HAL_Driver/Inc/stm32f1xx_hal_dma.h"
 461              		.file 11 "Drivers/STM32F1xx_HAL_Driver/Inc/stm32f1xx_hal_adc.h"
 462              		.file 12 "Drivers/STM32F1xx_HAL_Driver/Inc/stm32f1xx_hal_tim.h"
 463              		.file 13 "Drivers/STM32F1xx_HAL_Driver/Inc/stm32f1xx_hal.h"
 464              		.file 14 "diff_signal/diff_signal_rx.h"
 465              		.file 15 "Drivers/STM32F1xx_HAL_Driver/Inc/stm32f1xx_hal_cortex.h"
ARM GAS  /tmp/cc2IpUNT.s 			page 11

