ARM GAS  /tmp/cceXbPp1.s 			page 1


   1              		.cpu cortex-m3
   2              		.eabi_attribute 20, 1
   3              		.eabi_attribute 21, 1
   4              		.eabi_attribute 23, 3
   5              		.eabi_attribute 24, 1
   6              		.eabi_attribute 25, 1
   7              		.eabi_attribute 26, 1
   8              		.eabi_attribute 30, 1
   9              		.eabi_attribute 34, 1
  10              		.eabi_attribute 18, 4
  11              		.file	"diff_signal.c"
  12              		.text
  13              	.Ltext0:
  14              		.cfi_sections	.debug_frame
  15              		.section	.text.DWT_Delay_Init,"ax",%progbits
  16              		.align	1
  17              		.global	DWT_Delay_Init
  18              		.arch armv7-m
  19              		.syntax unified
  20              		.thumb
  21              		.thumb_func
  22              		.fpu softvfp
  24              	DWT_Delay_Init:
  25              	.LFB65:
  26              		.file 1 "diff_signal/diff_signal.c"
   1:diff_signal/diff_signal.c **** #include "tim.h"
   2:diff_signal/diff_signal.c **** #include <stdint.h>
   3:diff_signal/diff_signal.c **** #include <stdlib.h>
   4:diff_signal/diff_signal.c **** #include "diff_signal.h"
   5:diff_signal/diff_signal.c **** #include "diff_signal_rx.h"
   6:diff_signal/diff_signal.c **** #include "SEGGER_RTT.h"
   7:diff_signal/diff_signal.c **** // 初始化 DWT 微秒延迟功能
   8:diff_signal/diff_signal.c **** void DWT_Delay_Init(void)
   9:diff_signal/diff_signal.c **** {
  27              		.loc 1 9 1 view -0
  28              		.cfi_startproc
  29              		@ args = 0, pretend = 0, frame = 0
  30              		@ frame_needed = 0, uses_anonymous_args = 0
  31              		@ link register save eliminated.
  10:diff_signal/diff_signal.c ****     CoreDebug->DEMCR |= CoreDebug_DEMCR_TRCENA_Msk;
  32              		.loc 1 10 5 view .LVU1
  33              		.loc 1 10 22 is_stmt 0 view .LVU2
  34 0000 064A     		ldr	r2, .L2
  35 0002 D368     		ldr	r3, [r2, #12]
  36 0004 43F08073 		orr	r3, r3, #16777216
  37 0008 D360     		str	r3, [r2, #12]
  11:diff_signal/diff_signal.c ****     DWT->CYCCNT = 0;
  38              		.loc 1 11 5 is_stmt 1 view .LVU3
  39              		.loc 1 11 17 is_stmt 0 view .LVU4
  40 000a 054B     		ldr	r3, .L2+4
  41 000c 0022     		movs	r2, #0
  42 000e 5A60     		str	r2, [r3, #4]
  12:diff_signal/diff_signal.c ****     DWT->CTRL |= DWT_CTRL_CYCCNTENA_Msk;
  43              		.loc 1 12 5 is_stmt 1 view .LVU5
  44              		.loc 1 12 15 is_stmt 0 view .LVU6
  45 0010 1A68     		ldr	r2, [r3]
  46 0012 42F00102 		orr	r2, r2, #1
ARM GAS  /tmp/cceXbPp1.s 			page 2


  47 0016 1A60     		str	r2, [r3]
  13:diff_signal/diff_signal.c **** }
  48              		.loc 1 13 1 view .LVU7
  49 0018 7047     		bx	lr
  50              	.L3:
  51 001a 00BF     		.align	2
  52              	.L2:
  53 001c F0ED00E0 		.word	-536810000
  54 0020 001000E0 		.word	-536866816
  55              		.cfi_endproc
  56              	.LFE65:
  58              		.section	.text.DWT_Delay_us,"ax",%progbits
  59              		.align	1
  60              		.global	DWT_Delay_us
  61              		.syntax unified
  62              		.thumb
  63              		.thumb_func
  64              		.fpu softvfp
  66              	DWT_Delay_us:
  67              	.LVL0:
  68              	.LFB66:
  14:diff_signal/diff_signal.c **** /**
  15:diff_signal/diff_signal.c ****  * @brief 使用dwt进行us级延时，已经验证过，没有问题；
  16:diff_signal/diff_signal.c ****  * 
  17:diff_signal/diff_signal.c ****  * @param us 
  18:diff_signal/diff_signal.c ****  */
  19:diff_signal/diff_signal.c **** void DWT_Delay_us(uint32_t us)
  20:diff_signal/diff_signal.c **** {
  69              		.loc 1 20 1 is_stmt 1 view -0
  70              		.cfi_startproc
  71              		@ args = 0, pretend = 0, frame = 0
  72              		@ frame_needed = 0, uses_anonymous_args = 0
  73              		@ link register save eliminated.
  21:diff_signal/diff_signal.c ****     uint32_t cycles = (SystemCoreClock / 1000000L) * us;
  74              		.loc 1 21 5 view .LVU9
  75              		.loc 1 21 40 is_stmt 0 view .LVU10
  76 0000 074B     		ldr	r3, .L6
  77 0002 1B68     		ldr	r3, [r3]
  78 0004 074A     		ldr	r2, .L6+4
  79 0006 A2FB0323 		umull	r2, r3, r2, r3
  80 000a 9B0C     		lsrs	r3, r3, #18
  81              		.loc 1 21 14 view .LVU11
  82 000c 00FB03F0 		mul	r0, r0, r3
  83              	.LVL1:
  22:diff_signal/diff_signal.c ****     uint32_t start = DWT->CYCCNT;
  84              		.loc 1 22 5 is_stmt 1 view .LVU12
  85              		.loc 1 22 14 is_stmt 0 view .LVU13
  86 0010 054B     		ldr	r3, .L6+8
  87 0012 5A68     		ldr	r2, [r3, #4]
  88              	.LVL2:
  23:diff_signal/diff_signal.c ****     while ((DWT->CYCCNT - start) < cycles)
  89              		.loc 1 23 5 is_stmt 1 view .LVU14
  90              	.L5:
  24:diff_signal/diff_signal.c ****         ;
  91              		.loc 1 24 9 discriminator 1 view .LVU15
  23:diff_signal/diff_signal.c ****     while ((DWT->CYCCNT - start) < cycles)
  92              		.loc 1 23 11 discriminator 1 view .LVU16
ARM GAS  /tmp/cceXbPp1.s 			page 3


  23:diff_signal/diff_signal.c ****     while ((DWT->CYCCNT - start) < cycles)
  93              		.loc 1 23 16 is_stmt 0 discriminator 1 view .LVU17
  94 0014 044B     		ldr	r3, .L6+8
  95 0016 5B68     		ldr	r3, [r3, #4]
  23:diff_signal/diff_signal.c ****     while ((DWT->CYCCNT - start) < cycles)
  96              		.loc 1 23 25 discriminator 1 view .LVU18
  97 0018 9B1A     		subs	r3, r3, r2
  23:diff_signal/diff_signal.c ****     while ((DWT->CYCCNT - start) < cycles)
  98              		.loc 1 23 11 discriminator 1 view .LVU19
  99 001a 8342     		cmp	r3, r0
 100 001c FAD3     		bcc	.L5
  25:diff_signal/diff_signal.c **** }
 101              		.loc 1 25 1 view .LVU20
 102 001e 7047     		bx	lr
 103              	.L7:
 104              		.align	2
 105              	.L6:
 106 0020 00000000 		.word	SystemCoreClock
 107 0024 83DE1B43 		.word	1125899907
 108 0028 001000E0 		.word	-536866816
 109              		.cfi_endproc
 110              	.LFE66:
 112              		.section	.text.DiffSignal_Stop,"ax",%progbits
 113              		.align	1
 114              		.global	DiffSignal_Stop
 115              		.syntax unified
 116              		.thumb
 117              		.thumb_func
 118              		.fpu softvfp
 120              	DiffSignal_Stop:
 121              	.LFB69:
  26:diff_signal/diff_signal.c **** 
  27:diff_signal/diff_signal.c **** void DiffSignal_Init(void)
  28:diff_signal/diff_signal.c **** {
  29:diff_signal/diff_signal.c ****    HAL_StatusTypeDef error =  HAL_TIM_PWM_Start(&htim1, TIM_CHANNEL_1);
  30:diff_signal/diff_signal.c ****    if(error != HAL_OK )
  31:diff_signal/diff_signal.c ****    {
  32:diff_signal/diff_signal.c ****      myprintf("tim11_pwm_start_error\n");
  33:diff_signal/diff_signal.c ****    }
  34:diff_signal/diff_signal.c ****      error = HAL_TIM_PWM_Start(&htim3, TIM_CHANNEL_2);
  35:diff_signal/diff_signal.c ****     if(error != HAL_OK)
  36:diff_signal/diff_signal.c ****     {
  37:diff_signal/diff_signal.c ****         myprintf("tim33_pwm_start_error\n");
  38:diff_signal/diff_signal.c ****     }
  39:diff_signal/diff_signal.c ****      
  40:diff_signal/diff_signal.c **** 
  41:diff_signal/diff_signal.c ****     // 反相 PA7 对应的 TIM3_CH2
  42:diff_signal/diff_signal.c ****     TIM3->CCER &= ~TIM_CCER_CC2P;
  43:diff_signal/diff_signal.c ****     TIM3->CCER |= TIM_CCER_CC2P;
  44:diff_signal/diff_signal.c **** 
  45:diff_signal/diff_signal.c ****     DiffSignal_Stop();
  46:diff_signal/diff_signal.c **** 
  47:diff_signal/diff_signal.c ****     // 启用微秒延迟模块
  48:diff_signal/diff_signal.c ****     DWT_Delay_Init();
  49:diff_signal/diff_signal.c **** }
  50:diff_signal/diff_signal.c **** 
  51:diff_signal/diff_signal.c **** void DiffSignal_Send(uint16_t duration_us)
ARM GAS  /tmp/cceXbPp1.s 			page 4


  52:diff_signal/diff_signal.c **** {
  53:diff_signal/diff_signal.c ****     uint32_t pulse = htim1.Init.Period / 2;
  54:diff_signal/diff_signal.c **** 
  55:diff_signal/diff_signal.c ****     __HAL_TIM_SET_COMPARE(&htim1, TIM_CHANNEL_1, pulse);
  56:diff_signal/diff_signal.c ****     __HAL_TIM_SET_COMPARE(&htim3, TIM_CHANNEL_2, pulse);
  57:diff_signal/diff_signal.c **** 
  58:diff_signal/diff_signal.c ****     DWT_Delay_us(duration_us);
  59:diff_signal/diff_signal.c **** 
  60:diff_signal/diff_signal.c ****     DiffSignal_Stop();
  61:diff_signal/diff_signal.c **** }
  62:diff_signal/diff_signal.c **** 
  63:diff_signal/diff_signal.c **** void DiffSignal_Stop(void)
  64:diff_signal/diff_signal.c **** {
 122              		.loc 1 64 1 is_stmt 1 view -0
 123              		.cfi_startproc
 124              		@ args = 0, pretend = 0, frame = 0
 125              		@ frame_needed = 0, uses_anonymous_args = 0
 126              		@ link register save eliminated.
  65:diff_signal/diff_signal.c ****     __HAL_TIM_SET_COMPARE(&htim1, TIM_CHANNEL_1, 0);
 127              		.loc 1 65 5 view .LVU22
 128 0000 034B     		ldr	r3, .L9
 129 0002 1A68     		ldr	r2, [r3]
 130 0004 0023     		movs	r3, #0
 131 0006 5363     		str	r3, [r2, #52]
  66:diff_signal/diff_signal.c ****     __HAL_TIM_SET_COMPARE(&htim3, TIM_CHANNEL_2, 0);
 132              		.loc 1 66 5 view .LVU23
 133 0008 024A     		ldr	r2, .L9+4
 134 000a 1268     		ldr	r2, [r2]
 135 000c 9363     		str	r3, [r2, #56]
  67:diff_signal/diff_signal.c **** }
 136              		.loc 1 67 1 is_stmt 0 view .LVU24
 137 000e 7047     		bx	lr
 138              	.L10:
 139              		.align	2
 140              	.L9:
 141 0010 00000000 		.word	htim1
 142 0014 00000000 		.word	htim3
 143              		.cfi_endproc
 144              	.LFE69:
 146              		.section	.rodata.DiffSignal_Init.str1.4,"aMS",%progbits,1
 147              		.align	2
 148              	.LC0:
 149 0000 74696D31 		.ascii	"tim11_pwm_start_error\012\000"
 149      315F7077 
 149      6D5F7374 
 149      6172745F 
 149      6572726F 
 150 0017 00       		.align	2
 151              	.LC1:
 152 0018 74696D33 		.ascii	"tim33_pwm_start_error\012\000"
 152      335F7077 
 152      6D5F7374 
 152      6172745F 
 152      6572726F 
 153              		.section	.text.DiffSignal_Init,"ax",%progbits
 154              		.align	1
 155              		.global	DiffSignal_Init
ARM GAS  /tmp/cceXbPp1.s 			page 5


 156              		.syntax unified
 157              		.thumb
 158              		.thumb_func
 159              		.fpu softvfp
 161              	DiffSignal_Init:
 162              	.LFB67:
  28:diff_signal/diff_signal.c ****    HAL_StatusTypeDef error =  HAL_TIM_PWM_Start(&htim1, TIM_CHANNEL_1);
 163              		.loc 1 28 1 is_stmt 1 view -0
 164              		.cfi_startproc
 165              		@ args = 0, pretend = 0, frame = 0
 166              		@ frame_needed = 0, uses_anonymous_args = 0
 167 0000 08B5     		push	{r3, lr}
 168              	.LCFI0:
 169              		.cfi_def_cfa_offset 8
 170              		.cfi_offset 3, -8
 171              		.cfi_offset 14, -4
  29:diff_signal/diff_signal.c ****    if(error != HAL_OK )
 172              		.loc 1 29 4 view .LVU26
  29:diff_signal/diff_signal.c ****    if(error != HAL_OK )
 173              		.loc 1 29 31 is_stmt 0 view .LVU27
 174 0002 0021     		movs	r1, #0
 175 0004 1048     		ldr	r0, .L17
 176 0006 FFF7FEFF 		bl	HAL_TIM_PWM_Start
 177              	.LVL3:
  30:diff_signal/diff_signal.c ****    {
 178              		.loc 1 30 4 is_stmt 1 view .LVU28
  30:diff_signal/diff_signal.c ****    {
 179              		.loc 1 30 6 is_stmt 0 view .LVU29
 180 000a 90B9     		cbnz	r0, .L15
 181              	.LVL4:
 182              	.L12:
  34:diff_signal/diff_signal.c ****     if(error != HAL_OK)
 183              		.loc 1 34 6 is_stmt 1 view .LVU30
  34:diff_signal/diff_signal.c ****     if(error != HAL_OK)
 184              		.loc 1 34 14 is_stmt 0 view .LVU31
 185 000c 0421     		movs	r1, #4
 186 000e 0F48     		ldr	r0, .L17+4
 187 0010 FFF7FEFF 		bl	HAL_TIM_PWM_Start
 188              	.LVL5:
  35:diff_signal/diff_signal.c ****     {
 189              		.loc 1 35 5 is_stmt 1 view .LVU32
  35:diff_signal/diff_signal.c ****     {
 190              		.loc 1 35 7 is_stmt 0 view .LVU33
 191 0014 90B9     		cbnz	r0, .L16
 192              	.LVL6:
 193              	.L13:
  42:diff_signal/diff_signal.c ****     TIM3->CCER |= TIM_CCER_CC2P;
 194              		.loc 1 42 5 is_stmt 1 view .LVU34
  42:diff_signal/diff_signal.c ****     TIM3->CCER |= TIM_CCER_CC2P;
 195              		.loc 1 42 16 is_stmt 0 view .LVU35
 196 0016 0E4B     		ldr	r3, .L17+8
 197 0018 1A6A     		ldr	r2, [r3, #32]
 198 001a 22F02002 		bic	r2, r2, #32
 199 001e 1A62     		str	r2, [r3, #32]
  43:diff_signal/diff_signal.c **** 
 200              		.loc 1 43 5 is_stmt 1 view .LVU36
  43:diff_signal/diff_signal.c **** 
ARM GAS  /tmp/cceXbPp1.s 			page 6


 201              		.loc 1 43 16 is_stmt 0 view .LVU37
 202 0020 1A6A     		ldr	r2, [r3, #32]
 203 0022 42F02002 		orr	r2, r2, #32
 204 0026 1A62     		str	r2, [r3, #32]
  45:diff_signal/diff_signal.c **** 
 205              		.loc 1 45 5 is_stmt 1 view .LVU38
 206 0028 FFF7FEFF 		bl	DiffSignal_Stop
 207              	.LVL7:
  48:diff_signal/diff_signal.c **** }
 208              		.loc 1 48 5 view .LVU39
 209 002c FFF7FEFF 		bl	DWT_Delay_Init
 210              	.LVL8:
  49:diff_signal/diff_signal.c **** 
 211              		.loc 1 49 1 is_stmt 0 view .LVU40
 212 0030 08BD     		pop	{r3, pc}
 213              	.LVL9:
 214              	.L15:
  32:diff_signal/diff_signal.c ****    }
 215              		.loc 1 32 6 is_stmt 1 view .LVU41
 216 0032 0849     		ldr	r1, .L17+12
 217 0034 0020     		movs	r0, #0
 218              	.LVL10:
  32:diff_signal/diff_signal.c ****    }
 219              		.loc 1 32 6 is_stmt 0 view .LVU42
 220 0036 FFF7FEFF 		bl	SEGGER_RTT_printf
 221              	.LVL11:
 222 003a E7E7     		b	.L12
 223              	.LVL12:
 224              	.L16:
  37:diff_signal/diff_signal.c ****     }
 225              		.loc 1 37 9 is_stmt 1 view .LVU43
 226 003c 0649     		ldr	r1, .L17+16
 227 003e 0020     		movs	r0, #0
 228              	.LVL13:
  37:diff_signal/diff_signal.c ****     }
 229              		.loc 1 37 9 is_stmt 0 view .LVU44
 230 0040 FFF7FEFF 		bl	SEGGER_RTT_printf
 231              	.LVL14:
 232 0044 E7E7     		b	.L13
 233              	.L18:
 234 0046 00BF     		.align	2
 235              	.L17:
 236 0048 00000000 		.word	htim1
 237 004c 00000000 		.word	htim3
 238 0050 00040040 		.word	1073742848
 239 0054 00000000 		.word	.LC0
 240 0058 18000000 		.word	.LC1
 241              		.cfi_endproc
 242              	.LFE67:
 244              		.section	.text.DiffSignal_Send,"ax",%progbits
 245              		.align	1
 246              		.global	DiffSignal_Send
 247              		.syntax unified
 248              		.thumb
 249              		.thumb_func
 250              		.fpu softvfp
 252              	DiffSignal_Send:
ARM GAS  /tmp/cceXbPp1.s 			page 7


 253              	.LVL15:
 254              	.LFB68:
  52:diff_signal/diff_signal.c ****     uint32_t pulse = htim1.Init.Period / 2;
 255              		.loc 1 52 1 is_stmt 1 view -0
 256              		.cfi_startproc
 257              		@ args = 0, pretend = 0, frame = 0
 258              		@ frame_needed = 0, uses_anonymous_args = 0
  52:diff_signal/diff_signal.c ****     uint32_t pulse = htim1.Init.Period / 2;
 259              		.loc 1 52 1 is_stmt 0 view .LVU46
 260 0000 08B5     		push	{r3, lr}
 261              	.LCFI1:
 262              		.cfi_def_cfa_offset 8
 263              		.cfi_offset 3, -8
 264              		.cfi_offset 14, -4
  53:diff_signal/diff_signal.c **** 
 265              		.loc 1 53 5 is_stmt 1 view .LVU47
  53:diff_signal/diff_signal.c **** 
 266              		.loc 1 53 32 is_stmt 0 view .LVU48
 267 0002 064A     		ldr	r2, .L21
 268 0004 D368     		ldr	r3, [r2, #12]
  53:diff_signal/diff_signal.c **** 
 269              		.loc 1 53 14 view .LVU49
 270 0006 5B08     		lsrs	r3, r3, #1
 271              	.LVL16:
  55:diff_signal/diff_signal.c ****     __HAL_TIM_SET_COMPARE(&htim3, TIM_CHANNEL_2, pulse);
 272              		.loc 1 55 5 is_stmt 1 view .LVU50
 273 0008 1268     		ldr	r2, [r2]
 274 000a 5363     		str	r3, [r2, #52]
  56:diff_signal/diff_signal.c **** 
 275              		.loc 1 56 5 view .LVU51
 276 000c 044A     		ldr	r2, .L21+4
 277 000e 1268     		ldr	r2, [r2]
 278 0010 9363     		str	r3, [r2, #56]
  58:diff_signal/diff_signal.c **** 
 279              		.loc 1 58 5 view .LVU52
 280 0012 FFF7FEFF 		bl	DWT_Delay_us
 281              	.LVL17:
  60:diff_signal/diff_signal.c **** }
 282              		.loc 1 60 5 view .LVU53
 283 0016 FFF7FEFF 		bl	DiffSignal_Stop
 284              	.LVL18:
  61:diff_signal/diff_signal.c **** 
 285              		.loc 1 61 1 is_stmt 0 view .LVU54
 286 001a 08BD     		pop	{r3, pc}
 287              	.L22:
 288              		.align	2
 289              	.L21:
 290 001c 00000000 		.word	htim1
 291 0020 00000000 		.word	htim3
 292              		.cfi_endproc
 293              	.LFE68:
 295              		.section	.text.DiffSignal_Senddata,"ax",%progbits
 296              		.align	1
 297              		.global	DiffSignal_Senddata
 298              		.syntax unified
 299              		.thumb
 300              		.thumb_func
ARM GAS  /tmp/cceXbPp1.s 			page 8


 301              		.fpu softvfp
 303              	DiffSignal_Senddata:
 304              	.LVL19:
 305              	.LFB70:
  68:diff_signal/diff_signal.c **** 
  69:diff_signal/diff_signal.c **** void DiffSignal_Senddata(uint8_t *data, uint16_t length)
  70:diff_signal/diff_signal.c **** {
 306              		.loc 1 70 1 is_stmt 1 view -0
 307              		.cfi_startproc
 308              		@ args = 0, pretend = 0, frame = 0
 309              		@ frame_needed = 0, uses_anonymous_args = 0
 310              		.loc 1 70 1 is_stmt 0 view .LVU56
 311 0000 2DE9F041 		push	{r4, r5, r6, r7, r8, lr}
 312              	.LCFI2:
 313              		.cfi_def_cfa_offset 24
 314              		.cfi_offset 4, -24
 315              		.cfi_offset 5, -20
 316              		.cfi_offset 6, -16
 317              		.cfi_offset 7, -12
 318              		.cfi_offset 8, -8
 319              		.cfi_offset 14, -4
 320 0004 8046     		mov	r8, r0
 321 0006 0F46     		mov	r7, r1
  71:diff_signal/diff_signal.c ****     for (uint16_t i = 0; i < length; i++)
 322              		.loc 1 71 5 is_stmt 1 view .LVU57
 323              	.LBB2:
 324              		.loc 1 71 10 view .LVU58
 325              	.LVL20:
 326              		.loc 1 71 19 is_stmt 0 view .LVU59
 327 0008 0026     		movs	r6, #0
 328              		.loc 1 71 5 view .LVU60
 329 000a 13E0     		b	.L24
 330              	.LVL21:
 331              	.L26:
 332              	.LBB3:
 333              	.LBB4:
  72:diff_signal/diff_signal.c ****     {
  73:diff_signal/diff_signal.c ****         uint8_t byte = data[i];
  74:diff_signal/diff_signal.c **** 
  75:diff_signal/diff_signal.c ****         // 起始位 0
  76:diff_signal/diff_signal.c ****         DWT_Delay_us(BIT_DURATION_US); 
  77:diff_signal/diff_signal.c ****  
  78:diff_signal/diff_signal.c ****         for (int bit = 0; bit < 8; bit++)
  79:diff_signal/diff_signal.c ****         {
  80:diff_signal/diff_signal.c ****             if ((byte >> bit) & 0x01)
  81:diff_signal/diff_signal.c ****             {
  82:diff_signal/diff_signal.c ****                 DiffSignal_Send(BIT_DURATION_US);
  83:diff_signal/diff_signal.c ****             }
  84:diff_signal/diff_signal.c ****             else
  85:diff_signal/diff_signal.c ****             {
  86:diff_signal/diff_signal.c ****                 DWT_Delay_us(BIT_DURATION_US);
 334              		.loc 1 86 17 is_stmt 1 view .LVU61
 335 000c D020     		movs	r0, #208
 336 000e FFF7FEFF 		bl	DWT_Delay_us
 337              	.LVL22:
 338              	.L27:
  78:diff_signal/diff_signal.c ****         {
ARM GAS  /tmp/cceXbPp1.s 			page 9


 339              		.loc 1 78 36 discriminator 2 view .LVU62
  78:diff_signal/diff_signal.c ****         {
 340              		.loc 1 78 39 is_stmt 0 discriminator 2 view .LVU63
 341 0012 0134     		adds	r4, r4, #1
 342              	.LVL23:
 343              	.L25:
  78:diff_signal/diff_signal.c ****         {
 344              		.loc 1 78 27 is_stmt 1 discriminator 1 view .LVU64
  78:diff_signal/diff_signal.c ****         {
 345              		.loc 1 78 9 is_stmt 0 discriminator 1 view .LVU65
 346 0014 072C     		cmp	r4, #7
 347 0016 08DC     		bgt	.L31
  80:diff_signal/diff_signal.c ****             {
 348              		.loc 1 80 13 is_stmt 1 view .LVU66
  80:diff_signal/diff_signal.c ****             {
 349              		.loc 1 80 23 is_stmt 0 view .LVU67
 350 0018 45FA04F3 		asr	r3, r5, r4
  80:diff_signal/diff_signal.c ****             {
 351              		.loc 1 80 16 view .LVU68
 352 001c 13F0010F 		tst	r3, #1
 353 0020 F4D0     		beq	.L26
  82:diff_signal/diff_signal.c ****             }
 354              		.loc 1 82 17 is_stmt 1 view .LVU69
 355 0022 D020     		movs	r0, #208
 356 0024 FFF7FEFF 		bl	DiffSignal_Send
 357              	.LVL24:
 358 0028 F3E7     		b	.L27
 359              	.L31:
 360              	.LBE4:
  87:diff_signal/diff_signal.c ****             }
  88:diff_signal/diff_signal.c ****         }
  89:diff_signal/diff_signal.c ****         // 停止位 1
  90:diff_signal/diff_signal.c ****         DiffSignal_Send(BIT_DURATION_US);
 361              		.loc 1 90 9 discriminator 2 view .LVU70
 362 002a D020     		movs	r0, #208
 363 002c FFF7FEFF 		bl	DiffSignal_Send
 364              	.LVL25:
 365              	.LBE3:
  71:diff_signal/diff_signal.c ****     {
 366              		.loc 1 71 38 discriminator 2 view .LVU71
  71:diff_signal/diff_signal.c ****     {
 367              		.loc 1 71 39 is_stmt 0 discriminator 2 view .LVU72
 368 0030 0136     		adds	r6, r6, #1
 369              	.LVL26:
  71:diff_signal/diff_signal.c ****     {
 370              		.loc 1 71 39 discriminator 2 view .LVU73
 371 0032 B6B2     		uxth	r6, r6
 372              	.LVL27:
 373              	.L24:
  71:diff_signal/diff_signal.c ****     {
 374              		.loc 1 71 26 is_stmt 1 discriminator 1 view .LVU74
  71:diff_signal/diff_signal.c ****     {
 375              		.loc 1 71 5 is_stmt 0 discriminator 1 view .LVU75
 376 0034 BE42     		cmp	r6, r7
 377 0036 06D2     		bcs	.L32
 378              	.LBB6:
  73:diff_signal/diff_signal.c **** 
ARM GAS  /tmp/cceXbPp1.s 			page 10


 379              		.loc 1 73 9 is_stmt 1 view .LVU76
  73:diff_signal/diff_signal.c **** 
 380              		.loc 1 73 17 is_stmt 0 view .LVU77
 381 0038 18F80650 		ldrb	r5, [r8, r6]	@ zero_extendqisi2
 382              	.LVL28:
  76:diff_signal/diff_signal.c ****  
 383              		.loc 1 76 9 is_stmt 1 view .LVU78
 384 003c D020     		movs	r0, #208
 385 003e FFF7FEFF 		bl	DWT_Delay_us
 386              	.LVL29:
  78:diff_signal/diff_signal.c ****         {
 387              		.loc 1 78 9 view .LVU79
 388              	.LBB5:
  78:diff_signal/diff_signal.c ****         {
 389              		.loc 1 78 14 view .LVU80
  78:diff_signal/diff_signal.c ****         {
 390              		.loc 1 78 18 is_stmt 0 view .LVU81
 391 0042 0024     		movs	r4, #0
  78:diff_signal/diff_signal.c ****         {
 392              		.loc 1 78 9 view .LVU82
 393 0044 E6E7     		b	.L25
 394              	.LVL30:
 395              	.L32:
  78:diff_signal/diff_signal.c ****         {
 396              		.loc 1 78 9 view .LVU83
 397              	.LBE5:
 398              	.LBE6:
 399              	.LBE2:
  91:diff_signal/diff_signal.c ****     }
  92:diff_signal/diff_signal.c **** }
 400              		.loc 1 92 1 view .LVU84
 401 0046 BDE8F081 		pop	{r4, r5, r6, r7, r8, pc}
 402              		.loc 1 92 1 view .LVU85
 403              		.cfi_endproc
 404              	.LFE70:
 406              		.text
 407              	.Letext0:
 408              		.file 2 "/opt/gcc-arm-none-eabi-9-2020-q2-update/arm-none-eabi/include/machine/_default_types.h"
 409              		.file 3 "/opt/gcc-arm-none-eabi-9-2020-q2-update/arm-none-eabi/include/sys/_stdint.h"
 410              		.file 4 "Drivers/CMSIS/Include/core_cm3.h"
 411              		.file 5 "Drivers/CMSIS/Device/ST/STM32F1xx/Include/system_stm32f1xx.h"
 412              		.file 6 "Drivers/CMSIS/Device/ST/STM32F1xx/Include/stm32f103xe.h"
 413              		.file 7 "Drivers/CMSIS/Device/ST/STM32F1xx/Include/stm32f1xx.h"
 414              		.file 8 "Drivers/STM32F1xx_HAL_Driver/Inc/stm32f1xx_hal_def.h"
 415              		.file 9 "Drivers/STM32F1xx_HAL_Driver/Inc/stm32f1xx_hal_dma.h"
 416              		.file 10 "Drivers/STM32F1xx_HAL_Driver/Inc/stm32f1xx_hal_adc.h"
 417              		.file 11 "Drivers/STM32F1xx_HAL_Driver/Inc/stm32f1xx_hal_tim.h"
 418              		.file 12 "Drivers/STM32F1xx_HAL_Driver/Inc/stm32f1xx_hal.h"
 419              		.file 13 "Core/Inc/tim.h"
 420              		.file 14 "/opt/gcc-arm-none-eabi-9-2020-q2-update/lib/gcc/arm-none-eabi/9.3.1/include/stddef.h"
 421              		.file 15 "/opt/gcc-arm-none-eabi-9-2020-q2-update/arm-none-eabi/include/sys/_types.h"
 422              		.file 16 "/opt/gcc-arm-none-eabi-9-2020-q2-update/arm-none-eabi/include/sys/reent.h"
 423              		.file 17 "/opt/gcc-arm-none-eabi-9-2020-q2-update/arm-none-eabi/include/sys/lock.h"
 424              		.file 18 "/opt/gcc-arm-none-eabi-9-2020-q2-update/arm-none-eabi/include/stdlib.h"
 425              		.file 19 "diff_signal/diff_signal_rx.h"
 426              		.file 20 "ARM_SEGGER_RTT/SEGGER_RTT.h"
ARM GAS  /tmp/cceXbPp1.s 			page 11


DEFINED SYMBOLS
                            *ABS*:0000000000000000 diff_signal.c
     /tmp/cceXbPp1.s:16     .text.DWT_Delay_Init:0000000000000000 $t
     /tmp/cceXbPp1.s:24     .text.DWT_Delay_Init:0000000000000000 DWT_Delay_Init
     /tmp/cceXbPp1.s:53     .text.DWT_Delay_Init:000000000000001c $d
     /tmp/cceXbPp1.s:59     .text.DWT_Delay_us:0000000000000000 $t
     /tmp/cceXbPp1.s:66     .text.DWT_Delay_us:0000000000000000 DWT_Delay_us
     /tmp/cceXbPp1.s:106    .text.DWT_Delay_us:0000000000000020 $d
     /tmp/cceXbPp1.s:113    .text.DiffSignal_Stop:0000000000000000 $t
     /tmp/cceXbPp1.s:120    .text.DiffSignal_Stop:0000000000000000 DiffSignal_Stop
     /tmp/cceXbPp1.s:141    .text.DiffSignal_Stop:0000000000000010 $d
     /tmp/cceXbPp1.s:147    .rodata.DiffSignal_Init.str1.4:0000000000000000 $d
     /tmp/cceXbPp1.s:154    .text.DiffSignal_Init:0000000000000000 $t
     /tmp/cceXbPp1.s:161    .text.DiffSignal_Init:0000000000000000 DiffSignal_Init
     /tmp/cceXbPp1.s:236    .text.DiffSignal_Init:0000000000000048 $d
     /tmp/cceXbPp1.s:245    .text.DiffSignal_Send:0000000000000000 $t
     /tmp/cceXbPp1.s:252    .text.DiffSignal_Send:0000000000000000 DiffSignal_Send
     /tmp/cceXbPp1.s:290    .text.DiffSignal_Send:000000000000001c $d
     /tmp/cceXbPp1.s:296    .text.DiffSignal_Senddata:0000000000000000 $t
     /tmp/cceXbPp1.s:303    .text.DiffSignal_Senddata:0000000000000000 DiffSignal_Senddata

UNDEFINED SYMBOLS
SystemCoreClock
htim1
htim3
HAL_TIM_PWM_Start
SEGGER_RTT_printf
