ARM GAS  /tmp/ccUdKceP.s 			page 1


   1              		.cpu cortex-m3
   2              		.eabi_attribute 20, 1
   3              		.eabi_attribute 21, 1
   4              		.eabi_attribute 23, 3
   5              		.eabi_attribute 24, 1
   6              		.eabi_attribute 25, 1
   7              		.eabi_attribute 26, 1
   8              		.eabi_attribute 30, 1
   9              		.eabi_attribute 34, 1
  10              		.eabi_attribute 18, 4
  11              		.file	"eeprom.c"
  12              		.text
  13              	.Ltext0:
  14              		.cfi_sections	.debug_frame
  15              		.section	.text._StartCondition,"ax",%progbits
  16              		.align	1
  17              		.arch armv7-m
  18              		.syntax unified
  19              		.thumb
  20              		.thumb_func
  21              		.fpu softvfp
  23              	_StartCondition:
  24              	.LFB67:
  25              		.file 1 "sensor_device/eeprom.c"
   1:sensor_device/eeprom.c **** /* eeprom93lc66a.c */
   2:sensor_device/eeprom.c **** #include "eeprom.h"
   3:sensor_device/eeprom.c **** #include "diff_signal.h"
   4:sensor_device/eeprom.c **** #include "SEGGER_RTT.h"
   5:sensor_device/eeprom.c **** static void _Delay_us(void)
   6:sensor_device/eeprom.c **** {
   7:sensor_device/eeprom.c ****     // DWT_Delay_us(1);
   8:sensor_device/eeprom.c ****     // 简单软件延时，需根据实际时钟微调
   9:sensor_device/eeprom.c ****     
  10:sensor_device/eeprom.c **** }
  11:sensor_device/eeprom.c **** 
  12:sensor_device/eeprom.c **** // 以下四个宏封装最底层引脚操作
  13:sensor_device/eeprom.c **** #define CS_HIGH()    HAL_GPIO_WritePin(EEPROM_CS_GPIO_Port,  EEPROM_CS_Pin,   GPIO_PIN_SET)
  14:sensor_device/eeprom.c **** #define CS_LOW()     HAL_GPIO_WritePin(EEPROM_CS_GPIO_Port,  EEPROM_CS_Pin,   GPIO_PIN_RESET)
  15:sensor_device/eeprom.c **** #define CLK_HIGH()   HAL_GPIO_WritePin(EEPROM_CLK_GPIO_Port, EEPROM_CLK_Pin,  GPIO_PIN_SET)
  16:sensor_device/eeprom.c **** #define CLK_LOW()    HAL_GPIO_WritePin(EEPROM_CLK_GPIO_Port, EEPROM_CLK_Pin,  GPIO_PIN_RESET)
  17:sensor_device/eeprom.c **** #define DI_HIGH()    HAL_GPIO_WritePin(EEPROM_DI_GPIO_Port,  EEPROM_DI_Pin,   GPIO_PIN_SET)
  18:sensor_device/eeprom.c **** #define DI_LOW()     HAL_GPIO_WritePin(EEPROM_DI_GPIO_Port,  EEPROM_DI_Pin,   GPIO_PIN_RESET)
  19:sensor_device/eeprom.c **** #define DO_READ()    HAL_GPIO_ReadPin(EEPROM_DO_GPIO_Port,   EEPROM_DO_Pin)
  20:sensor_device/eeprom.c **** 
  21:sensor_device/eeprom.c **** /** @brief 初始化 GPIO */
  22:sensor_device/eeprom.c **** void EEPROM_Init(void)
  23:sensor_device/eeprom.c **** {
  24:sensor_device/eeprom.c ****     GPIO_InitTypeDef GPIO_Init = {0};
  25:sensor_device/eeprom.c ****     __HAL_RCC_GPIOA_CLK_ENABLE();
  26:sensor_device/eeprom.c ****     __HAL_RCC_GPIOB_CLK_ENABLE();
  27:sensor_device/eeprom.c ****     // CS, CLK, DI 输出
  28:sensor_device/eeprom.c ****     GPIO_Init.Pin   = EEPROM_CS_Pin | EEPROM_CLK_Pin | EEPROM_DI_Pin;
  29:sensor_device/eeprom.c ****     GPIO_Init.Mode  = GPIO_MODE_OUTPUT_PP;
  30:sensor_device/eeprom.c ****     GPIO_Init.Speed = GPIO_SPEED_FREQ_HIGH;
  31:sensor_device/eeprom.c ****     HAL_GPIO_Init(EEPROM_CS_GPIO_Port, &GPIO_Init);
  32:sensor_device/eeprom.c ****      HAL_GPIO_WritePin(EEPROM_DI_GPIO_Port,  EEPROM_DI_Pin,  GPIO_PIN_RESET);
  33:sensor_device/eeprom.c **** 
ARM GAS  /tmp/ccUdKceP.s 			page 2


  34:sensor_device/eeprom.c ****     // DO 输入
  35:sensor_device/eeprom.c ****     GPIO_Init.Pin  = EEPROM_DO_Pin;
  36:sensor_device/eeprom.c ****     GPIO_Init.Mode = GPIO_MODE_INPUT;
  37:sensor_device/eeprom.c ****     GPIO_Init.Pull = GPIO_NOPULL;
  38:sensor_device/eeprom.c ****     HAL_GPIO_Init(EEPROM_DO_GPIO_Port, &GPIO_Init);
  39:sensor_device/eeprom.c ****     HAL_Delay(1);
  40:sensor_device/eeprom.c ****     // 复位引脚状态
  41:sensor_device/eeprom.c ****     CS_LOW();
  42:sensor_device/eeprom.c ****     CLK_LOW();
  43:sensor_device/eeprom.c ****     DI_LOW();
  44:sensor_device/eeprom.c **** }
  45:sensor_device/eeprom.c **** 
  46:sensor_device/eeprom.c **** /** @brief 生成“Start”条件（SB=1） */
  47:sensor_device/eeprom.c **** static void _StartCondition(void)
  48:sensor_device/eeprom.c **** {
  26              		.loc 1 48 1 view -0
  27              		.cfi_startproc
  28              		@ args = 0, pretend = 0, frame = 0
  29              		@ frame_needed = 0, uses_anonymous_args = 0
  30 0000 10B5     		push	{r4, lr}
  31              	.LCFI0:
  32              		.cfi_def_cfa_offset 8
  33              		.cfi_offset 4, -8
  34              		.cfi_offset 14, -4
  49:sensor_device/eeprom.c ****     CS_LOW();
  35              		.loc 1 49 5 view .LVU1
  36 0002 104C     		ldr	r4, .L3
  37 0004 0022     		movs	r2, #0
  38 0006 1021     		movs	r1, #16
  39 0008 2046     		mov	r0, r4
  40 000a FFF7FEFF 		bl	HAL_GPIO_WritePin
  41              	.LVL0:
  50:sensor_device/eeprom.c ****     CLK_LOW();
  42              		.loc 1 50 5 view .LVU2
  43 000e 0022     		movs	r2, #0
  44 0010 2021     		movs	r1, #32
  45 0012 2046     		mov	r0, r4
  46 0014 FFF7FEFF 		bl	HAL_GPIO_WritePin
  47              	.LVL1:
  51:sensor_device/eeprom.c ****     DI_HIGH();      // DI=1
  48              		.loc 1 51 5 view .LVU3
  49 0018 0122     		movs	r2, #1
  50 001a 2021     		movs	r1, #32
  51 001c 0A48     		ldr	r0, .L3+4
  52 001e FFF7FEFF 		bl	HAL_GPIO_WritePin
  53              	.LVL2:
  52:sensor_device/eeprom.c ****     _Delay_us();
  54              		.loc 1 52 5 view .LVU4
  53:sensor_device/eeprom.c ****     CS_HIGH();      // CS 上升
  55              		.loc 1 53 5 view .LVU5
  56 0022 0122     		movs	r2, #1
  57 0024 1021     		movs	r1, #16
  58 0026 2046     		mov	r0, r4
  59 0028 FFF7FEFF 		bl	HAL_GPIO_WritePin
  60              	.LVL3:
  54:sensor_device/eeprom.c ****     _Delay_us();
  61              		.loc 1 54 5 view .LVU6
ARM GAS  /tmp/ccUdKceP.s 			page 3


  55:sensor_device/eeprom.c ****     CLK_HIGH();     // 首次 CLK 上升沿检测 SB
  62              		.loc 1 55 5 view .LVU7
  63 002c 0122     		movs	r2, #1
  64 002e 2021     		movs	r1, #32
  65 0030 2046     		mov	r0, r4
  66 0032 FFF7FEFF 		bl	HAL_GPIO_WritePin
  67              	.LVL4:
  56:sensor_device/eeprom.c ****     _Delay_us();
  68              		.loc 1 56 5 view .LVU8
  57:sensor_device/eeprom.c ****     CLK_LOW();
  69              		.loc 1 57 5 view .LVU9
  70 0036 0022     		movs	r2, #0
  71 0038 2021     		movs	r1, #32
  72 003a 2046     		mov	r0, r4
  73 003c FFF7FEFF 		bl	HAL_GPIO_WritePin
  74              	.LVL5:
  58:sensor_device/eeprom.c ****     _Delay_us();
  75              		.loc 1 58 5 view .LVU10
  59:sensor_device/eeprom.c **** }
  76              		.loc 1 59 1 is_stmt 0 view .LVU11
  77 0040 10BD     		pop	{r4, pc}
  78              	.L4:
  79 0042 00BF     		.align	2
  80              	.L3:
  81 0044 00080140 		.word	1073809408
  82 0048 000C0140 		.word	1073810432
  83              		.cfi_endproc
  84              	.LFE67:
  86              		.section	.text._SendBit,"ax",%progbits
  87              		.align	1
  88              		.syntax unified
  89              		.thumb
  90              		.thumb_func
  91              		.fpu softvfp
  93              	_SendBit:
  94              	.LVL6:
  95              	.LFB68:
  60:sensor_device/eeprom.c **** 
  61:sensor_device/eeprom.c **** /** @brief 发送一位数据 */
  62:sensor_device/eeprom.c **** static void _SendBit(uint8_t bit)
  63:sensor_device/eeprom.c **** {
  96              		.loc 1 63 1 is_stmt 1 view -0
  97              		.cfi_startproc
  98              		@ args = 0, pretend = 0, frame = 0
  99              		@ frame_needed = 0, uses_anonymous_args = 0
 100              		.loc 1 63 1 is_stmt 0 view .LVU13
 101 0000 10B5     		push	{r4, lr}
 102              	.LCFI1:
 103              		.cfi_def_cfa_offset 8
 104              		.cfi_offset 4, -8
 105              		.cfi_offset 14, -4
  64:sensor_device/eeprom.c ****     if (bit) DI_HIGH(); else DI_LOW();
 106              		.loc 1 64 5 is_stmt 1 view .LVU14
 107              		.loc 1 64 8 is_stmt 0 view .LVU15
 108 0002 80B1     		cbz	r0, .L6
 109              		.loc 1 64 14 is_stmt 1 discriminator 1 view .LVU16
 110 0004 0122     		movs	r2, #1
ARM GAS  /tmp/ccUdKceP.s 			page 4


 111 0006 2021     		movs	r1, #32
 112 0008 0A48     		ldr	r0, .L9
 113              	.LVL7:
 114              		.loc 1 64 14 is_stmt 0 discriminator 1 view .LVU17
 115 000a FFF7FEFF 		bl	HAL_GPIO_WritePin
 116              	.LVL8:
 117              	.L7:
  65:sensor_device/eeprom.c ****     _Delay_us();
 118              		.loc 1 65 5 is_stmt 1 view .LVU18
  66:sensor_device/eeprom.c ****     CLK_HIGH();
 119              		.loc 1 66 5 view .LVU19
 120 000e 0A4C     		ldr	r4, .L9+4
 121 0010 0122     		movs	r2, #1
 122 0012 2021     		movs	r1, #32
 123 0014 2046     		mov	r0, r4
 124 0016 FFF7FEFF 		bl	HAL_GPIO_WritePin
 125              	.LVL9:
  67:sensor_device/eeprom.c ****     _Delay_us();
 126              		.loc 1 67 5 view .LVU20
  68:sensor_device/eeprom.c ****     CLK_LOW();
 127              		.loc 1 68 5 view .LVU21
 128 001a 0022     		movs	r2, #0
 129 001c 2021     		movs	r1, #32
 130 001e 2046     		mov	r0, r4
 131 0020 FFF7FEFF 		bl	HAL_GPIO_WritePin
 132              	.LVL10:
  69:sensor_device/eeprom.c ****     _Delay_us();
 133              		.loc 1 69 5 view .LVU22
  70:sensor_device/eeprom.c **** }
 134              		.loc 1 70 1 is_stmt 0 view .LVU23
 135 0024 10BD     		pop	{r4, pc}
 136              	.LVL11:
 137              	.L6:
  64:sensor_device/eeprom.c ****     _Delay_us();
 138              		.loc 1 64 30 is_stmt 1 discriminator 2 view .LVU24
 139 0026 0022     		movs	r2, #0
 140 0028 2021     		movs	r1, #32
 141 002a 0248     		ldr	r0, .L9
 142              	.LVL12:
  64:sensor_device/eeprom.c ****     _Delay_us();
 143              		.loc 1 64 30 is_stmt 0 discriminator 2 view .LVU25
 144 002c FFF7FEFF 		bl	HAL_GPIO_WritePin
 145              	.LVL13:
 146 0030 EDE7     		b	.L7
 147              	.L10:
 148 0032 00BF     		.align	2
 149              	.L9:
 150 0034 000C0140 		.word	1073810432
 151 0038 00080140 		.word	1073809408
 152              		.cfi_endproc
 153              	.LFE68:
 155              		.section	.text._ReadBit,"ax",%progbits
 156              		.align	1
 157              		.syntax unified
 158              		.thumb
 159              		.thumb_func
 160              		.fpu softvfp
ARM GAS  /tmp/ccUdKceP.s 			page 5


 162              	_ReadBit:
 163              	.LFB69:
  71:sensor_device/eeprom.c **** 
  72:sensor_device/eeprom.c **** /** @brief 读取一位数据 */
  73:sensor_device/eeprom.c **** static uint8_t _ReadBit(void)
  74:sensor_device/eeprom.c **** {
 164              		.loc 1 74 1 is_stmt 1 view -0
 165              		.cfi_startproc
 166              		@ args = 0, pretend = 0, frame = 0
 167              		@ frame_needed = 0, uses_anonymous_args = 0
 168 0000 38B5     		push	{r3, r4, r5, lr}
 169              	.LCFI2:
 170              		.cfi_def_cfa_offset 16
 171              		.cfi_offset 3, -16
 172              		.cfi_offset 4, -12
 173              		.cfi_offset 5, -8
 174              		.cfi_offset 14, -4
  75:sensor_device/eeprom.c ****     _Delay_us();
 175              		.loc 1 75 5 view .LVU27
  76:sensor_device/eeprom.c ****     CLK_HIGH();
 176              		.loc 1 76 5 view .LVU28
 177 0002 0A4D     		ldr	r5, .L13
 178 0004 0122     		movs	r2, #1
 179 0006 2021     		movs	r1, #32
 180 0008 2846     		mov	r0, r5
 181 000a FFF7FEFF 		bl	HAL_GPIO_WritePin
 182              	.LVL14:
  77:sensor_device/eeprom.c ****     _Delay_us();
 183              		.loc 1 77 5 view .LVU29
  78:sensor_device/eeprom.c ****     uint8_t b = (DO_READ() == GPIO_PIN_SET) ? 1 : 0;
 184              		.loc 1 78 5 view .LVU30
 185              		.loc 1 78 18 is_stmt 0 view .LVU31
 186 000e 4021     		movs	r1, #64
 187 0010 2846     		mov	r0, r5
 188 0012 FFF7FEFF 		bl	HAL_GPIO_ReadPin
 189              	.LVL15:
 190              		.loc 1 78 49 view .LVU32
 191 0016 0128     		cmp	r0, #1
 192 0018 14BF     		ite	ne
 193 001a 0024     		movne	r4, #0
 194 001c 0124     		moveq	r4, #1
 195              	.LVL16:
  79:sensor_device/eeprom.c ****     CLK_LOW();
 196              		.loc 1 79 5 is_stmt 1 view .LVU33
 197 001e 0022     		movs	r2, #0
 198 0020 2021     		movs	r1, #32
 199 0022 2846     		mov	r0, r5
 200 0024 FFF7FEFF 		bl	HAL_GPIO_WritePin
 201              	.LVL17:
  80:sensor_device/eeprom.c ****     _Delay_us();
 202              		.loc 1 80 5 view .LVU34
  81:sensor_device/eeprom.c ****     return b;
 203              		.loc 1 81 5 view .LVU35
  82:sensor_device/eeprom.c **** }
 204              		.loc 1 82 1 is_stmt 0 view .LVU36
 205 0028 2046     		mov	r0, r4
 206 002a 38BD     		pop	{r3, r4, r5, pc}
ARM GAS  /tmp/ccUdKceP.s 			page 6


 207              	.LVL18:
 208              	.L14:
 209              		.loc 1 82 1 view .LVU37
 210              		.align	2
 211              	.L13:
 212 002c 00080140 		.word	1073809408
 213              		.cfi_endproc
 214              	.LFE69:
 216              		.section	.text.EEPROM_Init,"ax",%progbits
 217              		.align	1
 218              		.global	EEPROM_Init
 219              		.syntax unified
 220              		.thumb
 221              		.thumb_func
 222              		.fpu softvfp
 224              	EEPROM_Init:
 225              	.LFB66:
  23:sensor_device/eeprom.c ****     GPIO_InitTypeDef GPIO_Init = {0};
 226              		.loc 1 23 1 is_stmt 1 view -0
 227              		.cfi_startproc
 228              		@ args = 0, pretend = 0, frame = 24
 229              		@ frame_needed = 0, uses_anonymous_args = 0
 230 0000 F0B5     		push	{r4, r5, r6, r7, lr}
 231              	.LCFI3:
 232              		.cfi_def_cfa_offset 20
 233              		.cfi_offset 4, -20
 234              		.cfi_offset 5, -16
 235              		.cfi_offset 6, -12
 236              		.cfi_offset 7, -8
 237              		.cfi_offset 14, -4
 238 0002 87B0     		sub	sp, sp, #28
 239              	.LCFI4:
 240              		.cfi_def_cfa_offset 48
  24:sensor_device/eeprom.c ****     __HAL_RCC_GPIOA_CLK_ENABLE();
 241              		.loc 1 24 5 view .LVU39
  24:sensor_device/eeprom.c ****     __HAL_RCC_GPIOA_CLK_ENABLE();
 242              		.loc 1 24 22 is_stmt 0 view .LVU40
 243 0004 0024     		movs	r4, #0
 244 0006 0494     		str	r4, [sp, #16]
  25:sensor_device/eeprom.c ****     __HAL_RCC_GPIOB_CLK_ENABLE();
 245              		.loc 1 25 5 is_stmt 1 view .LVU41
 246              	.LBB2:
  25:sensor_device/eeprom.c ****     __HAL_RCC_GPIOB_CLK_ENABLE();
 247              		.loc 1 25 5 view .LVU42
  25:sensor_device/eeprom.c ****     __HAL_RCC_GPIOB_CLK_ENABLE();
 248              		.loc 1 25 5 view .LVU43
 249 0008 1F4B     		ldr	r3, .L17
 250 000a 9A69     		ldr	r2, [r3, #24]
 251 000c 42F00402 		orr	r2, r2, #4
 252 0010 9A61     		str	r2, [r3, #24]
  25:sensor_device/eeprom.c ****     __HAL_RCC_GPIOB_CLK_ENABLE();
 253              		.loc 1 25 5 view .LVU44
 254 0012 9A69     		ldr	r2, [r3, #24]
 255 0014 02F00402 		and	r2, r2, #4
 256 0018 0092     		str	r2, [sp]
  25:sensor_device/eeprom.c ****     __HAL_RCC_GPIOB_CLK_ENABLE();
 257              		.loc 1 25 5 view .LVU45
ARM GAS  /tmp/ccUdKceP.s 			page 7


 258 001a 009A     		ldr	r2, [sp]
 259              	.LBE2:
  25:sensor_device/eeprom.c ****     __HAL_RCC_GPIOB_CLK_ENABLE();
 260              		.loc 1 25 5 view .LVU46
  26:sensor_device/eeprom.c ****     // CS, CLK, DI 输出
 261              		.loc 1 26 5 view .LVU47
 262              	.LBB3:
  26:sensor_device/eeprom.c ****     // CS, CLK, DI 输出
 263              		.loc 1 26 5 view .LVU48
  26:sensor_device/eeprom.c ****     // CS, CLK, DI 输出
 264              		.loc 1 26 5 view .LVU49
 265 001c 9A69     		ldr	r2, [r3, #24]
 266 001e 42F00802 		orr	r2, r2, #8
 267 0022 9A61     		str	r2, [r3, #24]
  26:sensor_device/eeprom.c ****     // CS, CLK, DI 输出
 268              		.loc 1 26 5 view .LVU50
 269 0024 9B69     		ldr	r3, [r3, #24]
 270 0026 03F00803 		and	r3, r3, #8
 271 002a 0193     		str	r3, [sp, #4]
  26:sensor_device/eeprom.c ****     // CS, CLK, DI 输出
 272              		.loc 1 26 5 view .LVU51
 273 002c 019B     		ldr	r3, [sp, #4]
 274              	.LBE3:
  26:sensor_device/eeprom.c ****     // CS, CLK, DI 输出
 275              		.loc 1 26 5 view .LVU52
  28:sensor_device/eeprom.c ****     GPIO_Init.Mode  = GPIO_MODE_OUTPUT_PP;
 276              		.loc 1 28 5 view .LVU53
  28:sensor_device/eeprom.c ****     GPIO_Init.Mode  = GPIO_MODE_OUTPUT_PP;
 277              		.loc 1 28 21 is_stmt 0 view .LVU54
 278 002e 3023     		movs	r3, #48
 279 0030 0293     		str	r3, [sp, #8]
  29:sensor_device/eeprom.c ****     GPIO_Init.Speed = GPIO_SPEED_FREQ_HIGH;
 280              		.loc 1 29 5 is_stmt 1 view .LVU55
  29:sensor_device/eeprom.c ****     GPIO_Init.Speed = GPIO_SPEED_FREQ_HIGH;
 281              		.loc 1 29 21 is_stmt 0 view .LVU56
 282 0032 0127     		movs	r7, #1
 283 0034 0397     		str	r7, [sp, #12]
  30:sensor_device/eeprom.c ****     HAL_GPIO_Init(EEPROM_CS_GPIO_Port, &GPIO_Init);
 284              		.loc 1 30 5 is_stmt 1 view .LVU57
  30:sensor_device/eeprom.c ****     HAL_GPIO_Init(EEPROM_CS_GPIO_Port, &GPIO_Init);
 285              		.loc 1 30 21 is_stmt 0 view .LVU58
 286 0036 0323     		movs	r3, #3
 287 0038 0593     		str	r3, [sp, #20]
  31:sensor_device/eeprom.c ****      HAL_GPIO_WritePin(EEPROM_DI_GPIO_Port,  EEPROM_DI_Pin,  GPIO_PIN_RESET);
 288              		.loc 1 31 5 is_stmt 1 view .LVU59
 289 003a 144D     		ldr	r5, .L17+4
 290 003c 02A9     		add	r1, sp, #8
 291 003e 2846     		mov	r0, r5
 292 0040 FFF7FEFF 		bl	HAL_GPIO_Init
 293              	.LVL19:
  32:sensor_device/eeprom.c **** 
 294              		.loc 1 32 6 view .LVU60
 295 0044 124E     		ldr	r6, .L17+8
 296 0046 2246     		mov	r2, r4
 297 0048 2021     		movs	r1, #32
 298 004a 3046     		mov	r0, r6
 299 004c FFF7FEFF 		bl	HAL_GPIO_WritePin
ARM GAS  /tmp/ccUdKceP.s 			page 8


 300              	.LVL20:
  35:sensor_device/eeprom.c ****     GPIO_Init.Mode = GPIO_MODE_INPUT;
 301              		.loc 1 35 5 view .LVU61
  35:sensor_device/eeprom.c ****     GPIO_Init.Mode = GPIO_MODE_INPUT;
 302              		.loc 1 35 20 is_stmt 0 view .LVU62
 303 0050 4023     		movs	r3, #64
 304 0052 0293     		str	r3, [sp, #8]
  36:sensor_device/eeprom.c ****     GPIO_Init.Pull = GPIO_NOPULL;
 305              		.loc 1 36 5 is_stmt 1 view .LVU63
  36:sensor_device/eeprom.c ****     GPIO_Init.Pull = GPIO_NOPULL;
 306              		.loc 1 36 20 is_stmt 0 view .LVU64
 307 0054 0394     		str	r4, [sp, #12]
  37:sensor_device/eeprom.c ****     HAL_GPIO_Init(EEPROM_DO_GPIO_Port, &GPIO_Init);
 308              		.loc 1 37 5 is_stmt 1 view .LVU65
  37:sensor_device/eeprom.c ****     HAL_GPIO_Init(EEPROM_DO_GPIO_Port, &GPIO_Init);
 309              		.loc 1 37 20 is_stmt 0 view .LVU66
 310 0056 0494     		str	r4, [sp, #16]
  38:sensor_device/eeprom.c ****     HAL_Delay(1);
 311              		.loc 1 38 5 is_stmt 1 view .LVU67
 312 0058 02A9     		add	r1, sp, #8
 313 005a 2846     		mov	r0, r5
 314 005c FFF7FEFF 		bl	HAL_GPIO_Init
 315              	.LVL21:
  39:sensor_device/eeprom.c ****     // 复位引脚状态
 316              		.loc 1 39 5 view .LVU68
 317 0060 3846     		mov	r0, r7
 318 0062 FFF7FEFF 		bl	HAL_Delay
 319              	.LVL22:
  41:sensor_device/eeprom.c ****     CLK_LOW();
 320              		.loc 1 41 5 view .LVU69
 321 0066 2246     		mov	r2, r4
 322 0068 1021     		movs	r1, #16
 323 006a 2846     		mov	r0, r5
 324 006c FFF7FEFF 		bl	HAL_GPIO_WritePin
 325              	.LVL23:
  42:sensor_device/eeprom.c ****     DI_LOW();
 326              		.loc 1 42 5 view .LVU70
 327 0070 2246     		mov	r2, r4
 328 0072 2021     		movs	r1, #32
 329 0074 2846     		mov	r0, r5
 330 0076 FFF7FEFF 		bl	HAL_GPIO_WritePin
 331              	.LVL24:
  43:sensor_device/eeprom.c **** }
 332              		.loc 1 43 5 view .LVU71
 333 007a 2246     		mov	r2, r4
 334 007c 2021     		movs	r1, #32
 335 007e 3046     		mov	r0, r6
 336 0080 FFF7FEFF 		bl	HAL_GPIO_WritePin
 337              	.LVL25:
  44:sensor_device/eeprom.c **** 
 338              		.loc 1 44 1 is_stmt 0 view .LVU72
 339 0084 07B0     		add	sp, sp, #28
 340              	.LCFI5:
 341              		.cfi_def_cfa_offset 20
 342              		@ sp needed
 343 0086 F0BD     		pop	{r4, r5, r6, r7, pc}
 344              	.L18:
ARM GAS  /tmp/ccUdKceP.s 			page 9


 345              		.align	2
 346              	.L17:
 347 0088 00100240 		.word	1073876992
 348 008c 00080140 		.word	1073809408
 349 0090 000C0140 		.word	1073810432
 350              		.cfi_endproc
 351              	.LFE66:
 353              		.section	.text.EEPROM_WriteEnable,"ax",%progbits
 354              		.align	1
 355              		.global	EEPROM_WriteEnable
 356              		.syntax unified
 357              		.thumb
 358              		.thumb_func
 359              		.fpu softvfp
 361              	EEPROM_WriteEnable:
 362              	.LFB70:
  83:sensor_device/eeprom.c **** 
  84:sensor_device/eeprom.c **** /** @brief 写使能：EWEN（SB=1, OPC=00, A8=1, A7=1） */
  85:sensor_device/eeprom.c **** void EEPROM_WriteEnable(void)
  86:sensor_device/eeprom.c **** {
 363              		.loc 1 86 1 is_stmt 1 view -0
 364              		.cfi_startproc
 365              		@ args = 0, pretend = 0, frame = 0
 366              		@ frame_needed = 0, uses_anonymous_args = 0
 367 0000 10B5     		push	{r4, lr}
 368              	.LCFI6:
 369              		.cfi_def_cfa_offset 8
 370              		.cfi_offset 4, -8
 371              		.cfi_offset 14, -4
  87:sensor_device/eeprom.c ****     _StartCondition();
 372              		.loc 1 87 5 view .LVU74
 373 0002 FFF7FEFF 		bl	_StartCondition
 374              	.LVL26:
  88:sensor_device/eeprom.c ****     // OPC=00
  89:sensor_device/eeprom.c ****     _SendBit(0);
 375              		.loc 1 89 5 view .LVU75
 376 0006 0020     		movs	r0, #0
 377 0008 FFF7FEFF 		bl	_SendBit
 378              	.LVL27:
  90:sensor_device/eeprom.c ****     _SendBit(0);
 379              		.loc 1 90 5 view .LVU76
 380 000c 0020     		movs	r0, #0
 381 000e FFF7FEFF 		bl	_SendBit
 382              	.LVL28:
  91:sensor_device/eeprom.c ****     // A8=1, A7=1, 其它地址位可随意
  92:sensor_device/eeprom.c ****     _SendBit(1);
 383              		.loc 1 92 5 view .LVU77
 384 0012 0120     		movs	r0, #1
 385 0014 FFF7FEFF 		bl	_SendBit
 386              	.LVL29:
  93:sensor_device/eeprom.c ****     _SendBit(1);
 387              		.loc 1 93 5 view .LVU78
 388 0018 0120     		movs	r0, #1
 389 001a FFF7FEFF 		bl	_SendBit
 390              	.LVL30:
  94:sensor_device/eeprom.c ****     for (int i = 6; i >= 0; i--) {
 391              		.loc 1 94 5 view .LVU79
ARM GAS  /tmp/ccUdKceP.s 			page 10


 392              	.LBB4:
 393              		.loc 1 94 10 view .LVU80
 394              		.loc 1 94 14 is_stmt 0 view .LVU81
 395 001e 0624     		movs	r4, #6
 396              		.loc 1 94 5 view .LVU82
 397 0020 03E0     		b	.L20
 398              	.LVL31:
 399              	.L21:
  95:sensor_device/eeprom.c ****         _SendBit(0);
 400              		.loc 1 95 9 is_stmt 1 discriminator 3 view .LVU83
 401 0022 0020     		movs	r0, #0
 402 0024 FFF7FEFF 		bl	_SendBit
 403              	.LVL32:
  94:sensor_device/eeprom.c ****     for (int i = 6; i >= 0; i--) {
 404              		.loc 1 94 29 discriminator 3 view .LVU84
  94:sensor_device/eeprom.c ****     for (int i = 6; i >= 0; i--) {
 405              		.loc 1 94 30 is_stmt 0 discriminator 3 view .LVU85
 406 0028 013C     		subs	r4, r4, #1
 407              	.LVL33:
 408              	.L20:
  94:sensor_device/eeprom.c ****     for (int i = 6; i >= 0; i--) {
 409              		.loc 1 94 21 is_stmt 1 discriminator 1 view .LVU86
  94:sensor_device/eeprom.c ****     for (int i = 6; i >= 0; i--) {
 410              		.loc 1 94 5 is_stmt 0 discriminator 1 view .LVU87
 411 002a 002C     		cmp	r4, #0
 412 002c F9DA     		bge	.L21
 413              	.LBE4:
  96:sensor_device/eeprom.c ****     }
  97:sensor_device/eeprom.c ****     CS_LOW();        // 下降沿启动内部 EWEN
 414              		.loc 1 97 5 is_stmt 1 view .LVU88
 415 002e 0022     		movs	r2, #0
 416 0030 1021     		movs	r1, #16
 417 0032 0348     		ldr	r0, .L23
 418 0034 FFF7FEFF 		bl	HAL_GPIO_WritePin
 419              	.LVL34:
  98:sensor_device/eeprom.c ****     HAL_Delay(1);    // 等待 > TCSL
 420              		.loc 1 98 5 view .LVU89
 421 0038 0120     		movs	r0, #1
 422 003a FFF7FEFF 		bl	HAL_Delay
 423              	.LVL35:
  99:sensor_device/eeprom.c **** }
 424              		.loc 1 99 1 is_stmt 0 view .LVU90
 425 003e 10BD     		pop	{r4, pc}
 426              	.LVL36:
 427              	.L24:
 428              		.loc 1 99 1 view .LVU91
 429              		.align	2
 430              	.L23:
 431 0040 00080140 		.word	1073809408
 432              		.cfi_endproc
 433              	.LFE70:
 435              		.section	.text.EEPROM_WriteDisable,"ax",%progbits
 436              		.align	1
 437              		.global	EEPROM_WriteDisable
 438              		.syntax unified
 439              		.thumb
 440              		.thumb_func
ARM GAS  /tmp/ccUdKceP.s 			page 11


 441              		.fpu softvfp
 443              	EEPROM_WriteDisable:
 444              	.LFB71:
 100:sensor_device/eeprom.c **** 
 101:sensor_device/eeprom.c **** /** @brief 写失能：EWDS（SB=1, OPC=00, A8=0, A7=0） */
 102:sensor_device/eeprom.c **** void EEPROM_WriteDisable(void)
 103:sensor_device/eeprom.c **** {
 445              		.loc 1 103 1 is_stmt 1 view -0
 446              		.cfi_startproc
 447              		@ args = 0, pretend = 0, frame = 0
 448              		@ frame_needed = 0, uses_anonymous_args = 0
 449 0000 10B5     		push	{r4, lr}
 450              	.LCFI7:
 451              		.cfi_def_cfa_offset 8
 452              		.cfi_offset 4, -8
 453              		.cfi_offset 14, -4
 104:sensor_device/eeprom.c ****     _StartCondition();
 454              		.loc 1 104 5 view .LVU93
 455 0002 FFF7FEFF 		bl	_StartCondition
 456              	.LVL37:
 105:sensor_device/eeprom.c ****     _SendBit(0);
 457              		.loc 1 105 5 view .LVU94
 458 0006 0020     		movs	r0, #0
 459 0008 FFF7FEFF 		bl	_SendBit
 460              	.LVL38:
 106:sensor_device/eeprom.c ****     _SendBit(0);
 461              		.loc 1 106 5 view .LVU95
 462 000c 0020     		movs	r0, #0
 463 000e FFF7FEFF 		bl	_SendBit
 464              	.LVL39:
 107:sensor_device/eeprom.c ****     _SendBit(0);
 465              		.loc 1 107 5 view .LVU96
 466 0012 0020     		movs	r0, #0
 467 0014 FFF7FEFF 		bl	_SendBit
 468              	.LVL40:
 108:sensor_device/eeprom.c ****     _SendBit(0);
 469              		.loc 1 108 5 view .LVU97
 470 0018 0020     		movs	r0, #0
 471 001a FFF7FEFF 		bl	_SendBit
 472              	.LVL41:
 109:sensor_device/eeprom.c ****     for (int i = 6; i >= 0; i--) {
 473              		.loc 1 109 5 view .LVU98
 474              	.LBB5:
 475              		.loc 1 109 10 view .LVU99
 476              		.loc 1 109 14 is_stmt 0 view .LVU100
 477 001e 0624     		movs	r4, #6
 478              		.loc 1 109 5 view .LVU101
 479 0020 03E0     		b	.L26
 480              	.LVL42:
 481              	.L27:
 110:sensor_device/eeprom.c ****         _SendBit(0);
 482              		.loc 1 110 9 is_stmt 1 discriminator 3 view .LVU102
 483 0022 0020     		movs	r0, #0
 484 0024 FFF7FEFF 		bl	_SendBit
 485              	.LVL43:
 109:sensor_device/eeprom.c ****     for (int i = 6; i >= 0; i--) {
 486              		.loc 1 109 29 discriminator 3 view .LVU103
ARM GAS  /tmp/ccUdKceP.s 			page 12


 109:sensor_device/eeprom.c ****     for (int i = 6; i >= 0; i--) {
 487              		.loc 1 109 30 is_stmt 0 discriminator 3 view .LVU104
 488 0028 013C     		subs	r4, r4, #1
 489              	.LVL44:
 490              	.L26:
 109:sensor_device/eeprom.c ****     for (int i = 6; i >= 0; i--) {
 491              		.loc 1 109 21 is_stmt 1 discriminator 1 view .LVU105
 109:sensor_device/eeprom.c ****     for (int i = 6; i >= 0; i--) {
 492              		.loc 1 109 5 is_stmt 0 discriminator 1 view .LVU106
 493 002a 002C     		cmp	r4, #0
 494 002c F9DA     		bge	.L27
 495              	.LBE5:
 111:sensor_device/eeprom.c ****     }
 112:sensor_device/eeprom.c ****     CS_LOW();
 496              		.loc 1 112 5 is_stmt 1 view .LVU107
 497 002e 0022     		movs	r2, #0
 498 0030 1021     		movs	r1, #16
 499 0032 0348     		ldr	r0, .L29
 500 0034 FFF7FEFF 		bl	HAL_GPIO_WritePin
 501              	.LVL45:
 113:sensor_device/eeprom.c ****     HAL_Delay(1);
 502              		.loc 1 113 5 view .LVU108
 503 0038 0120     		movs	r0, #1
 504 003a FFF7FEFF 		bl	HAL_Delay
 505              	.LVL46:
 114:sensor_device/eeprom.c **** }
 506              		.loc 1 114 1 is_stmt 0 view .LVU109
 507 003e 10BD     		pop	{r4, pc}
 508              	.LVL47:
 509              	.L30:
 510              		.loc 1 114 1 view .LVU110
 511              		.align	2
 512              	.L29:
 513 0040 00080140 		.word	1073809408
 514              		.cfi_endproc
 515              	.LFE71:
 517              		.section	.text.EEPROM_WriteByte,"ax",%progbits
 518              		.align	1
 519              		.global	EEPROM_WriteByte
 520              		.syntax unified
 521              		.thumb
 522              		.thumb_func
 523              		.fpu softvfp
 525              	EEPROM_WriteByte:
 526              	.LVL48:
 527              	.LFB72:
 115:sensor_device/eeprom.c **** 
 116:sensor_device/eeprom.c **** /** @brief 写 1 字节（SB=1, OPC=01） */
 117:sensor_device/eeprom.c **** void EEPROM_WriteByte(uint16_t address, uint8_t data)
 118:sensor_device/eeprom.c **** {
 528              		.loc 1 118 1 is_stmt 1 view -0
 529              		.cfi_startproc
 530              		@ args = 0, pretend = 0, frame = 0
 531              		@ frame_needed = 0, uses_anonymous_args = 0
 532              		.loc 1 118 1 is_stmt 0 view .LVU112
 533 0000 70B5     		push	{r4, r5, r6, lr}
 534              	.LCFI8:
ARM GAS  /tmp/ccUdKceP.s 			page 13


 535              		.cfi_def_cfa_offset 16
 536              		.cfi_offset 4, -16
 537              		.cfi_offset 5, -12
 538              		.cfi_offset 6, -8
 539              		.cfi_offset 14, -4
 540 0002 0546     		mov	r5, r0
 541 0004 0E46     		mov	r6, r1
 119:sensor_device/eeprom.c ****     // 先使能写
 120:sensor_device/eeprom.c ****     EEPROM_WriteEnable();
 542              		.loc 1 120 5 is_stmt 1 view .LVU113
 543 0006 FFF7FEFF 		bl	EEPROM_WriteEnable
 544              	.LVL49:
 121:sensor_device/eeprom.c **** 
 122:sensor_device/eeprom.c ****     _StartCondition();
 545              		.loc 1 122 5 view .LVU114
 546 000a FFF7FEFF 		bl	_StartCondition
 547              	.LVL50:
 123:sensor_device/eeprom.c ****     // OPC = 01
 124:sensor_device/eeprom.c ****     _SendBit(0);
 548              		.loc 1 124 5 view .LVU115
 549 000e 0020     		movs	r0, #0
 550 0010 FFF7FEFF 		bl	_SendBit
 551              	.LVL51:
 125:sensor_device/eeprom.c ****     _SendBit(1);
 552              		.loc 1 125 5 view .LVU116
 553 0014 0120     		movs	r0, #1
 554 0016 FFF7FEFF 		bl	_SendBit
 555              	.LVL52:
 126:sensor_device/eeprom.c ****     // 地址 9 bits MSB first
 127:sensor_device/eeprom.c ****     for (int i = 8; i >= 0; i--) {
 556              		.loc 1 127 5 view .LVU117
 557              	.LBB6:
 558              		.loc 1 127 10 view .LVU118
 559              		.loc 1 127 14 is_stmt 0 view .LVU119
 560 001a 0824     		movs	r4, #8
 561              		.loc 1 127 5 view .LVU120
 562 001c 06E0     		b	.L32
 563              	.LVL53:
 564              	.L33:
 128:sensor_device/eeprom.c ****         _SendBit((address >> i) & 0x01);
 565              		.loc 1 128 9 is_stmt 1 discriminator 3 view .LVU121
 566              		.loc 1 128 27 is_stmt 0 discriminator 3 view .LVU122
 567 001e 45FA04F0 		asr	r0, r5, r4
 568              		.loc 1 128 9 discriminator 3 view .LVU123
 569 0022 00F00100 		and	r0, r0, #1
 570 0026 FFF7FEFF 		bl	_SendBit
 571              	.LVL54:
 127:sensor_device/eeprom.c ****         _SendBit((address >> i) & 0x01);
 572              		.loc 1 127 29 is_stmt 1 discriminator 3 view .LVU124
 127:sensor_device/eeprom.c ****         _SendBit((address >> i) & 0x01);
 573              		.loc 1 127 30 is_stmt 0 discriminator 3 view .LVU125
 574 002a 013C     		subs	r4, r4, #1
 575              	.LVL55:
 576              	.L32:
 127:sensor_device/eeprom.c ****         _SendBit((address >> i) & 0x01);
 577              		.loc 1 127 21 is_stmt 1 discriminator 1 view .LVU126
 127:sensor_device/eeprom.c ****         _SendBit((address >> i) & 0x01);
ARM GAS  /tmp/ccUdKceP.s 			page 14


 578              		.loc 1 127 5 is_stmt 0 discriminator 1 view .LVU127
 579 002c 002C     		cmp	r4, #0
 580 002e F6DA     		bge	.L33
 581              	.LBE6:
 582              	.LBB7:
 129:sensor_device/eeprom.c ****     }
 130:sensor_device/eeprom.c ****     // 数据 8 bits MSB first
 131:sensor_device/eeprom.c ****     for (int i = 7; i >= 0; i--) {
 583              		.loc 1 131 14 view .LVU128
 584 0030 0724     		movs	r4, #7
 585              	.LVL56:
 586              		.loc 1 131 14 view .LVU129
 587 0032 06E0     		b	.L34
 588              	.LVL57:
 589              	.L35:
 132:sensor_device/eeprom.c ****         _SendBit((data >> i) & 0x01);
 590              		.loc 1 132 9 is_stmt 1 discriminator 3 view .LVU130
 591              		.loc 1 132 24 is_stmt 0 discriminator 3 view .LVU131
 592 0034 46FA04F0 		asr	r0, r6, r4
 593              		.loc 1 132 9 discriminator 3 view .LVU132
 594 0038 00F00100 		and	r0, r0, #1
 595 003c FFF7FEFF 		bl	_SendBit
 596              	.LVL58:
 131:sensor_device/eeprom.c ****         _SendBit((data >> i) & 0x01);
 597              		.loc 1 131 29 is_stmt 1 discriminator 3 view .LVU133
 131:sensor_device/eeprom.c ****         _SendBit((data >> i) & 0x01);
 598              		.loc 1 131 30 is_stmt 0 discriminator 3 view .LVU134
 599 0040 013C     		subs	r4, r4, #1
 600              	.LVL59:
 601              	.L34:
 131:sensor_device/eeprom.c ****         _SendBit((data >> i) & 0x01);
 602              		.loc 1 131 21 is_stmt 1 discriminator 1 view .LVU135
 131:sensor_device/eeprom.c ****         _SendBit((data >> i) & 0x01);
 603              		.loc 1 131 5 is_stmt 0 discriminator 1 view .LVU136
 604 0042 002C     		cmp	r4, #0
 605 0044 F6DA     		bge	.L35
 606              	.LBE7:
 133:sensor_device/eeprom.c ****     }
 134:sensor_device/eeprom.c ****     CS_LOW();             // 下降沿启动自擦除+写操作
 607              		.loc 1 134 5 is_stmt 1 view .LVU137
 608 0046 0022     		movs	r2, #0
 609 0048 1021     		movs	r1, #16
 610 004a 0348     		ldr	r0, .L37
 611 004c FFF7FEFF 		bl	HAL_GPIO_WritePin
 612              	.LVL60:
 135:sensor_device/eeprom.c ****     HAL_Delay(6);         // TWC ≈ 6 ms :contentReference[oaicite:4]{index=4}
 613              		.loc 1 135 5 view .LVU138
 614 0050 0620     		movs	r0, #6
 615 0052 FFF7FEFF 		bl	HAL_Delay
 616              	.LVL61:
 136:sensor_device/eeprom.c **** }
 617              		.loc 1 136 1 is_stmt 0 view .LVU139
 618 0056 70BD     		pop	{r4, r5, r6, pc}
 619              	.LVL62:
 620              	.L38:
 621              		.loc 1 136 1 view .LVU140
 622              		.align	2
ARM GAS  /tmp/ccUdKceP.s 			page 15


 623              	.L37:
 624 0058 00080140 		.word	1073809408
 625              		.cfi_endproc
 626              	.LFE72:
 628              		.section	.text.EEPROM_ReadByte,"ax",%progbits
 629              		.align	1
 630              		.global	EEPROM_ReadByte
 631              		.syntax unified
 632              		.thumb
 633              		.thumb_func
 634              		.fpu softvfp
 636              	EEPROM_ReadByte:
 637              	.LVL63:
 638              	.LFB73:
 137:sensor_device/eeprom.c **** 
 138:sensor_device/eeprom.c **** /** @brief 读 1 字节（SB=1, OPC=10） */
 139:sensor_device/eeprom.c **** uint8_t EEPROM_ReadByte(uint16_t address)
 140:sensor_device/eeprom.c **** {
 639              		.loc 1 140 1 is_stmt 1 view -0
 640              		.cfi_startproc
 641              		@ args = 0, pretend = 0, frame = 0
 642              		@ frame_needed = 0, uses_anonymous_args = 0
 643              		.loc 1 140 1 is_stmt 0 view .LVU142
 644 0000 38B5     		push	{r3, r4, r5, lr}
 645              	.LCFI9:
 646              		.cfi_def_cfa_offset 16
 647              		.cfi_offset 3, -16
 648              		.cfi_offset 4, -12
 649              		.cfi_offset 5, -8
 650              		.cfi_offset 14, -4
 651 0002 0546     		mov	r5, r0
 141:sensor_device/eeprom.c ****     uint8_t result = 0;
 652              		.loc 1 141 5 is_stmt 1 view .LVU143
 653              	.LVL64:
 142:sensor_device/eeprom.c ****     _StartCondition();
 654              		.loc 1 142 5 view .LVU144
 655 0004 FFF7FEFF 		bl	_StartCondition
 656              	.LVL65:
 143:sensor_device/eeprom.c ****     // OPC = 10
 144:sensor_device/eeprom.c ****     _SendBit(1);
 657              		.loc 1 144 5 view .LVU145
 658 0008 0120     		movs	r0, #1
 659 000a FFF7FEFF 		bl	_SendBit
 660              	.LVL66:
 145:sensor_device/eeprom.c ****     _SendBit(0);
 661              		.loc 1 145 5 view .LVU146
 662 000e 0020     		movs	r0, #0
 663 0010 FFF7FEFF 		bl	_SendBit
 664              	.LVL67:
 146:sensor_device/eeprom.c ****     // 地址 9 bits MSB
 147:sensor_device/eeprom.c ****     for (int i = 8; i >= 0; i--) {
 665              		.loc 1 147 5 view .LVU147
 666              	.LBB8:
 667              		.loc 1 147 10 view .LVU148
 668              		.loc 1 147 14 is_stmt 0 view .LVU149
 669 0014 0824     		movs	r4, #8
 670              		.loc 1 147 5 view .LVU150
ARM GAS  /tmp/ccUdKceP.s 			page 16


 671 0016 06E0     		b	.L40
 672              	.LVL68:
 673              	.L41:
 148:sensor_device/eeprom.c ****         _SendBit((address >> i) & 0x01);
 674              		.loc 1 148 9 is_stmt 1 discriminator 3 view .LVU151
 675              		.loc 1 148 27 is_stmt 0 discriminator 3 view .LVU152
 676 0018 45FA04F0 		asr	r0, r5, r4
 677              		.loc 1 148 9 discriminator 3 view .LVU153
 678 001c 00F00100 		and	r0, r0, #1
 679 0020 FFF7FEFF 		bl	_SendBit
 680              	.LVL69:
 147:sensor_device/eeprom.c ****         _SendBit((address >> i) & 0x01);
 681              		.loc 1 147 29 is_stmt 1 discriminator 3 view .LVU154
 147:sensor_device/eeprom.c ****         _SendBit((address >> i) & 0x01);
 682              		.loc 1 147 30 is_stmt 0 discriminator 3 view .LVU155
 683 0024 013C     		subs	r4, r4, #1
 684              	.LVL70:
 685              	.L40:
 147:sensor_device/eeprom.c ****         _SendBit((address >> i) & 0x01);
 686              		.loc 1 147 21 is_stmt 1 discriminator 1 view .LVU156
 147:sensor_device/eeprom.c ****         _SendBit((address >> i) & 0x01);
 687              		.loc 1 147 5 is_stmt 0 discriminator 1 view .LVU157
 688 0026 002C     		cmp	r4, #0
 689 0028 F6DA     		bge	.L41
 690              	.LBE8:
 691              	.LBB9:
 149:sensor_device/eeprom.c ****     }
 150:sensor_device/eeprom.c ****     // 读取 8 bits
 151:sensor_device/eeprom.c ****     for (int i = 7; i >= 0; i--) {
 692              		.loc 1 151 14 view .LVU158
 693 002a 0725     		movs	r5, #7
 694              	.LBE9:
 141:sensor_device/eeprom.c ****     _StartCondition();
 695              		.loc 1 141 13 view .LVU159
 696 002c 0024     		movs	r4, #0
 697              	.LVL71:
 141:sensor_device/eeprom.c ****     _StartCondition();
 698              		.loc 1 141 13 view .LVU160
 699 002e 05E0     		b	.L42
 700              	.LVL72:
 701              	.L43:
 702              	.LBB10:
 152:sensor_device/eeprom.c ****         result |= (_ReadBit() << i);
 703              		.loc 1 152 9 is_stmt 1 discriminator 3 view .LVU161
 704              		.loc 1 152 20 is_stmt 0 discriminator 3 view .LVU162
 705 0030 FFF7FEFF 		bl	_ReadBit
 706              	.LVL73:
 707              		.loc 1 152 31 discriminator 3 view .LVU163
 708 0034 A840     		lsls	r0, r0, r5
 709              		.loc 1 152 16 discriminator 3 view .LVU164
 710 0036 0443     		orrs	r4, r4, r0
 711              	.LVL74:
 712              		.loc 1 152 16 discriminator 3 view .LVU165
 713 0038 E4B2     		uxtb	r4, r4
 714              	.LVL75:
 151:sensor_device/eeprom.c ****         result |= (_ReadBit() << i);
 715              		.loc 1 151 29 is_stmt 1 discriminator 3 view .LVU166
ARM GAS  /tmp/ccUdKceP.s 			page 17


 151:sensor_device/eeprom.c ****         result |= (_ReadBit() << i);
 716              		.loc 1 151 30 is_stmt 0 discriminator 3 view .LVU167
 717 003a 013D     		subs	r5, r5, #1
 718              	.LVL76:
 719              	.L42:
 151:sensor_device/eeprom.c ****         result |= (_ReadBit() << i);
 720              		.loc 1 151 21 is_stmt 1 discriminator 1 view .LVU168
 151:sensor_device/eeprom.c ****         result |= (_ReadBit() << i);
 721              		.loc 1 151 5 is_stmt 0 discriminator 1 view .LVU169
 722 003c 002D     		cmp	r5, #0
 723 003e F7DA     		bge	.L43
 724              	.LBE10:
 153:sensor_device/eeprom.c ****     }
 154:sensor_device/eeprom.c ****     CS_LOW();             // 结束
 725              		.loc 1 154 5 is_stmt 1 view .LVU170
 726 0040 0022     		movs	r2, #0
 727 0042 1021     		movs	r1, #16
 728 0044 0248     		ldr	r0, .L45
 729 0046 FFF7FEFF 		bl	HAL_GPIO_WritePin
 730              	.LVL77:
 155:sensor_device/eeprom.c ****     return result;
 731              		.loc 1 155 5 view .LVU171
 156:sensor_device/eeprom.c **** }
 732              		.loc 1 156 1 is_stmt 0 view .LVU172
 733 004a 2046     		mov	r0, r4
 734 004c 38BD     		pop	{r3, r4, r5, pc}
 735              	.LVL78:
 736              	.L46:
 737              		.loc 1 156 1 view .LVU173
 738 004e 00BF     		.align	2
 739              	.L45:
 740 0050 00080140 		.word	1073809408
 741              		.cfi_endproc
 742              	.LFE73:
 744              		.section	.rodata.EEPROM_WriteBuffer.str1.4,"aMS",%progbits,1
 745              		.align	2
 746              	.LC0:
 747 0000 61646472 		.ascii	"address error\012\000"
 747      65737320 
 747      6572726F 
 747      720A00
 748              		.section	.text.EEPROM_WriteBuffer,"ax",%progbits
 749              		.align	1
 750              		.global	EEPROM_WriteBuffer
 751              		.syntax unified
 752              		.thumb
 753              		.thumb_func
 754              		.fpu softvfp
 756              	EEPROM_WriteBuffer:
 757              	.LVL79:
 758              	.LFB74:
 157:sensor_device/eeprom.c **** 
 158:sensor_device/eeprom.c **** 
 159:sensor_device/eeprom.c **** void EEPROM_WriteBuffer(uint16_t address, uint8_t *pData, uint16_t len)
 160:sensor_device/eeprom.c **** {
 759              		.loc 1 160 1 is_stmt 1 view -0
 760              		.cfi_startproc
ARM GAS  /tmp/ccUdKceP.s 			page 18


 761              		@ args = 0, pretend = 0, frame = 0
 762              		@ frame_needed = 0, uses_anonymous_args = 0
 763              		.loc 1 160 1 is_stmt 0 view .LVU175
 764 0000 2DE9F041 		push	{r4, r5, r6, r7, r8, lr}
 765              	.LCFI10:
 766              		.cfi_def_cfa_offset 24
 767              		.cfi_offset 4, -24
 768              		.cfi_offset 5, -20
 769              		.cfi_offset 6, -16
 770              		.cfi_offset 7, -12
 771              		.cfi_offset 8, -8
 772              		.cfi_offset 14, -4
 161:sensor_device/eeprom.c ****     // 全部写之前，先使能写操作，降低 CS 切换开销
 162:sensor_device/eeprom.c ****     if(address<EEPROM_MIN_ADDRESS||address>EEPROM_MAX_ADDRESS)
 773              		.loc 1 162 5 is_stmt 1 view .LVU176
 774              		.loc 1 162 7 is_stmt 0 view .LVU177
 775 0004 B0F5007F 		cmp	r0, #512
 776 0008 06D2     		bcs	.L57
 777 000a 0646     		mov	r6, r0
 778 000c 0F46     		mov	r7, r1
 779 000e 9046     		mov	r8, r2
 163:sensor_device/eeprom.c ****     {
 164:sensor_device/eeprom.c ****         myprintf("address error\n");
 165:sensor_device/eeprom.c ****         return;
 166:sensor_device/eeprom.c ****     }
 167:sensor_device/eeprom.c ****     EEPROM_WriteEnable();
 780              		.loc 1 167 5 is_stmt 1 view .LVU178
 781 0010 FFF7FEFF 		bl	EEPROM_WriteEnable
 782              	.LVL80:
 168:sensor_device/eeprom.c **** 
 169:sensor_device/eeprom.c ****     for (uint16_t i = 0; i < len; i++)
 783              		.loc 1 169 5 view .LVU179
 784              	.LBB11:
 785              		.loc 1 169 10 view .LVU180
 786              		.loc 1 169 19 is_stmt 0 view .LVU181
 787 0014 0025     		movs	r5, #0
 788              		.loc 1 169 5 view .LVU182
 789 0016 24E0     		b	.L50
 790              	.LVL81:
 791              	.L57:
 792              		.loc 1 169 5 view .LVU183
 793              	.LBE11:
 164:sensor_device/eeprom.c ****         return;
 794              		.loc 1 164 9 is_stmt 1 view .LVU184
 795 0018 1A49     		ldr	r1, .L59
 796              	.LVL82:
 164:sensor_device/eeprom.c ****         return;
 797              		.loc 1 164 9 is_stmt 0 view .LVU185
 798 001a 0020     		movs	r0, #0
 799              	.LVL83:
 164:sensor_device/eeprom.c ****         return;
 800              		.loc 1 164 9 view .LVU186
 801 001c FFF7FEFF 		bl	SEGGER_RTT_printf
 802              	.LVL84:
 165:sensor_device/eeprom.c ****     }
 803              		.loc 1 165 9 is_stmt 1 view .LVU187
 804 0020 2DE0     		b	.L47
ARM GAS  /tmp/ccUdKceP.s 			page 19


 805              	.LVL85:
 806              	.L52:
 807              	.LBB15:
 808              	.LBB12:
 170:sensor_device/eeprom.c ****     {
 171:sensor_device/eeprom.c ****         _StartCondition();
 172:sensor_device/eeprom.c ****         // OPC = 01
 173:sensor_device/eeprom.c ****         _SendBit(0);
 174:sensor_device/eeprom.c ****         _SendBit(1);
 175:sensor_device/eeprom.c ****         // 地址 9 bit
 176:sensor_device/eeprom.c ****         for (int8_t b = 8; b >= 0; b--)
 177:sensor_device/eeprom.c ****             _SendBit((address + i) >> b & 0x01);
 809              		.loc 1 177 13 discriminator 3 view .LVU188
 810              		.loc 1 177 31 is_stmt 0 discriminator 3 view .LVU189
 811 0022 7019     		adds	r0, r6, r5
 812              		.loc 1 177 36 discriminator 3 view .LVU190
 813 0024 2041     		asrs	r0, r0, r4
 814              		.loc 1 177 13 discriminator 3 view .LVU191
 815 0026 00F00100 		and	r0, r0, #1
 816 002a FFF7FEFF 		bl	_SendBit
 817              	.LVL86:
 176:sensor_device/eeprom.c ****             _SendBit((address + i) >> b & 0x01);
 818              		.loc 1 176 36 is_stmt 1 discriminator 3 view .LVU192
 176:sensor_device/eeprom.c ****             _SendBit((address + i) >> b & 0x01);
 819              		.loc 1 176 37 is_stmt 0 discriminator 3 view .LVU193
 820 002e 013C     		subs	r4, r4, #1
 821              	.LVL87:
 176:sensor_device/eeprom.c ****             _SendBit((address + i) >> b & 0x01);
 822              		.loc 1 176 37 discriminator 3 view .LVU194
 823 0030 64B2     		sxtb	r4, r4
 824              	.LVL88:
 825              	.L51:
 176:sensor_device/eeprom.c ****             _SendBit((address + i) >> b & 0x01);
 826              		.loc 1 176 28 is_stmt 1 discriminator 1 view .LVU195
 176:sensor_device/eeprom.c ****             _SendBit((address + i) >> b & 0x01);
 827              		.loc 1 176 9 is_stmt 0 discriminator 1 view .LVU196
 828 0032 002C     		cmp	r4, #0
 829 0034 F5DA     		bge	.L52
 830              	.LBE12:
 831              	.LBB13:
 178:sensor_device/eeprom.c ****         // 数据 8 bit
 179:sensor_device/eeprom.c ****         for (int8_t b = 7; b >= 0; b--)
 832              		.loc 1 179 21 view .LVU197
 833 0036 0724     		movs	r4, #7
 834              	.LVL89:
 835              		.loc 1 179 21 view .LVU198
 836 0038 07E0     		b	.L53
 837              	.LVL90:
 838              	.L54:
 180:sensor_device/eeprom.c ****             _SendBit(pData[i] >> b & 0x01);
 839              		.loc 1 180 13 is_stmt 1 discriminator 3 view .LVU199
 840              		.loc 1 180 27 is_stmt 0 discriminator 3 view .LVU200
 841 003a 785D     		ldrb	r0, [r7, r5]	@ zero_extendqisi2
 842              		.loc 1 180 31 discriminator 3 view .LVU201
 843 003c 2041     		asrs	r0, r0, r4
 844              		.loc 1 180 13 discriminator 3 view .LVU202
 845 003e 00F00100 		and	r0, r0, #1
ARM GAS  /tmp/ccUdKceP.s 			page 20


 846 0042 FFF7FEFF 		bl	_SendBit
 847              	.LVL91:
 179:sensor_device/eeprom.c ****             _SendBit(pData[i] >> b & 0x01);
 848              		.loc 1 179 36 is_stmt 1 discriminator 3 view .LVU203
 179:sensor_device/eeprom.c ****             _SendBit(pData[i] >> b & 0x01);
 849              		.loc 1 179 37 is_stmt 0 discriminator 3 view .LVU204
 850 0046 013C     		subs	r4, r4, #1
 851              	.LVL92:
 179:sensor_device/eeprom.c ****             _SendBit(pData[i] >> b & 0x01);
 852              		.loc 1 179 37 discriminator 3 view .LVU205
 853 0048 64B2     		sxtb	r4, r4
 854              	.LVL93:
 855              	.L53:
 179:sensor_device/eeprom.c ****             _SendBit(pData[i] >> b & 0x01);
 856              		.loc 1 179 28 is_stmt 1 discriminator 1 view .LVU206
 179:sensor_device/eeprom.c ****             _SendBit(pData[i] >> b & 0x01);
 857              		.loc 1 179 9 is_stmt 0 discriminator 1 view .LVU207
 858 004a 002C     		cmp	r4, #0
 859 004c F5DA     		bge	.L54
 860              	.LBE13:
 181:sensor_device/eeprom.c ****         CS_LOW();            // 下降沿触发写入
 861              		.loc 1 181 9 is_stmt 1 discriminator 2 view .LVU208
 862 004e 0022     		movs	r2, #0
 863 0050 1021     		movs	r1, #16
 864 0052 0D48     		ldr	r0, .L59+4
 865 0054 FFF7FEFF 		bl	HAL_GPIO_WritePin
 866              	.LVL94:
 182:sensor_device/eeprom.c ****         HAL_Delay(6);        // TWC ≈ 6 ms
 867              		.loc 1 182 9 discriminator 2 view .LVU209
 868 0058 0620     		movs	r0, #6
 869 005a FFF7FEFF 		bl	HAL_Delay
 870              	.LVL95:
 169:sensor_device/eeprom.c ****     {
 871              		.loc 1 169 35 discriminator 2 view .LVU210
 169:sensor_device/eeprom.c ****     {
 872              		.loc 1 169 36 is_stmt 0 discriminator 2 view .LVU211
 873 005e 0135     		adds	r5, r5, #1
 874              	.LVL96:
 169:sensor_device/eeprom.c ****     {
 875              		.loc 1 169 36 discriminator 2 view .LVU212
 876 0060 ADB2     		uxth	r5, r5
 877              	.LVL97:
 878              	.L50:
 169:sensor_device/eeprom.c ****     {
 879              		.loc 1 169 26 is_stmt 1 discriminator 1 view .LVU213
 169:sensor_device/eeprom.c ****     {
 880              		.loc 1 169 5 is_stmt 0 discriminator 1 view .LVU214
 881 0062 4545     		cmp	r5, r8
 882 0064 09D2     		bcs	.L58
 171:sensor_device/eeprom.c ****         // OPC = 01
 883              		.loc 1 171 9 is_stmt 1 view .LVU215
 884 0066 FFF7FEFF 		bl	_StartCondition
 885              	.LVL98:
 173:sensor_device/eeprom.c ****         _SendBit(1);
 886              		.loc 1 173 9 view .LVU216
 887 006a 0020     		movs	r0, #0
 888 006c FFF7FEFF 		bl	_SendBit
ARM GAS  /tmp/ccUdKceP.s 			page 21


 889              	.LVL99:
 174:sensor_device/eeprom.c ****         // 地址 9 bit
 890              		.loc 1 174 9 view .LVU217
 891 0070 0120     		movs	r0, #1
 892 0072 FFF7FEFF 		bl	_SendBit
 893              	.LVL100:
 176:sensor_device/eeprom.c ****             _SendBit((address + i) >> b & 0x01);
 894              		.loc 1 176 9 view .LVU218
 895              	.LBB14:
 176:sensor_device/eeprom.c ****             _SendBit((address + i) >> b & 0x01);
 896              		.loc 1 176 14 view .LVU219
 176:sensor_device/eeprom.c ****             _SendBit((address + i) >> b & 0x01);
 897              		.loc 1 176 21 is_stmt 0 view .LVU220
 898 0076 0824     		movs	r4, #8
 176:sensor_device/eeprom.c ****             _SendBit((address + i) >> b & 0x01);
 899              		.loc 1 176 9 view .LVU221
 900 0078 DBE7     		b	.L51
 901              	.LVL101:
 902              	.L58:
 176:sensor_device/eeprom.c ****             _SendBit((address + i) >> b & 0x01);
 903              		.loc 1 176 9 view .LVU222
 904              	.LBE14:
 905              	.LBE15:
 183:sensor_device/eeprom.c ****     }
 184:sensor_device/eeprom.c **** 
 185:sensor_device/eeprom.c ****     EEPROM_WriteDisable();
 906              		.loc 1 185 5 is_stmt 1 view .LVU223
 907 007a FFF7FEFF 		bl	EEPROM_WriteDisable
 908              	.LVL102:
 909              	.L47:
 186:sensor_device/eeprom.c **** }
 910              		.loc 1 186 1 is_stmt 0 view .LVU224
 911 007e BDE8F081 		pop	{r4, r5, r6, r7, r8, pc}
 912              	.L60:
 913 0082 00BF     		.align	2
 914              	.L59:
 915 0084 00000000 		.word	.LC0
 916 0088 00080140 		.word	1073809408
 917              		.cfi_endproc
 918              	.LFE74:
 920              		.section	.text.EEPROM_ReadBuffer,"ax",%progbits
 921              		.align	1
 922              		.global	EEPROM_ReadBuffer
 923              		.syntax unified
 924              		.thumb
 925              		.thumb_func
 926              		.fpu softvfp
 928              	EEPROM_ReadBuffer:
 929              	.LVL103:
 930              	.LFB75:
 187:sensor_device/eeprom.c **** 
 188:sensor_device/eeprom.c **** void EEPROM_ReadBuffer(uint16_t address, uint8_t *pData, uint16_t len)
 189:sensor_device/eeprom.c **** {
 931              		.loc 1 189 1 is_stmt 1 view -0
 932              		.cfi_startproc
 933              		@ args = 0, pretend = 0, frame = 0
 934              		@ frame_needed = 0, uses_anonymous_args = 0
ARM GAS  /tmp/ccUdKceP.s 			page 22


 935              		.loc 1 189 1 is_stmt 0 view .LVU226
 936 0000 2DE9F041 		push	{r4, r5, r6, r7, r8, lr}
 937              	.LCFI11:
 938              		.cfi_def_cfa_offset 24
 939              		.cfi_offset 4, -24
 940              		.cfi_offset 5, -20
 941              		.cfi_offset 6, -16
 942              		.cfi_offset 7, -12
 943              		.cfi_offset 8, -8
 944              		.cfi_offset 14, -4
 190:sensor_device/eeprom.c ****       if(address<EEPROM_MIN_ADDRESS||address>EEPROM_MAX_ADDRESS)
 945              		.loc 1 190 7 is_stmt 1 view .LVU227
 946              		.loc 1 190 9 is_stmt 0 view .LVU228
 947 0004 B0F5007F 		cmp	r0, #512
 948 0008 0CD2     		bcs	.L71
 949 000a 0546     		mov	r5, r0
 950 000c 8846     		mov	r8, r1
 951 000e 1746     		mov	r7, r2
 191:sensor_device/eeprom.c ****     {
 192:sensor_device/eeprom.c ****         myprintf("address error\n");
 193:sensor_device/eeprom.c ****         return;
 194:sensor_device/eeprom.c ****     }
 195:sensor_device/eeprom.c ****     _StartCondition();
 952              		.loc 1 195 5 is_stmt 1 view .LVU229
 953 0010 FFF7FEFF 		bl	_StartCondition
 954              	.LVL104:
 196:sensor_device/eeprom.c ****     // OPC = 10
 197:sensor_device/eeprom.c ****     _SendBit(1);
 955              		.loc 1 197 5 view .LVU230
 956 0014 0120     		movs	r0, #1
 957 0016 FFF7FEFF 		bl	_SendBit
 958              	.LVL105:
 198:sensor_device/eeprom.c ****     _SendBit(0);
 959              		.loc 1 198 5 view .LVU231
 960 001a 0020     		movs	r0, #0
 961 001c FFF7FEFF 		bl	_SendBit
 962              	.LVL106:
 199:sensor_device/eeprom.c ****     // 地址 9 bit
 200:sensor_device/eeprom.c ****     for (int8_t b = 8; b >= 0; b--)
 963              		.loc 1 200 5 view .LVU232
 964              	.LBB16:
 965              		.loc 1 200 10 view .LVU233
 966              		.loc 1 200 17 is_stmt 0 view .LVU234
 967 0020 0824     		movs	r4, #8
 968              		.loc 1 200 5 view .LVU235
 969 0022 0CE0     		b	.L64
 970              	.LVL107:
 971              	.L71:
 972              		.loc 1 200 5 view .LVU236
 973              	.LBE16:
 192:sensor_device/eeprom.c ****         return;
 974              		.loc 1 192 9 is_stmt 1 view .LVU237
 975 0024 1449     		ldr	r1, .L73
 976              	.LVL108:
 192:sensor_device/eeprom.c ****         return;
 977              		.loc 1 192 9 is_stmt 0 view .LVU238
 978 0026 0020     		movs	r0, #0
ARM GAS  /tmp/ccUdKceP.s 			page 23


 979              	.LVL109:
 192:sensor_device/eeprom.c ****         return;
 980              		.loc 1 192 9 view .LVU239
 981 0028 FFF7FEFF 		bl	SEGGER_RTT_printf
 982              	.LVL110:
 193:sensor_device/eeprom.c ****     }
 983              		.loc 1 193 9 is_stmt 1 view .LVU240
 984 002c 22E0     		b	.L61
 985              	.LVL111:
 986              	.L65:
 987              	.LBB17:
 201:sensor_device/eeprom.c ****         _SendBit(address >> b & 0x01);
 988              		.loc 1 201 9 discriminator 3 view .LVU241
 989              		.loc 1 201 26 is_stmt 0 discriminator 3 view .LVU242
 990 002e 45FA04F0 		asr	r0, r5, r4
 991              		.loc 1 201 9 discriminator 3 view .LVU243
 992 0032 00F00100 		and	r0, r0, #1
 993 0036 FFF7FEFF 		bl	_SendBit
 994              	.LVL112:
 200:sensor_device/eeprom.c ****         _SendBit(address >> b & 0x01);
 995              		.loc 1 200 32 is_stmt 1 discriminator 3 view .LVU244
 200:sensor_device/eeprom.c ****         _SendBit(address >> b & 0x01);
 996              		.loc 1 200 33 is_stmt 0 discriminator 3 view .LVU245
 997 003a 013C     		subs	r4, r4, #1
 998              	.LVL113:
 200:sensor_device/eeprom.c ****         _SendBit(address >> b & 0x01);
 999              		.loc 1 200 33 discriminator 3 view .LVU246
 1000 003c 64B2     		sxtb	r4, r4
 1001              	.LVL114:
 1002              	.L64:
 200:sensor_device/eeprom.c ****         _SendBit(address >> b & 0x01);
 1003              		.loc 1 200 24 is_stmt 1 discriminator 1 view .LVU247
 200:sensor_device/eeprom.c ****         _SendBit(address >> b & 0x01);
 1004              		.loc 1 200 5 is_stmt 0 discriminator 1 view .LVU248
 1005 003e 002C     		cmp	r4, #0
 1006 0040 F5DA     		bge	.L65
 1007              	.LBE17:
 1008              	.LBB18:
 202:sensor_device/eeprom.c **** 
 203:sensor_device/eeprom.c ****     // 连续读取 len 个字节
 204:sensor_device/eeprom.c ****     for (uint16_t i = 0; i < len; i++)
 1009              		.loc 1 204 19 view .LVU249
 1010 0042 0026     		movs	r6, #0
 1011 0044 0CE0     		b	.L66
 1012              	.LVL115:
 1013              	.L67:
 1014              	.LBB19:
 1015              	.LBB20:
 205:sensor_device/eeprom.c ****     {
 206:sensor_device/eeprom.c ****         uint8_t v = 0;
 207:sensor_device/eeprom.c ****         for (int8_t b = 7; b >= 0; b--)
 208:sensor_device/eeprom.c ****             v |= (_ReadBit() << b);
 1016              		.loc 1 208 13 is_stmt 1 discriminator 3 view .LVU250
 1017              		.loc 1 208 19 is_stmt 0 discriminator 3 view .LVU251
 1018 0046 FFF7FEFF 		bl	_ReadBit
 1019              	.LVL116:
 1020              		.loc 1 208 30 discriminator 3 view .LVU252
ARM GAS  /tmp/ccUdKceP.s 			page 24


 1021 004a A040     		lsls	r0, r0, r4
 1022              		.loc 1 208 15 discriminator 3 view .LVU253
 1023 004c 0543     		orrs	r5, r5, r0
 1024              	.LVL117:
 1025              		.loc 1 208 15 discriminator 3 view .LVU254
 1026 004e EDB2     		uxtb	r5, r5
 1027              	.LVL118:
 207:sensor_device/eeprom.c ****             v |= (_ReadBit() << b);
 1028              		.loc 1 207 36 is_stmt 1 discriminator 3 view .LVU255
 207:sensor_device/eeprom.c ****             v |= (_ReadBit() << b);
 1029              		.loc 1 207 37 is_stmt 0 discriminator 3 view .LVU256
 1030 0050 013C     		subs	r4, r4, #1
 1031              	.LVL119:
 207:sensor_device/eeprom.c ****             v |= (_ReadBit() << b);
 1032              		.loc 1 207 37 discriminator 3 view .LVU257
 1033 0052 64B2     		sxtb	r4, r4
 1034              	.LVL120:
 1035              	.L68:
 207:sensor_device/eeprom.c ****             v |= (_ReadBit() << b);
 1036              		.loc 1 207 28 is_stmt 1 discriminator 1 view .LVU258
 207:sensor_device/eeprom.c ****             v |= (_ReadBit() << b);
 1037              		.loc 1 207 9 is_stmt 0 discriminator 1 view .LVU259
 1038 0054 002C     		cmp	r4, #0
 1039 0056 F6DA     		bge	.L67
 1040              	.LBE20:
 209:sensor_device/eeprom.c ****         pData[i] = v;
 1041              		.loc 1 209 9 is_stmt 1 discriminator 2 view .LVU260
 1042              		.loc 1 209 18 is_stmt 0 discriminator 2 view .LVU261
 1043 0058 08F80650 		strb	r5, [r8, r6]
 1044              	.LBE19:
 204:sensor_device/eeprom.c ****     {
 1045              		.loc 1 204 35 is_stmt 1 discriminator 2 view .LVU262
 204:sensor_device/eeprom.c ****     {
 1046              		.loc 1 204 36 is_stmt 0 discriminator 2 view .LVU263
 1047 005c 0136     		adds	r6, r6, #1
 1048              	.LVL121:
 204:sensor_device/eeprom.c ****     {
 1049              		.loc 1 204 36 discriminator 2 view .LVU264
 1050 005e B6B2     		uxth	r6, r6
 1051              	.LVL122:
 1052              	.L66:
 204:sensor_device/eeprom.c ****     {
 1053              		.loc 1 204 26 is_stmt 1 discriminator 1 view .LVU265
 204:sensor_device/eeprom.c ****     {
 1054              		.loc 1 204 5 is_stmt 0 discriminator 1 view .LVU266
 1055 0060 BE42     		cmp	r6, r7
 1056 0062 02D2     		bcs	.L72
 1057              	.LBB22:
 1058              	.LBB21:
 207:sensor_device/eeprom.c ****             v |= (_ReadBit() << b);
 1059              		.loc 1 207 21 view .LVU267
 1060 0064 0724     		movs	r4, #7
 1061              	.LBE21:
 206:sensor_device/eeprom.c ****         for (int8_t b = 7; b >= 0; b--)
 1062              		.loc 1 206 17 view .LVU268
 1063 0066 0025     		movs	r5, #0
 1064 0068 F4E7     		b	.L68
ARM GAS  /tmp/ccUdKceP.s 			page 25


 1065              	.L72:
 1066              	.LBE22:
 1067              	.LBE18:
 210:sensor_device/eeprom.c ****     }
 211:sensor_device/eeprom.c **** 
 212:sensor_device/eeprom.c ****     CS_LOW();  // 完成
 1068              		.loc 1 212 5 is_stmt 1 view .LVU269
 1069 006a 0022     		movs	r2, #0
 1070 006c 1021     		movs	r1, #16
 1071 006e 0348     		ldr	r0, .L73+4
 1072 0070 FFF7FEFF 		bl	HAL_GPIO_WritePin
 1073              	.LVL123:
 1074              	.L61:
 213:sensor_device/eeprom.c **** }
 1075              		.loc 1 213 1 is_stmt 0 view .LVU270
 1076 0074 BDE8F081 		pop	{r4, r5, r6, r7, r8, pc}
 1077              	.L74:
 1078              		.align	2
 1079              	.L73:
 1080 0078 00000000 		.word	.LC0
 1081 007c 00080140 		.word	1073809408
 1082              		.cfi_endproc
 1083              	.LFE75:
 1085              		.text
 1086              	.Letext0:
 1087              		.file 2 "/opt/gcc-arm-none-eabi-9-2020-q2-update/arm-none-eabi/include/machine/_default_types.h"
 1088              		.file 3 "/opt/gcc-arm-none-eabi-9-2020-q2-update/arm-none-eabi/include/sys/_stdint.h"
 1089              		.file 4 "Drivers/CMSIS/Include/core_cm3.h"
 1090              		.file 5 "Drivers/CMSIS/Device/ST/STM32F1xx/Include/system_stm32f1xx.h"
 1091              		.file 6 "Drivers/CMSIS/Device/ST/STM32F1xx/Include/stm32f103xe.h"
 1092              		.file 7 "Drivers/STM32F1xx_HAL_Driver/Inc/stm32f1xx_hal_gpio.h"
 1093              		.file 8 "Drivers/STM32F1xx_HAL_Driver/Inc/stm32f1xx_hal.h"
 1094              		.file 9 "ARM_SEGGER_RTT/SEGGER_RTT.h"
ARM GAS  /tmp/ccUdKceP.s 			page 26

