ARM GAS  /tmp/cc18Tnwx.s 			page 1


   1              		.cpu cortex-m3
   2              		.eabi_attribute 20, 1
   3              		.eabi_attribute 21, 1
   4              		.eabi_attribute 23, 3
   5              		.eabi_attribute 24, 1
   6              		.eabi_attribute 25, 1
   7              		.eabi_attribute 26, 1
   8              		.eabi_attribute 30, 1
   9              		.eabi_attribute 34, 1
  10              		.eabi_attribute 18, 4
  11              		.file	"gpio.c"
  12              		.text
  13              	.Ltext0:
  14              		.cfi_sections	.debug_frame
  15              		.section	.text.MX_GPIO_Init,"ax",%progbits
  16              		.align	1
  17              		.global	MX_GPIO_Init
  18              		.arch armv7-m
  19              		.syntax unified
  20              		.thumb
  21              		.thumb_func
  22              		.fpu softvfp
  24              	MX_GPIO_Init:
  25              	.LFB65:
  26              		.file 1 "Core/Src/gpio.c"
   1:Core/Src/gpio.c **** /**
   2:Core/Src/gpio.c ****  ******************************************************************************
   3:Core/Src/gpio.c ****  * @file    gpio.c
   4:Core/Src/gpio.c ****  * @brief   This file provides code for the configuration
   5:Core/Src/gpio.c ****  *          of all used GPIO pins.
   6:Core/Src/gpio.c ****  ******************************************************************************
   7:Core/Src/gpio.c ****  * @attention
   8:Core/Src/gpio.c ****  *
   9:Core/Src/gpio.c ****  * <h2><center>&copy; Copyright (c) 2025 STMicroelectronics.
  10:Core/Src/gpio.c ****  * All rights reserved.</center></h2>
  11:Core/Src/gpio.c ****  *
  12:Core/Src/gpio.c ****  * This software component is licensed by ST under BSD 3-Clause license,
  13:Core/Src/gpio.c ****  * the "License"; You may not use this file except in compliance with the
  14:Core/Src/gpio.c ****  * License. You may obtain a copy of the License at:
  15:Core/Src/gpio.c ****  *                        opensource.org/licenses/BSD-3-Clause
  16:Core/Src/gpio.c ****  *
  17:Core/Src/gpio.c ****  ******************************************************************************
  18:Core/Src/gpio.c ****  */
  19:Core/Src/gpio.c **** 
  20:Core/Src/gpio.c **** /* Includes ------------------------------------------------------------------*/
  21:Core/Src/gpio.c **** #include "gpio.h"
  22:Core/Src/gpio.c **** #include "Custcom_Pin.h"
  23:Core/Src/gpio.c **** /* USER CODE BEGIN 0 */
  24:Core/Src/gpio.c **** 
  25:Core/Src/gpio.c **** /* USER CODE END 0 */
  26:Core/Src/gpio.c **** 
  27:Core/Src/gpio.c **** /*----------------------------------------------------------------------------*/
  28:Core/Src/gpio.c **** /* Configure GPIO                                                             */
  29:Core/Src/gpio.c **** /*----------------------------------------------------------------------------*/
  30:Core/Src/gpio.c **** /* USER CODE BEGIN 1 */
  31:Core/Src/gpio.c **** 
  32:Core/Src/gpio.c **** /* USER CODE END 1 */
ARM GAS  /tmp/cc18Tnwx.s 			page 2


  33:Core/Src/gpio.c **** 
  34:Core/Src/gpio.c **** /** Configure pins as
  35:Core/Src/gpio.c ****  * Analog
  36:Core/Src/gpio.c ****  * Input
  37:Core/Src/gpio.c ****  * Output
  38:Core/Src/gpio.c ****  * EVENT_OUT
  39:Core/Src/gpio.c ****  * EXTI
  40:Core/Src/gpio.c ****  */
  41:Core/Src/gpio.c **** void MX_GPIO_Init(void)
  42:Core/Src/gpio.c **** {
  27              		.loc 1 42 1 view -0
  28              		.cfi_startproc
  29              		@ args = 0, pretend = 0, frame = 32
  30              		@ frame_needed = 0, uses_anonymous_args = 0
  31 0000 2DE9F047 		push	{r4, r5, r6, r7, r8, r9, r10, lr}
  32              	.LCFI0:
  33              		.cfi_def_cfa_offset 32
  34              		.cfi_offset 4, -32
  35              		.cfi_offset 5, -28
  36              		.cfi_offset 6, -24
  37              		.cfi_offset 7, -20
  38              		.cfi_offset 8, -16
  39              		.cfi_offset 9, -12
  40              		.cfi_offset 10, -8
  41              		.cfi_offset 14, -4
  42 0004 88B0     		sub	sp, sp, #32
  43              	.LCFI1:
  44              		.cfi_def_cfa_offset 64
  43:Core/Src/gpio.c **** 
  44:Core/Src/gpio.c ****   GPIO_InitTypeDef GPIO_InitStruct = {0};
  45              		.loc 1 44 3 view .LVU1
  46              		.loc 1 44 20 is_stmt 0 view .LVU2
  47 0006 0024     		movs	r4, #0
  48 0008 0494     		str	r4, [sp, #16]
  49 000a 0594     		str	r4, [sp, #20]
  50 000c 0694     		str	r4, [sp, #24]
  51 000e 0794     		str	r4, [sp, #28]
  45:Core/Src/gpio.c **** 
  46:Core/Src/gpio.c ****   /* GPIO Ports Clock Enable */
  47:Core/Src/gpio.c ****   __HAL_RCC_GPIOC_CLK_ENABLE();
  52              		.loc 1 47 3 is_stmt 1 view .LVU3
  53              	.LBB2:
  54              		.loc 1 47 3 view .LVU4
  55              		.loc 1 47 3 view .LVU5
  56 0010 4C4B     		ldr	r3, .L3
  57 0012 9A69     		ldr	r2, [r3, #24]
  58 0014 42F01002 		orr	r2, r2, #16
  59 0018 9A61     		str	r2, [r3, #24]
  60              		.loc 1 47 3 view .LVU6
  61 001a 9A69     		ldr	r2, [r3, #24]
  62 001c 02F01002 		and	r2, r2, #16
  63 0020 0092     		str	r2, [sp]
  64              		.loc 1 47 3 view .LVU7
  65 0022 009A     		ldr	r2, [sp]
  66              	.LBE2:
  67              		.loc 1 47 3 view .LVU8
  48:Core/Src/gpio.c ****   __HAL_RCC_GPIOD_CLK_ENABLE();
ARM GAS  /tmp/cc18Tnwx.s 			page 3


  68              		.loc 1 48 3 view .LVU9
  69              	.LBB3:
  70              		.loc 1 48 3 view .LVU10
  71              		.loc 1 48 3 view .LVU11
  72 0024 9A69     		ldr	r2, [r3, #24]
  73 0026 42F02002 		orr	r2, r2, #32
  74 002a 9A61     		str	r2, [r3, #24]
  75              		.loc 1 48 3 view .LVU12
  76 002c 9A69     		ldr	r2, [r3, #24]
  77 002e 02F02002 		and	r2, r2, #32
  78 0032 0192     		str	r2, [sp, #4]
  79              		.loc 1 48 3 view .LVU13
  80 0034 019A     		ldr	r2, [sp, #4]
  81              	.LBE3:
  82              		.loc 1 48 3 view .LVU14
  49:Core/Src/gpio.c ****   __HAL_RCC_GPIOA_CLK_ENABLE();
  83              		.loc 1 49 3 view .LVU15
  84              	.LBB4:
  85              		.loc 1 49 3 view .LVU16
  86              		.loc 1 49 3 view .LVU17
  87 0036 9A69     		ldr	r2, [r3, #24]
  88 0038 42F00402 		orr	r2, r2, #4
  89 003c 9A61     		str	r2, [r3, #24]
  90              		.loc 1 49 3 view .LVU18
  91 003e 9A69     		ldr	r2, [r3, #24]
  92 0040 02F00402 		and	r2, r2, #4
  93 0044 0292     		str	r2, [sp, #8]
  94              		.loc 1 49 3 view .LVU19
  95 0046 029A     		ldr	r2, [sp, #8]
  96              	.LBE4:
  97              		.loc 1 49 3 view .LVU20
  50:Core/Src/gpio.c ****   __HAL_RCC_GPIOB_CLK_ENABLE();
  98              		.loc 1 50 3 view .LVU21
  99              	.LBB5:
 100              		.loc 1 50 3 view .LVU22
 101              		.loc 1 50 3 view .LVU23
 102 0048 9A69     		ldr	r2, [r3, #24]
 103 004a 42F00802 		orr	r2, r2, #8
 104 004e 9A61     		str	r2, [r3, #24]
 105              		.loc 1 50 3 view .LVU24
 106 0050 9B69     		ldr	r3, [r3, #24]
 107 0052 03F00803 		and	r3, r3, #8
 108 0056 0393     		str	r3, [sp, #12]
 109              		.loc 1 50 3 view .LVU25
 110 0058 039B     		ldr	r3, [sp, #12]
 111              	.LBE5:
 112              		.loc 1 50 3 view .LVU26
  51:Core/Src/gpio.c **** 
  52:Core/Src/gpio.c ****   /*Configure GPIO pin Output Level */
  53:Core/Src/gpio.c ****   HAL_GPIO_WritePin(GPIOA, GPIO_PIN_2, GPIO_PIN_RESET);
 113              		.loc 1 53 3 view .LVU27
 114 005a DFF8F0A0 		ldr	r10, .L3+8
 115 005e 2246     		mov	r2, r4
 116 0060 0421     		movs	r1, #4
 117 0062 5046     		mov	r0, r10
 118 0064 FFF7FEFF 		bl	HAL_GPIO_WritePin
 119              	.LVL0:
ARM GAS  /tmp/cc18Tnwx.s 			page 4


  54:Core/Src/gpio.c ****    HAL_GPIO_WritePin(GPIOC, GPIO_PIN_2, GPIO_PIN_RESET);
 120              		.loc 1 54 4 view .LVU28
 121 0068 DFF8E490 		ldr	r9, .L3+12
 122 006c 2246     		mov	r2, r4
 123 006e 0421     		movs	r1, #4
 124 0070 4846     		mov	r0, r9
 125 0072 FFF7FEFF 		bl	HAL_GPIO_WritePin
 126              	.LVL1:
  55:Core/Src/gpio.c **** 
  56:Core/Src/gpio.c ****   /*Configure GPIO pin Output Level */
  57:Core/Src/gpio.c ****   HAL_GPIO_WritePin(GPIOB, GPIO_PIN_1 | GPIO_PIN_10 | GPIO_PIN_8 | GPIO_PIN_9, GPIO_PIN_RESET);
 127              		.loc 1 57 3 view .LVU29
 128 0076 344D     		ldr	r5, .L3+4
 129 0078 2246     		mov	r2, r4
 130 007a 40F20271 		movw	r1, #1794
 131 007e 2846     		mov	r0, r5
 132 0080 FFF7FEFF 		bl	HAL_GPIO_WritePin
 133              	.LVL2:
  58:Core/Src/gpio.c **** 
  59:Core/Src/gpio.c ****   /*Configure GPIO pin : PA2 */
  60:Core/Src/gpio.c ****   GPIO_InitStruct.Pin = GPIO_PIN_2;
 134              		.loc 1 60 3 view .LVU30
 135              		.loc 1 60 23 is_stmt 0 view .LVU31
 136 0084 0423     		movs	r3, #4
 137 0086 0493     		str	r3, [sp, #16]
  61:Core/Src/gpio.c ****   GPIO_InitStruct.Mode = GPIO_MODE_OUTPUT_PP;
 138              		.loc 1 61 3 is_stmt 1 view .LVU32
 139              		.loc 1 61 24 is_stmt 0 view .LVU33
 140 0088 0127     		movs	r7, #1
 141 008a 0597     		str	r7, [sp, #20]
  62:Core/Src/gpio.c ****   GPIO_InitStruct.Pull = GPIO_NOPULL;
 142              		.loc 1 62 3 is_stmt 1 view .LVU34
 143              		.loc 1 62 24 is_stmt 0 view .LVU35
 144 008c 0694     		str	r4, [sp, #24]
  63:Core/Src/gpio.c ****   GPIO_InitStruct.Speed = GPIO_SPEED_FREQ_LOW;
 145              		.loc 1 63 3 is_stmt 1 view .LVU36
 146              		.loc 1 63 25 is_stmt 0 view .LVU37
 147 008e 0226     		movs	r6, #2
 148 0090 0796     		str	r6, [sp, #28]
  64:Core/Src/gpio.c ****   HAL_GPIO_Init(GPIOA, &GPIO_InitStruct);
 149              		.loc 1 64 3 is_stmt 1 view .LVU38
 150 0092 04A9     		add	r1, sp, #16
 151 0094 5046     		mov	r0, r10
 152 0096 FFF7FEFF 		bl	HAL_GPIO_Init
 153              	.LVL3:
  65:Core/Src/gpio.c **** 
  66:Core/Src/gpio.c ****   /*Configure GPIO pins : PB1 PB10 PB8 PB9 */
  67:Core/Src/gpio.c ****   GPIO_InitStruct.Pin = GPIO_PIN_1  | GPIO_PIN_8 | GPIO_PIN_9|GPIO_PIN_12;
 154              		.loc 1 67 3 view .LVU39
 155              		.loc 1 67 23 is_stmt 0 view .LVU40
 156 009a 41F20233 		movw	r3, #4866
 157 009e 0493     		str	r3, [sp, #16]
  68:Core/Src/gpio.c ****   GPIO_InitStruct.Mode = GPIO_MODE_OUTPUT_PP;
 158              		.loc 1 68 3 is_stmt 1 view .LVU41
 159              		.loc 1 68 24 is_stmt 0 view .LVU42
 160 00a0 0597     		str	r7, [sp, #20]
  69:Core/Src/gpio.c ****   GPIO_InitStruct.Pull = GPIO_NOPULL;
ARM GAS  /tmp/cc18Tnwx.s 			page 5


 161              		.loc 1 69 3 is_stmt 1 view .LVU43
 162              		.loc 1 69 24 is_stmt 0 view .LVU44
 163 00a2 0694     		str	r4, [sp, #24]
  70:Core/Src/gpio.c ****   GPIO_InitStruct.Speed = GPIO_SPEED_FREQ_LOW;
 164              		.loc 1 70 3 is_stmt 1 view .LVU45
 165              		.loc 1 70 25 is_stmt 0 view .LVU46
 166 00a4 0796     		str	r6, [sp, #28]
  71:Core/Src/gpio.c ****   HAL_GPIO_Init(GPIOB, &GPIO_InitStruct);
 167              		.loc 1 71 3 is_stmt 1 view .LVU47
 168 00a6 04A9     		add	r1, sp, #16
 169 00a8 2846     		mov	r0, r5
 170 00aa FFF7FEFF 		bl	HAL_GPIO_Init
 171              	.LVL4:
  72:Core/Src/gpio.c **** 
  73:Core/Src/gpio.c ****   /*Configure GPIO pin : PC2 */
  74:Core/Src/gpio.c ****   GPIO_InitStruct.Pin = GPIO_PIN_2|GPIO_PIN_8;
 172              		.loc 1 74 3 view .LVU48
 173              		.loc 1 74 23 is_stmt 0 view .LVU49
 174 00ae 4FF48273 		mov	r3, #260
 175 00b2 0493     		str	r3, [sp, #16]
  75:Core/Src/gpio.c ****   GPIO_InitStruct.Mode = GPIO_MODE_OUTPUT_PP;
 176              		.loc 1 75 3 is_stmt 1 view .LVU50
 177              		.loc 1 75 24 is_stmt 0 view .LVU51
 178 00b4 0597     		str	r7, [sp, #20]
  76:Core/Src/gpio.c ****   GPIO_InitStruct.Pull = GPIO_NOPULL;
 179              		.loc 1 76 3 is_stmt 1 view .LVU52
 180              		.loc 1 76 24 is_stmt 0 view .LVU53
 181 00b6 0694     		str	r4, [sp, #24]
  77:Core/Src/gpio.c ****   HAL_GPIO_Init(GPIOC, &GPIO_InitStruct);
 182              		.loc 1 77 3 is_stmt 1 view .LVU54
 183 00b8 04A9     		add	r1, sp, #16
 184 00ba 4846     		mov	r0, r9
 185 00bc FFF7FEFF 		bl	HAL_GPIO_Init
 186              	.LVL5:
  78:Core/Src/gpio.c **** 
  79:Core/Src/gpio.c ****   GPIO_InitStruct.Pin = GPIO_PIN_7|GPIO_PIN_8;
 187              		.loc 1 79 3 view .LVU55
 188              		.loc 1 79 23 is_stmt 0 view .LVU56
 189 00c0 4FF4C073 		mov	r3, #384
 190 00c4 0493     		str	r3, [sp, #16]
  80:Core/Src/gpio.c ****   GPIO_InitStruct.Mode = GPIO_MODE_AF_PP;
 191              		.loc 1 80 3 is_stmt 1 view .LVU57
 192              		.loc 1 80 24 is_stmt 0 view .LVU58
 193 00c6 0596     		str	r6, [sp, #20]
  81:Core/Src/gpio.c ****   GPIO_InitStruct.Speed = GPIO_SPEED_FREQ_HIGH;
 194              		.loc 1 81 3 is_stmt 1 view .LVU59
 195              		.loc 1 81 25 is_stmt 0 view .LVU60
 196 00c8 4FF00308 		mov	r8, #3
 197 00cc CDF81C80 		str	r8, [sp, #28]
  82:Core/Src/gpio.c ****   HAL_GPIO_Init(GPIOA, &GPIO_InitStruct);
 198              		.loc 1 82 3 is_stmt 1 view .LVU61
 199 00d0 04A9     		add	r1, sp, #16
 200 00d2 5046     		mov	r0, r10
 201 00d4 FFF7FEFF 		bl	HAL_GPIO_Init
 202              	.LVL6:
  83:Core/Src/gpio.c **** 
  84:Core/Src/gpio.c **** 
ARM GAS  /tmp/cc18Tnwx.s 			page 6


  85:Core/Src/gpio.c ****   GPIO_InitStruct.Pin   = GPIO_PIN_7;
 203              		.loc 1 85 3 view .LVU62
 204              		.loc 1 85 25 is_stmt 0 view .LVU63
 205 00d8 8023     		movs	r3, #128
 206 00da 0493     		str	r3, [sp, #16]
  86:Core/Src/gpio.c ****   GPIO_InitStruct.Mode  = GPIO_MODE_AF_PP;
 207              		.loc 1 86 3 is_stmt 1 view .LVU64
 208              		.loc 1 86 25 is_stmt 0 view .LVU65
 209 00dc 0596     		str	r6, [sp, #20]
  87:Core/Src/gpio.c ****   GPIO_InitStruct.Speed = GPIO_SPEED_FREQ_HIGH;
 210              		.loc 1 87 3 is_stmt 1 view .LVU66
 211              		.loc 1 87 25 is_stmt 0 view .LVU67
 212 00de CDF81C80 		str	r8, [sp, #28]
  88:Core/Src/gpio.c ****   HAL_GPIO_Init(GPIOC, &GPIO_InitStruct);
 213              		.loc 1 88 3 is_stmt 1 view .LVU68
 214 00e2 04A9     		add	r1, sp, #16
 215 00e4 4846     		mov	r0, r9
 216 00e6 FFF7FEFF 		bl	HAL_GPIO_Init
 217              	.LVL7:
  89:Core/Src/gpio.c **** 
  90:Core/Src/gpio.c ****   /* PB0: AF_PP 50MHz (TIM8_CH2N) */
  91:Core/Src/gpio.c ****   GPIO_InitStruct.Pin   = GPIO_PIN_0;
 218              		.loc 1 91 3 view .LVU69
 219              		.loc 1 91 25 is_stmt 0 view .LVU70
 220 00ea 0497     		str	r7, [sp, #16]
  92:Core/Src/gpio.c ****   GPIO_InitStruct.Mode  = GPIO_MODE_AF_PP;
 221              		.loc 1 92 3 is_stmt 1 view .LVU71
 222              		.loc 1 92 25 is_stmt 0 view .LVU72
 223 00ec 0596     		str	r6, [sp, #20]
  93:Core/Src/gpio.c ****   GPIO_InitStruct.Speed = GPIO_SPEED_FREQ_HIGH;
 224              		.loc 1 93 3 is_stmt 1 view .LVU73
 225              		.loc 1 93 25 is_stmt 0 view .LVU74
 226 00ee CDF81C80 		str	r8, [sp, #28]
  94:Core/Src/gpio.c ****   HAL_GPIO_Init(GPIOB, &GPIO_InitStruct);
 227              		.loc 1 94 3 is_stmt 1 view .LVU75
 228 00f2 04A9     		add	r1, sp, #16
 229 00f4 2846     		mov	r0, r5
 230 00f6 FFF7FEFF 		bl	HAL_GPIO_Init
 231              	.LVL8:
  95:Core/Src/gpio.c **** 
  96:Core/Src/gpio.c ****   GPIO_InitStruct.Pin = GPIO_PIN_5;
 232              		.loc 1 96 3 view .LVU76
 233              		.loc 1 96 23 is_stmt 0 view .LVU77
 234 00fa 2023     		movs	r3, #32
 235 00fc 0493     		str	r3, [sp, #16]
  97:Core/Src/gpio.c ****   GPIO_InitStruct.Mode = GPIO_MODE_OUTPUT_PP;
 236              		.loc 1 97 3 is_stmt 1 view .LVU78
 237              		.loc 1 97 24 is_stmt 0 view .LVU79
 238 00fe 0597     		str	r7, [sp, #20]
  98:Core/Src/gpio.c ****   GPIO_InitStruct.Pull = GPIO_NOPULL;
 239              		.loc 1 98 3 is_stmt 1 view .LVU80
 240              		.loc 1 98 24 is_stmt 0 view .LVU81
 241 0100 0694     		str	r4, [sp, #24]
  99:Core/Src/gpio.c ****   GPIO_InitStruct.Speed = GPIO_SPEED_FREQ_LOW;
 242              		.loc 1 99 3 is_stmt 1 view .LVU82
 243              		.loc 1 99 25 is_stmt 0 view .LVU83
 244 0102 0796     		str	r6, [sp, #28]
ARM GAS  /tmp/cc18Tnwx.s 			page 7


 100:Core/Src/gpio.c ****   HAL_GPIO_Init(GPIOB, &GPIO_InitStruct);
 245              		.loc 1 100 3 is_stmt 1 view .LVU84
 246 0104 04A9     		add	r1, sp, #16
 247 0106 2846     		mov	r0, r5
 248 0108 FFF7FEFF 		bl	HAL_GPIO_Init
 249              	.LVL9:
 101:Core/Src/gpio.c **** 
 102:Core/Src/gpio.c ****   HAL_GPIO_WritePin(GPIOB,GPIO_PIN_8,GPIO_PIN_RESET);
 250              		.loc 1 102 3 view .LVU85
 251 010c 2246     		mov	r2, r4
 252 010e 4FF48071 		mov	r1, #256
 253 0112 2846     		mov	r0, r5
 254 0114 FFF7FEFF 		bl	HAL_GPIO_WritePin
 255              	.LVL10:
 103:Core/Src/gpio.c ****   /* PB10 -> USART3_TX */
 104:Core/Src/gpio.c **** GPIO_InitStruct.Pin = GPIO_PIN_10;
 256              		.loc 1 104 1 view .LVU86
 257              		.loc 1 104 21 is_stmt 0 view .LVU87
 258 0118 4FF48063 		mov	r3, #1024
 259 011c 0493     		str	r3, [sp, #16]
 105:Core/Src/gpio.c **** GPIO_InitStruct.Mode = GPIO_MODE_AF_PP;
 260              		.loc 1 105 1 is_stmt 1 view .LVU88
 261              		.loc 1 105 22 is_stmt 0 view .LVU89
 262 011e 0596     		str	r6, [sp, #20]
 106:Core/Src/gpio.c **** GPIO_InitStruct.Speed = GPIO_SPEED_FREQ_HIGH;
 263              		.loc 1 106 1 is_stmt 1 view .LVU90
 264              		.loc 1 106 23 is_stmt 0 view .LVU91
 265 0120 CDF81C80 		str	r8, [sp, #28]
 107:Core/Src/gpio.c **** HAL_GPIO_Init(GPIOB, &GPIO_InitStruct);
 266              		.loc 1 107 1 is_stmt 1 view .LVU92
 267 0124 04A9     		add	r1, sp, #16
 268 0126 2846     		mov	r0, r5
 269 0128 FFF7FEFF 		bl	HAL_GPIO_Init
 270              	.LVL11:
 108:Core/Src/gpio.c **** 
 109:Core/Src/gpio.c **** /* PB11 -> USART3_RX */
 110:Core/Src/gpio.c **** GPIO_InitStruct.Pin = GPIO_PIN_11;
 271              		.loc 1 110 1 view .LVU93
 272              		.loc 1 110 21 is_stmt 0 view .LVU94
 273 012c 4FF40063 		mov	r3, #2048
 274 0130 0493     		str	r3, [sp, #16]
 111:Core/Src/gpio.c **** GPIO_InitStruct.Mode = GPIO_MODE_INPUT;
 275              		.loc 1 111 1 is_stmt 1 view .LVU95
 276              		.loc 1 111 22 is_stmt 0 view .LVU96
 277 0132 0594     		str	r4, [sp, #20]
 112:Core/Src/gpio.c **** GPIO_InitStruct.Pull = GPIO_NOPULL;
 278              		.loc 1 112 1 is_stmt 1 view .LVU97
 279              		.loc 1 112 22 is_stmt 0 view .LVU98
 280 0134 0694     		str	r4, [sp, #24]
 113:Core/Src/gpio.c **** HAL_GPIO_Init(GPIOB, &GPIO_InitStruct);
 281              		.loc 1 113 1 is_stmt 1 view .LVU99
 282 0136 04A9     		add	r1, sp, #16
 283 0138 2846     		mov	r0, r5
 284 013a FFF7FEFF 		bl	HAL_GPIO_Init
 285              	.LVL12:
 114:Core/Src/gpio.c **** }
 286              		.loc 1 114 1 is_stmt 0 view .LVU100
ARM GAS  /tmp/cc18Tnwx.s 			page 8


 287 013e 08B0     		add	sp, sp, #32
 288              	.LCFI2:
 289              		.cfi_def_cfa_offset 32
 290              		@ sp needed
 291 0140 BDE8F087 		pop	{r4, r5, r6, r7, r8, r9, r10, pc}
 292              	.L4:
 293              		.align	2
 294              	.L3:
 295 0144 00100240 		.word	1073876992
 296 0148 000C0140 		.word	1073810432
 297 014c 00080140 		.word	1073809408
 298 0150 00100140 		.word	1073811456
 299              		.cfi_endproc
 300              	.LFE65:
 302              		.text
 303              	.Letext0:
 304              		.file 2 "/opt/gcc-arm-none-eabi-9-2020-q2-update/arm-none-eabi/include/machine/_default_types.h"
 305              		.file 3 "/opt/gcc-arm-none-eabi-9-2020-q2-update/arm-none-eabi/include/sys/_stdint.h"
 306              		.file 4 "Drivers/CMSIS/Include/core_cm3.h"
 307              		.file 5 "Drivers/CMSIS/Device/ST/STM32F1xx/Include/system_stm32f1xx.h"
 308              		.file 6 "Drivers/CMSIS/Device/ST/STM32F1xx/Include/stm32f103xe.h"
 309              		.file 7 "Drivers/STM32F1xx_HAL_Driver/Inc/stm32f1xx_hal_gpio.h"
 310              		.file 8 "Drivers/STM32F1xx_HAL_Driver/Inc/stm32f1xx_hal.h"
ARM GAS  /tmp/cc18Tnwx.s 			page 9

