ARM GAS  /tmp/ccRuehTO.s 			page 1


   1              		.cpu cortex-m3
   2              		.eabi_attribute 20, 1
   3              		.eabi_attribute 21, 1
   4              		.eabi_attribute 23, 3
   5              		.eabi_attribute 24, 1
   6              		.eabi_attribute 25, 1
   7              		.eabi_attribute 26, 1
   8              		.eabi_attribute 30, 1
   9              		.eabi_attribute 34, 1
  10              		.eabi_attribute 18, 4
  11              		.file	"main.c"
  12              		.text
  13              	.Ltext0:
  14              		.cfi_sections	.debug_frame
  15              		.section	.text.Error_Handler,"ax",%progbits
  16              		.align	1
  17              		.global	Error_Handler
  18              		.arch armv7-m
  19              		.syntax unified
  20              		.thumb
  21              		.thumb_func
  22              		.fpu softvfp
  24              	Error_Handler:
  25              	.LFB67:
  26              		.file 1 "Core/Src/main.c"
   1:Core/Src/main.c **** /* USER CODE BEGIN Header */
   2:Core/Src/main.c **** /**
   3:Core/Src/main.c ****  ******************************************************************************
   4:Core/Src/main.c ****  * @file           : main.c
   5:Core/Src/main.c ****  * @brief          : Main program body
   6:Core/Src/main.c ****  ******************************************************************************
   7:Core/Src/main.c ****  * @attention
   8:Core/Src/main.c ****  *
   9:Core/Src/main.c ****  * <h2><center>&copy; Copyright (c) 2025 STMicroelectronics.
  10:Core/Src/main.c ****  * All rights reserved.</center></h2>
  11:Core/Src/main.c ****  *
  12:Core/Src/main.c ****  * This software component is licensed by ST under BSD 3-Clause license,
  13:Core/Src/main.c ****  * the "License"; You may not use this file except in compliance with the
  14:Core/Src/main.c ****  * License. You may obtain a copy of the License at:
  15:Core/Src/main.c ****  *                        opensource.org/licenses/BSD-3-Clause
  16:Core/Src/main.c ****  *
  17:Core/Src/main.c ****  ******************************************************************************
  18:Core/Src/main.c ****  */
  19:Core/Src/main.c **** /* USER CODE END Header */
  20:Core/Src/main.c **** /* Includes ------------------------------------------------------------------*/
  21:Core/Src/main.c **** #include "main.h"
  22:Core/Src/main.c **** #include "spi.h"
  23:Core/Src/main.c **** #include "tim.h"
  24:Core/Src/main.c **** #include "usb.h"
  25:Core/Src/main.c **** #include "gpio.h"
  26:Core/Src/main.c **** #include "diff_signal.h"
  27:Core/Src/main.c **** #include "stdint.h"
  28:Core/Src/main.c **** #include "ADXL345.h"
  29:Core/Src/main.c **** #include "DHT22.h"
  30:Core/Src/main.c **** #include "stm32f1xx_hal_gpio_ex.h"
  31:Core/Src/main.c **** #include "diff_signal.h"
  32:Core/Src/main.c **** #include "SEGGER_RTT.h"
ARM GAS  /tmp/ccRuehTO.s 			page 2


  33:Core/Src/main.c **** #include "Custcom_Pin.h"
  34:Core/Src/main.c **** #include "eeprom.h"
  35:Core/Src/main.c **** /* Private includes ----------------------------------------------------------*/
  36:Core/Src/main.c **** /* USER CODE BEGIN Includes */
  37:Core/Src/main.c **** 
  38:Core/Src/main.c **** /* USER CODE END Includes */
  39:Core/Src/main.c **** 
  40:Core/Src/main.c **** /* Private typedef -----------------------------------------------------------*/
  41:Core/Src/main.c **** /* USER CODE BEGIN PTD */
  42:Core/Src/main.c **** 
  43:Core/Src/main.c **** /* USER CODE END PTD */
  44:Core/Src/main.c **** 
  45:Core/Src/main.c **** /* Private define ------------------------------------------------------------*/
  46:Core/Src/main.c **** /* USER CODE BEGIN PD */
  47:Core/Src/main.c **** /* USER CODE END PD */
  48:Core/Src/main.c **** 
  49:Core/Src/main.c **** /* Private macro -------------------------------------------------------------*/
  50:Core/Src/main.c **** /* USER CODE BEGIN PM */
  51:Core/Src/main.c **** 
  52:Core/Src/main.c **** /* USER CODE END PM */
  53:Core/Src/main.c **** 
  54:Core/Src/main.c **** /* Private variables ---------------------------------------------------------*/
  55:Core/Src/main.c **** 
  56:Core/Src/main.c **** /* USER CODE BEGIN PV */
  57:Core/Src/main.c **** 
  58:Core/Src/main.c **** /* USER CODE END PV */
  59:Core/Src/main.c **** 
  60:Core/Src/main.c **** /* Private function prototypes -----------------------------------------------*/
  61:Core/Src/main.c **** void SystemClock_Config(void);
  62:Core/Src/main.c **** /* USER CODE BEGIN PFP */
  63:Core/Src/main.c **** 
  64:Core/Src/main.c **** /* USER CODE END PFP */
  65:Core/Src/main.c **** 
  66:Core/Src/main.c **** /* Private user code ---------------------------------------------------------*/
  67:Core/Src/main.c **** /* USER CODE BEGIN 0 */
  68:Core/Src/main.c **** 
  69:Core/Src/main.c **** /* USER CODE END 0 */
  70:Core/Src/main.c **** 
  71:Core/Src/main.c **** /**
  72:Core/Src/main.c ****  * @brief  The application entry point.
  73:Core/Src/main.c ****  * @retval int
  74:Core/Src/main.c ****  */
  75:Core/Src/main.c **** int main(void)
  76:Core/Src/main.c **** {
  77:Core/Src/main.c ****   /* USER CODE BEGIN 1 */
  78:Core/Src/main.c **** 
  79:Core/Src/main.c ****   /* USER CODE END 1 */
  80:Core/Src/main.c **** 
  81:Core/Src/main.c ****   /* MCU Configuration--------------------------------------------------------*/
  82:Core/Src/main.c **** 
  83:Core/Src/main.c ****   /* Reset of all peripherals, Initializes the Flash interface and the Systick. */
  84:Core/Src/main.c ****   HAL_Init();
  85:Core/Src/main.c ****   myprintf("hal_init success\n");
  86:Core/Src/main.c ****   SystemClock_Config();
  87:Core/Src/main.c ****   myprintf("systemclock init success\n");
  88:Core/Src/main.c ****   /* USER CODE BEGIN Init */
  89:Core/Src/main.c ****   /* USER CODE END Init */
ARM GAS  /tmp/ccRuehTO.s 			page 3


  90:Core/Src/main.c **** 
  91:Core/Src/main.c ****   /* Configure the system clock */
  92:Core/Src/main.c **** 
  93:Core/Src/main.c ****   /* USER CODE BEGIN SysInit */
  94:Core/Src/main.c **** 
  95:Core/Src/main.c ****   /* USER CODE END SysInit */
  96:Core/Src/main.c **** 
  97:Core/Src/main.c ****   /* Initialize all configured peripherals */
  98:Core/Src/main.c ****   __HAL_AFIO_REMAP_SWJ_NOJTAG();
  99:Core/Src/main.c ****   MX_GPIO_Init();
 100:Core/Src/main.c ****   MX_SPI2_Init();
 101:Core/Src/main.c ****   MX_TIM1_Init();
 102:Core/Src/main.c ****   MX_TIM3_Init();
 103:Core/Src/main.c ****   // MX_USB_PCD_Init();
 104:Core/Src/main.c ****   MX_TIM8_Init();
 105:Core/Src/main.c ****   ADXL345_Init();
 106:Core/Src/main.c ****   DiffSignal_Init();
 107:Core/Src/main.c **** 
 108:Core/Src/main.c ****   HAL_Delay(100);
 109:Core/Src/main.c ****   DHT22_Init();
 110:Core/Src/main.c ****   EEPROM_Init();
 111:Core/Src/main.c ****   myprintf("peripheral init success\n");
 112:Core/Src/main.c ****   HAL_Delay(2000);
 113:Core/Src/main.c ****   /* USER CODE BEGIN 2 */
 114:Core/Src/main.c **** 
 115:Core/Src/main.c ****   /* USER CODE END 2 */
 116:Core/Src/main.c **** 
 117:Core/Src/main.c ****   /* Infinite loop */
 118:Core/Src/main.c **** 
 119:Core/Src/main.c ****   /* USER CODE BEGIN WHILE */
 120:Core/Src/main.c ****   // float x,y,z = 0;
 121:Core/Src/main.c ****   // uint8_t err_code = 0x00;
 122:Core/Src/main.c ****   float hum, temp = 0;
 123:Core/Src/main.c ****   uint8_t buff[10] = {0x01, 0x02, 0x03, 0x04, 0x05, 0x06, 0x07, 0x08, 0x09, 0x0a};
 124:Core/Src/main.c ****   uint8_t rev_buf[10] = {0x00};
 125:Core/Src/main.c ****   uint8_t dht22_read_error_code = 0x00; 
 126:Core/Src/main.c ****   while (1)
 127:Core/Src/main.c ****   {
 128:Core/Src/main.c ****     
 129:Core/Src/main.c ****     dht22_read_error_code = DHT22_ReadData(&temp, &hum);
 130:Core/Src/main.c ****     myprintf("dht22_read_code_error is %d\n",dht22_read_error_code);
 131:Core/Src/main.c ****     myprintf("temp%fhum%f\n",temp,hum);
 132:Core/Src/main.c ****     //     EEPROM_WriteBuffer(0x00,buff,10);
 133:Core/Src/main.c **** 
 134:Core/Src/main.c ****     // EEPROM_ReadBuffer(0x00,rev_buf,10);
 135:Core/Src/main.c ****     // for(int i =0;i<10;i++)
 136:Core/Src/main.c ****     // {
 137:Core/Src/main.c ****     //   myprintf("buf is %x\n",rev_buf[i]);
 138:Core/Src/main.c ****     // }
 139:Core/Src/main.c ****     HAL_Delay(3000);
 140:Core/Src/main.c ****     /* USER CODE END WHILE */
 141:Core/Src/main.c ****     /* USER CODE BEGIN 3 */
 142:Core/Src/main.c ****   }
 143:Core/Src/main.c ****   /* USER CODE END 3 */
 144:Core/Src/main.c **** }
 145:Core/Src/main.c **** 
 146:Core/Src/main.c **** /**
ARM GAS  /tmp/ccRuehTO.s 			page 4


 147:Core/Src/main.c ****  * @brief System Clock Configuration
 148:Core/Src/main.c ****  * @retval None
 149:Core/Src/main.c ****  */
 150:Core/Src/main.c **** void SystemClock_Config(void)
 151:Core/Src/main.c **** {
 152:Core/Src/main.c ****   RCC_OscInitTypeDef RCC_OscInitStruct = {0};
 153:Core/Src/main.c ****   RCC_ClkInitTypeDef RCC_ClkInitStruct = {0};
 154:Core/Src/main.c ****   RCC_PeriphCLKInitTypeDef PeriphClkInit = {0};
 155:Core/Src/main.c **** 
 156:Core/Src/main.c ****   /** 配置外部晶振 HSE 和 PLL */
 157:Core/Src/main.c ****   RCC_OscInitStruct.OscillatorType = RCC_OSCILLATORTYPE_HSE; // 使用外部晶振
 158:Core/Src/main.c ****   RCC_OscInitStruct.HSEState = RCC_HSE_ON;                   // 打开 HSE
 159:Core/Src/main.c ****   RCC_OscInitStruct.HSEPredivValue = RCC_HSE_PREDIV_DIV1;    // HSE不分频
 160:Core/Src/main.c ****   RCC_OscInitStruct.HSIState = RCC_HSI_ON;                   // 打开 HSI（备份）
 161:Core/Src/main.c ****   RCC_OscInitStruct.PLL.PLLState = RCC_PLL_ON;               // 打开 PLL
 162:Core/Src/main.c ****   RCC_OscInitStruct.PLL.PLLSource = RCC_PLLSOURCE_HSE;       // PLL输入源为HSE
 163:Core/Src/main.c ****   RCC_OscInitStruct.PLL.PLLMUL = RCC_PLL_MUL9;               // 8 MHz × 9 = 72 MHz
 164:Core/Src/main.c **** 
 165:Core/Src/main.c ****   if (HAL_RCC_OscConfig(&RCC_OscInitStruct) != HAL_OK)
 166:Core/Src/main.c ****   {
 167:Core/Src/main.c ****     myprintf("error 1\n");
 168:Core/Src/main.c ****     Error_Handler();
 169:Core/Src/main.c ****   }
 170:Core/Src/main.c **** 
 171:Core/Src/main.c ****   /** 初始化系统总线时钟 */
 172:Core/Src/main.c ****   RCC_ClkInitStruct.ClockType = RCC_CLOCKTYPE_HCLK | RCC_CLOCKTYPE_SYSCLK |
 173:Core/Src/main.c ****                                 RCC_CLOCKTYPE_PCLK1 | RCC_CLOCKTYPE_PCLK2;
 174:Core/Src/main.c ****   RCC_ClkInitStruct.SYSCLKSource = RCC_SYSCLKSOURCE_PLLCLK; // SYSCLK = PLL 输出 = 72 MHz
 175:Core/Src/main.c ****   RCC_ClkInitStruct.AHBCLKDivider = RCC_SYSCLK_DIV1;        // HCLK = 72 MHz
 176:Core/Src/main.c ****   RCC_ClkInitStruct.APB1CLKDivider = RCC_HCLK_DIV2;         // PCLK1 = 36 MHz (需 ≤ 36 MHz)
 177:Core/Src/main.c ****   RCC_ClkInitStruct.APB2CLKDivider = RCC_HCLK_DIV1;         // PCLK2 = 72 MHz
 178:Core/Src/main.c **** 
 179:Core/Src/main.c ****   if (HAL_RCC_ClockConfig(&RCC_ClkInitStruct, FLASH_LATENCY_2) != HAL_OK)
 180:Core/Src/main.c ****   {
 181:Core/Src/main.c ****     myprintf("error 2\n");
 182:Core/Src/main.c ****     Error_Handler();
 183:Core/Src/main.c ****   }
 184:Core/Src/main.c **** 
 185:Core/Src/main.c ****   /** 设置 USB 时钟为 48 MHz（需要 SYSCLK = 72 MHz）*/
 186:Core/Src/main.c ****   PeriphClkInit.PeriphClockSelection = RCC_PERIPHCLK_USB;
 187:Core/Src/main.c ****   PeriphClkInit.UsbClockSelection = RCC_USBCLKSOURCE_PLL_DIV1_5; // 72 MHz / 1.5 = 48 MHz
 188:Core/Src/main.c **** 
 189:Core/Src/main.c ****   if (HAL_RCCEx_PeriphCLKConfig(&PeriphClkInit) != HAL_OK)
 190:Core/Src/main.c ****   {
 191:Core/Src/main.c ****     myprintf("error 3\n");
 192:Core/Src/main.c ****     Error_Handler();
 193:Core/Src/main.c ****   }
 194:Core/Src/main.c **** }
 195:Core/Src/main.c **** 
 196:Core/Src/main.c **** /* USER CODE BEGIN 4 */
 197:Core/Src/main.c **** 
 198:Core/Src/main.c **** /* USER CODE END 4 */
 199:Core/Src/main.c **** 
 200:Core/Src/main.c **** /**
 201:Core/Src/main.c ****  * @brief  This function is executed in case of error occurrence.
 202:Core/Src/main.c ****  * @retval None
 203:Core/Src/main.c ****  */
ARM GAS  /tmp/ccRuehTO.s 			page 5


 204:Core/Src/main.c **** void Error_Handler(void)
 205:Core/Src/main.c **** {
  27              		.loc 1 205 1 view -0
  28              		.cfi_startproc
  29              		@ Volatile: function does not return.
  30              		@ args = 0, pretend = 0, frame = 0
  31              		@ frame_needed = 0, uses_anonymous_args = 0
  32              		@ link register save eliminated.
 206:Core/Src/main.c ****   /* USER CODE BEGIN Error_Handler_Debug */
 207:Core/Src/main.c ****   /* User can add his own implementation to report the HAL error return state */
 208:Core/Src/main.c ****   __disable_irq();
  33              		.loc 1 208 3 view .LVU1
  34              	.LBB4:
  35              	.LBI4:
  36              		.file 2 "Drivers/CMSIS/Include/cmsis_gcc.h"
   1:Drivers/CMSIS/Include/cmsis_gcc.h **** /**************************************************************************//**
   2:Drivers/CMSIS/Include/cmsis_gcc.h ****  * @file     cmsis_gcc.h
   3:Drivers/CMSIS/Include/cmsis_gcc.h ****  * @brief    CMSIS compiler GCC header file
   4:Drivers/CMSIS/Include/cmsis_gcc.h ****  * @version  V5.0.4
   5:Drivers/CMSIS/Include/cmsis_gcc.h ****  * @date     09. April 2018
   6:Drivers/CMSIS/Include/cmsis_gcc.h ****  ******************************************************************************/
   7:Drivers/CMSIS/Include/cmsis_gcc.h **** /*
   8:Drivers/CMSIS/Include/cmsis_gcc.h ****  * Copyright (c) 2009-2018 Arm Limited. All rights reserved.
   9:Drivers/CMSIS/Include/cmsis_gcc.h ****  *
  10:Drivers/CMSIS/Include/cmsis_gcc.h ****  * SPDX-License-Identifier: Apache-2.0
  11:Drivers/CMSIS/Include/cmsis_gcc.h ****  *
  12:Drivers/CMSIS/Include/cmsis_gcc.h ****  * Licensed under the Apache License, Version 2.0 (the License); you may
  13:Drivers/CMSIS/Include/cmsis_gcc.h ****  * not use this file except in compliance with the License.
  14:Drivers/CMSIS/Include/cmsis_gcc.h ****  * You may obtain a copy of the License at
  15:Drivers/CMSIS/Include/cmsis_gcc.h ****  *
  16:Drivers/CMSIS/Include/cmsis_gcc.h ****  * www.apache.org/licenses/LICENSE-2.0
  17:Drivers/CMSIS/Include/cmsis_gcc.h ****  *
  18:Drivers/CMSIS/Include/cmsis_gcc.h ****  * Unless required by applicable law or agreed to in writing, software
  19:Drivers/CMSIS/Include/cmsis_gcc.h ****  * distributed under the License is distributed on an AS IS BASIS, WITHOUT
  20:Drivers/CMSIS/Include/cmsis_gcc.h ****  * WARRANTIES OR CONDITIONS OF ANY KIND, either express or implied.
  21:Drivers/CMSIS/Include/cmsis_gcc.h ****  * See the License for the specific language governing permissions and
  22:Drivers/CMSIS/Include/cmsis_gcc.h ****  * limitations under the License.
  23:Drivers/CMSIS/Include/cmsis_gcc.h ****  */
  24:Drivers/CMSIS/Include/cmsis_gcc.h **** 
  25:Drivers/CMSIS/Include/cmsis_gcc.h **** #ifndef __CMSIS_GCC_H
  26:Drivers/CMSIS/Include/cmsis_gcc.h **** #define __CMSIS_GCC_H
  27:Drivers/CMSIS/Include/cmsis_gcc.h **** 
  28:Drivers/CMSIS/Include/cmsis_gcc.h **** /* ignore some GCC warnings */
  29:Drivers/CMSIS/Include/cmsis_gcc.h **** #pragma GCC diagnostic push
  30:Drivers/CMSIS/Include/cmsis_gcc.h **** #pragma GCC diagnostic ignored "-Wsign-conversion"
  31:Drivers/CMSIS/Include/cmsis_gcc.h **** #pragma GCC diagnostic ignored "-Wconversion"
  32:Drivers/CMSIS/Include/cmsis_gcc.h **** #pragma GCC diagnostic ignored "-Wunused-parameter"
  33:Drivers/CMSIS/Include/cmsis_gcc.h **** 
  34:Drivers/CMSIS/Include/cmsis_gcc.h **** /* Fallback for __has_builtin */
  35:Drivers/CMSIS/Include/cmsis_gcc.h **** #ifndef __has_builtin
  36:Drivers/CMSIS/Include/cmsis_gcc.h ****   #define __has_builtin(x) (0)
  37:Drivers/CMSIS/Include/cmsis_gcc.h **** #endif
  38:Drivers/CMSIS/Include/cmsis_gcc.h **** 
  39:Drivers/CMSIS/Include/cmsis_gcc.h **** /* CMSIS compiler specific defines */
  40:Drivers/CMSIS/Include/cmsis_gcc.h **** #ifndef   __ASM
  41:Drivers/CMSIS/Include/cmsis_gcc.h ****   #define __ASM                                  __asm
  42:Drivers/CMSIS/Include/cmsis_gcc.h **** #endif
ARM GAS  /tmp/ccRuehTO.s 			page 6


  43:Drivers/CMSIS/Include/cmsis_gcc.h **** #ifndef   __INLINE
  44:Drivers/CMSIS/Include/cmsis_gcc.h ****   #define __INLINE                               inline
  45:Drivers/CMSIS/Include/cmsis_gcc.h **** #endif
  46:Drivers/CMSIS/Include/cmsis_gcc.h **** #ifndef   __STATIC_INLINE
  47:Drivers/CMSIS/Include/cmsis_gcc.h ****   #define __STATIC_INLINE                        static inline
  48:Drivers/CMSIS/Include/cmsis_gcc.h **** #endif
  49:Drivers/CMSIS/Include/cmsis_gcc.h **** #ifndef   __STATIC_FORCEINLINE                 
  50:Drivers/CMSIS/Include/cmsis_gcc.h ****   #define __STATIC_FORCEINLINE                   __attribute__((always_inline)) static inline
  51:Drivers/CMSIS/Include/cmsis_gcc.h **** #endif                                           
  52:Drivers/CMSIS/Include/cmsis_gcc.h **** #ifndef   __NO_RETURN
  53:Drivers/CMSIS/Include/cmsis_gcc.h ****   #define __NO_RETURN                            __attribute__((__noreturn__))
  54:Drivers/CMSIS/Include/cmsis_gcc.h **** #endif
  55:Drivers/CMSIS/Include/cmsis_gcc.h **** #ifndef   __USED
  56:Drivers/CMSIS/Include/cmsis_gcc.h ****   #define __USED                                 __attribute__((used))
  57:Drivers/CMSIS/Include/cmsis_gcc.h **** #endif
  58:Drivers/CMSIS/Include/cmsis_gcc.h **** #ifndef   __WEAK
  59:Drivers/CMSIS/Include/cmsis_gcc.h ****   #define __WEAK                                 __attribute__((weak))
  60:Drivers/CMSIS/Include/cmsis_gcc.h **** #endif
  61:Drivers/CMSIS/Include/cmsis_gcc.h **** #ifndef   __PACKED
  62:Drivers/CMSIS/Include/cmsis_gcc.h ****   #define __PACKED                               __attribute__((packed, aligned(1)))
  63:Drivers/CMSIS/Include/cmsis_gcc.h **** #endif
  64:Drivers/CMSIS/Include/cmsis_gcc.h **** #ifndef   __PACKED_STRUCT
  65:Drivers/CMSIS/Include/cmsis_gcc.h ****   #define __PACKED_STRUCT                        struct __attribute__((packed, aligned(1)))
  66:Drivers/CMSIS/Include/cmsis_gcc.h **** #endif
  67:Drivers/CMSIS/Include/cmsis_gcc.h **** #ifndef   __PACKED_UNION
  68:Drivers/CMSIS/Include/cmsis_gcc.h ****   #define __PACKED_UNION                         union __attribute__((packed, aligned(1)))
  69:Drivers/CMSIS/Include/cmsis_gcc.h **** #endif
  70:Drivers/CMSIS/Include/cmsis_gcc.h **** #ifndef   __UNALIGNED_UINT32        /* deprecated */
  71:Drivers/CMSIS/Include/cmsis_gcc.h ****   #pragma GCC diagnostic push
  72:Drivers/CMSIS/Include/cmsis_gcc.h ****   #pragma GCC diagnostic ignored "-Wpacked"
  73:Drivers/CMSIS/Include/cmsis_gcc.h ****   #pragma GCC diagnostic ignored "-Wattributes"
  74:Drivers/CMSIS/Include/cmsis_gcc.h ****   struct __attribute__((packed)) T_UINT32 { uint32_t v; };
  75:Drivers/CMSIS/Include/cmsis_gcc.h ****   #pragma GCC diagnostic pop
  76:Drivers/CMSIS/Include/cmsis_gcc.h ****   #define __UNALIGNED_UINT32(x)                  (((struct T_UINT32 *)(x))->v)
  77:Drivers/CMSIS/Include/cmsis_gcc.h **** #endif
  78:Drivers/CMSIS/Include/cmsis_gcc.h **** #ifndef   __UNALIGNED_UINT16_WRITE
  79:Drivers/CMSIS/Include/cmsis_gcc.h ****   #pragma GCC diagnostic push
  80:Drivers/CMSIS/Include/cmsis_gcc.h ****   #pragma GCC diagnostic ignored "-Wpacked"
  81:Drivers/CMSIS/Include/cmsis_gcc.h ****   #pragma GCC diagnostic ignored "-Wattributes"
  82:Drivers/CMSIS/Include/cmsis_gcc.h ****   __PACKED_STRUCT T_UINT16_WRITE { uint16_t v; };
  83:Drivers/CMSIS/Include/cmsis_gcc.h ****   #pragma GCC diagnostic pop
  84:Drivers/CMSIS/Include/cmsis_gcc.h ****   #define __UNALIGNED_UINT16_WRITE(addr, val)    (void)((((struct T_UINT16_WRITE *)(void *)(addr))-
  85:Drivers/CMSIS/Include/cmsis_gcc.h **** #endif
  86:Drivers/CMSIS/Include/cmsis_gcc.h **** #ifndef   __UNALIGNED_UINT16_READ
  87:Drivers/CMSIS/Include/cmsis_gcc.h ****   #pragma GCC diagnostic push
  88:Drivers/CMSIS/Include/cmsis_gcc.h ****   #pragma GCC diagnostic ignored "-Wpacked"
  89:Drivers/CMSIS/Include/cmsis_gcc.h ****   #pragma GCC diagnostic ignored "-Wattributes"
  90:Drivers/CMSIS/Include/cmsis_gcc.h ****   __PACKED_STRUCT T_UINT16_READ { uint16_t v; };
  91:Drivers/CMSIS/Include/cmsis_gcc.h ****   #pragma GCC diagnostic pop
  92:Drivers/CMSIS/Include/cmsis_gcc.h ****   #define __UNALIGNED_UINT16_READ(addr)          (((const struct T_UINT16_READ *)(const void *)(add
  93:Drivers/CMSIS/Include/cmsis_gcc.h **** #endif
  94:Drivers/CMSIS/Include/cmsis_gcc.h **** #ifndef   __UNALIGNED_UINT32_WRITE
  95:Drivers/CMSIS/Include/cmsis_gcc.h ****   #pragma GCC diagnostic push
  96:Drivers/CMSIS/Include/cmsis_gcc.h ****   #pragma GCC diagnostic ignored "-Wpacked"
  97:Drivers/CMSIS/Include/cmsis_gcc.h ****   #pragma GCC diagnostic ignored "-Wattributes"
  98:Drivers/CMSIS/Include/cmsis_gcc.h ****   __PACKED_STRUCT T_UINT32_WRITE { uint32_t v; };
  99:Drivers/CMSIS/Include/cmsis_gcc.h ****   #pragma GCC diagnostic pop
ARM GAS  /tmp/ccRuehTO.s 			page 7


 100:Drivers/CMSIS/Include/cmsis_gcc.h ****   #define __UNALIGNED_UINT32_WRITE(addr, val)    (void)((((struct T_UINT32_WRITE *)(void *)(addr))-
 101:Drivers/CMSIS/Include/cmsis_gcc.h **** #endif
 102:Drivers/CMSIS/Include/cmsis_gcc.h **** #ifndef   __UNALIGNED_UINT32_READ
 103:Drivers/CMSIS/Include/cmsis_gcc.h ****   #pragma GCC diagnostic push
 104:Drivers/CMSIS/Include/cmsis_gcc.h ****   #pragma GCC diagnostic ignored "-Wpacked"
 105:Drivers/CMSIS/Include/cmsis_gcc.h ****   #pragma GCC diagnostic ignored "-Wattributes"
 106:Drivers/CMSIS/Include/cmsis_gcc.h ****   __PACKED_STRUCT T_UINT32_READ { uint32_t v; };
 107:Drivers/CMSIS/Include/cmsis_gcc.h ****   #pragma GCC diagnostic pop
 108:Drivers/CMSIS/Include/cmsis_gcc.h ****   #define __UNALIGNED_UINT32_READ(addr)          (((const struct T_UINT32_READ *)(const void *)(add
 109:Drivers/CMSIS/Include/cmsis_gcc.h **** #endif
 110:Drivers/CMSIS/Include/cmsis_gcc.h **** #ifndef   __ALIGNED
 111:Drivers/CMSIS/Include/cmsis_gcc.h ****   #define __ALIGNED(x)                           __attribute__((aligned(x)))
 112:Drivers/CMSIS/Include/cmsis_gcc.h **** #endif
 113:Drivers/CMSIS/Include/cmsis_gcc.h **** #ifndef   __RESTRICT
 114:Drivers/CMSIS/Include/cmsis_gcc.h ****   #define __RESTRICT                             __restrict
 115:Drivers/CMSIS/Include/cmsis_gcc.h **** #endif
 116:Drivers/CMSIS/Include/cmsis_gcc.h **** 
 117:Drivers/CMSIS/Include/cmsis_gcc.h **** 
 118:Drivers/CMSIS/Include/cmsis_gcc.h **** /* ###########################  Core Function Access  ########################### */
 119:Drivers/CMSIS/Include/cmsis_gcc.h **** /** \ingroup  CMSIS_Core_FunctionInterface
 120:Drivers/CMSIS/Include/cmsis_gcc.h ****     \defgroup CMSIS_Core_RegAccFunctions CMSIS Core Register Access Functions
 121:Drivers/CMSIS/Include/cmsis_gcc.h ****   @{
 122:Drivers/CMSIS/Include/cmsis_gcc.h ****  */
 123:Drivers/CMSIS/Include/cmsis_gcc.h **** 
 124:Drivers/CMSIS/Include/cmsis_gcc.h **** /**
 125:Drivers/CMSIS/Include/cmsis_gcc.h ****   \brief   Enable IRQ Interrupts
 126:Drivers/CMSIS/Include/cmsis_gcc.h ****   \details Enables IRQ interrupts by clearing the I-bit in the CPSR.
 127:Drivers/CMSIS/Include/cmsis_gcc.h ****            Can only be executed in Privileged modes.
 128:Drivers/CMSIS/Include/cmsis_gcc.h ****  */
 129:Drivers/CMSIS/Include/cmsis_gcc.h **** __STATIC_FORCEINLINE void __enable_irq(void)
 130:Drivers/CMSIS/Include/cmsis_gcc.h **** {
 131:Drivers/CMSIS/Include/cmsis_gcc.h ****   __ASM volatile ("cpsie i" : : : "memory");
 132:Drivers/CMSIS/Include/cmsis_gcc.h **** }
 133:Drivers/CMSIS/Include/cmsis_gcc.h **** 
 134:Drivers/CMSIS/Include/cmsis_gcc.h **** 
 135:Drivers/CMSIS/Include/cmsis_gcc.h **** /**
 136:Drivers/CMSIS/Include/cmsis_gcc.h ****   \brief   Disable IRQ Interrupts
 137:Drivers/CMSIS/Include/cmsis_gcc.h ****   \details Disables IRQ interrupts by setting the I-bit in the CPSR.
 138:Drivers/CMSIS/Include/cmsis_gcc.h ****            Can only be executed in Privileged modes.
 139:Drivers/CMSIS/Include/cmsis_gcc.h ****  */
 140:Drivers/CMSIS/Include/cmsis_gcc.h **** __STATIC_FORCEINLINE void __disable_irq(void)
  37              		.loc 2 140 27 view .LVU2
  38              	.LBB5:
 141:Drivers/CMSIS/Include/cmsis_gcc.h **** {
 142:Drivers/CMSIS/Include/cmsis_gcc.h ****   __ASM volatile ("cpsid i" : : : "memory");
  39              		.loc 2 142 3 view .LVU3
  40              		.syntax unified
  41              	@ 142 "Drivers/CMSIS/Include/cmsis_gcc.h" 1
  42 0000 72B6     		cpsid i
  43              	@ 0 "" 2
  44              		.thumb
  45              		.syntax unified
  46              	.L2:
  47              	.LBE5:
  48              	.LBE4:
 209:Core/Src/main.c ****   while (1)
  49              		.loc 1 209 3 discriminator 1 view .LVU4
ARM GAS  /tmp/ccRuehTO.s 			page 8


 210:Core/Src/main.c ****   {
 211:Core/Src/main.c ****   }
  50              		.loc 1 211 3 discriminator 1 view .LVU5
 209:Core/Src/main.c ****   while (1)
  51              		.loc 1 209 9 discriminator 1 view .LVU6
  52 0002 FEE7     		b	.L2
  53              		.cfi_endproc
  54              	.LFE67:
  56              		.section	.rodata.SystemClock_Config.str1.4,"aMS",%progbits,1
  57              		.align	2
  58              	.LC0:
  59 0000 6572726F 		.ascii	"error 1\012\000"
  59      7220310A 
  59      00
  60 0009 000000   		.align	2
  61              	.LC1:
  62 000c 6572726F 		.ascii	"error 2\012\000"
  62      7220320A 
  62      00
  63 0015 000000   		.align	2
  64              	.LC2:
  65 0018 6572726F 		.ascii	"error 3\012\000"
  65      7220330A 
  65      00
  66              		.section	.text.SystemClock_Config,"ax",%progbits
  67              		.align	1
  68              		.global	SystemClock_Config
  69              		.syntax unified
  70              		.thumb
  71              		.thumb_func
  72              		.fpu softvfp
  74              	SystemClock_Config:
  75              	.LFB66:
 151:Core/Src/main.c ****   RCC_OscInitTypeDef RCC_OscInitStruct = {0};
  76              		.loc 1 151 1 view -0
  77              		.cfi_startproc
  78              		@ args = 0, pretend = 0, frame = 88
  79              		@ frame_needed = 0, uses_anonymous_args = 0
  80 0000 00B5     		push	{lr}
  81              	.LCFI0:
  82              		.cfi_def_cfa_offset 4
  83              		.cfi_offset 14, -4
  84 0002 97B0     		sub	sp, sp, #92
  85              	.LCFI1:
  86              		.cfi_def_cfa_offset 96
 152:Core/Src/main.c ****   RCC_ClkInitTypeDef RCC_ClkInitStruct = {0};
  87              		.loc 1 152 3 view .LVU8
 152:Core/Src/main.c ****   RCC_ClkInitTypeDef RCC_ClkInitStruct = {0};
  88              		.loc 1 152 22 is_stmt 0 view .LVU9
  89 0004 0023     		movs	r3, #0
  90 0006 0F93     		str	r3, [sp, #60]
  91 0008 1193     		str	r3, [sp, #68]
  92 000a 1293     		str	r3, [sp, #72]
 153:Core/Src/main.c ****   RCC_PeriphCLKInitTypeDef PeriphClkInit = {0};
  93              		.loc 1 153 3 is_stmt 1 view .LVU10
 153:Core/Src/main.c ****   RCC_PeriphCLKInitTypeDef PeriphClkInit = {0};
  94              		.loc 1 153 22 is_stmt 0 view .LVU11
ARM GAS  /tmp/ccRuehTO.s 			page 9


  95 000c 0793     		str	r3, [sp, #28]
  96 000e 0893     		str	r3, [sp, #32]
  97 0010 0993     		str	r3, [sp, #36]
  98 0012 0A93     		str	r3, [sp, #40]
  99 0014 0B93     		str	r3, [sp, #44]
 154:Core/Src/main.c **** 
 100              		.loc 1 154 3 is_stmt 1 view .LVU12
 154:Core/Src/main.c **** 
 101              		.loc 1 154 28 is_stmt 0 view .LVU13
 102 0016 0193     		str	r3, [sp, #4]
 103 0018 0293     		str	r3, [sp, #8]
 104 001a 0393     		str	r3, [sp, #12]
 105 001c 0493     		str	r3, [sp, #16]
 106 001e 0593     		str	r3, [sp, #20]
 107 0020 0693     		str	r3, [sp, #24]
 157:Core/Src/main.c ****   RCC_OscInitStruct.HSEState = RCC_HSE_ON;                   // 打开 HSE
 108              		.loc 1 157 3 is_stmt 1 view .LVU14
 157:Core/Src/main.c ****   RCC_OscInitStruct.HSEState = RCC_HSE_ON;                   // 打开 HSE
 109              		.loc 1 157 36 is_stmt 0 view .LVU15
 110 0022 0121     		movs	r1, #1
 111 0024 0C91     		str	r1, [sp, #48]
 158:Core/Src/main.c ****   RCC_OscInitStruct.HSEPredivValue = RCC_HSE_PREDIV_DIV1;    // HSE不分频
 112              		.loc 1 158 3 is_stmt 1 view .LVU16
 158:Core/Src/main.c ****   RCC_OscInitStruct.HSEPredivValue = RCC_HSE_PREDIV_DIV1;    // HSE不分频
 113              		.loc 1 158 30 is_stmt 0 view .LVU17
 114 0026 4FF48032 		mov	r2, #65536
 115 002a 0D92     		str	r2, [sp, #52]
 159:Core/Src/main.c ****   RCC_OscInitStruct.HSIState = RCC_HSI_ON;                   // 打开 HSI（备份）
 116              		.loc 1 159 3 is_stmt 1 view .LVU18
 159:Core/Src/main.c ****   RCC_OscInitStruct.HSIState = RCC_HSI_ON;                   // 打开 HSI（备份）
 117              		.loc 1 159 36 is_stmt 0 view .LVU19
 118 002c 0E93     		str	r3, [sp, #56]
 160:Core/Src/main.c ****   RCC_OscInitStruct.PLL.PLLState = RCC_PLL_ON;               // 打开 PLL
 119              		.loc 1 160 3 is_stmt 1 view .LVU20
 160:Core/Src/main.c ****   RCC_OscInitStruct.PLL.PLLState = RCC_PLL_ON;               // 打开 PLL
 120              		.loc 1 160 30 is_stmt 0 view .LVU21
 121 002e 1091     		str	r1, [sp, #64]
 161:Core/Src/main.c ****   RCC_OscInitStruct.PLL.PLLSource = RCC_PLLSOURCE_HSE;       // PLL输入源为HSE
 122              		.loc 1 161 3 is_stmt 1 view .LVU22
 161:Core/Src/main.c ****   RCC_OscInitStruct.PLL.PLLSource = RCC_PLLSOURCE_HSE;       // PLL输入源为HSE
 123              		.loc 1 161 34 is_stmt 0 view .LVU23
 124 0030 0223     		movs	r3, #2
 125 0032 1393     		str	r3, [sp, #76]
 162:Core/Src/main.c ****   RCC_OscInitStruct.PLL.PLLMUL = RCC_PLL_MUL9;               // 8 MHz × 9 = 72 MHz
 126              		.loc 1 162 3 is_stmt 1 view .LVU24
 162:Core/Src/main.c ****   RCC_OscInitStruct.PLL.PLLMUL = RCC_PLL_MUL9;               // 8 MHz × 9 = 72 MHz
 127              		.loc 1 162 35 is_stmt 0 view .LVU25
 128 0034 1492     		str	r2, [sp, #80]
 163:Core/Src/main.c **** 
 129              		.loc 1 163 3 is_stmt 1 view .LVU26
 163:Core/Src/main.c **** 
 130              		.loc 1 163 32 is_stmt 0 view .LVU27
 131 0036 4FF4E013 		mov	r3, #1835008
 132 003a 1593     		str	r3, [sp, #84]
 165:Core/Src/main.c ****   {
 133              		.loc 1 165 3 is_stmt 1 view .LVU28
 165:Core/Src/main.c ****   {
ARM GAS  /tmp/ccRuehTO.s 			page 10


 134              		.loc 1 165 7 is_stmt 0 view .LVU29
 135 003c 0CA8     		add	r0, sp, #48
 136 003e FFF7FEFF 		bl	HAL_RCC_OscConfig
 137              	.LVL0:
 165:Core/Src/main.c ****   {
 138              		.loc 1 165 6 view .LVU30
 139 0042 C0B9     		cbnz	r0, .L8
 172:Core/Src/main.c ****                                 RCC_CLOCKTYPE_PCLK1 | RCC_CLOCKTYPE_PCLK2;
 140              		.loc 1 172 3 is_stmt 1 view .LVU31
 172:Core/Src/main.c ****                                 RCC_CLOCKTYPE_PCLK1 | RCC_CLOCKTYPE_PCLK2;
 141              		.loc 1 172 31 is_stmt 0 view .LVU32
 142 0044 0F23     		movs	r3, #15
 143 0046 0793     		str	r3, [sp, #28]
 174:Core/Src/main.c ****   RCC_ClkInitStruct.AHBCLKDivider = RCC_SYSCLK_DIV1;        // HCLK = 72 MHz
 144              		.loc 1 174 3 is_stmt 1 view .LVU33
 174:Core/Src/main.c ****   RCC_ClkInitStruct.AHBCLKDivider = RCC_SYSCLK_DIV1;        // HCLK = 72 MHz
 145              		.loc 1 174 34 is_stmt 0 view .LVU34
 146 0048 0221     		movs	r1, #2
 147 004a 0891     		str	r1, [sp, #32]
 175:Core/Src/main.c ****   RCC_ClkInitStruct.APB1CLKDivider = RCC_HCLK_DIV2;         // PCLK1 = 36 MHz (需 ≤ 36 MHz)
 148              		.loc 1 175 3 is_stmt 1 view .LVU35
 175:Core/Src/main.c ****   RCC_ClkInitStruct.APB1CLKDivider = RCC_HCLK_DIV2;         // PCLK1 = 36 MHz (需 ≤ 36 MHz)
 149              		.loc 1 175 35 is_stmt 0 view .LVU36
 150 004c 0023     		movs	r3, #0
 151 004e 0993     		str	r3, [sp, #36]
 176:Core/Src/main.c ****   RCC_ClkInitStruct.APB2CLKDivider = RCC_HCLK_DIV1;         // PCLK2 = 72 MHz
 152              		.loc 1 176 3 is_stmt 1 view .LVU37
 176:Core/Src/main.c ****   RCC_ClkInitStruct.APB2CLKDivider = RCC_HCLK_DIV1;         // PCLK2 = 72 MHz
 153              		.loc 1 176 36 is_stmt 0 view .LVU38
 154 0050 4FF48062 		mov	r2, #1024
 155 0054 0A92     		str	r2, [sp, #40]
 177:Core/Src/main.c **** 
 156              		.loc 1 177 3 is_stmt 1 view .LVU39
 177:Core/Src/main.c **** 
 157              		.loc 1 177 36 is_stmt 0 view .LVU40
 158 0056 0B93     		str	r3, [sp, #44]
 179:Core/Src/main.c ****   {
 159              		.loc 1 179 3 is_stmt 1 view .LVU41
 179:Core/Src/main.c ****   {
 160              		.loc 1 179 7 is_stmt 0 view .LVU42
 161 0058 07A8     		add	r0, sp, #28
 162 005a FFF7FEFF 		bl	HAL_RCC_ClockConfig
 163              	.LVL1:
 179:Core/Src/main.c ****   {
 164              		.loc 1 179 6 view .LVU43
 165 005e 80B9     		cbnz	r0, .L9
 186:Core/Src/main.c ****   PeriphClkInit.UsbClockSelection = RCC_USBCLKSOURCE_PLL_DIV1_5; // 72 MHz / 1.5 = 48 MHz
 166              		.loc 1 186 3 is_stmt 1 view .LVU44
 186:Core/Src/main.c ****   PeriphClkInit.UsbClockSelection = RCC_USBCLKSOURCE_PLL_DIV1_5; // 72 MHz / 1.5 = 48 MHz
 167              		.loc 1 186 38 is_stmt 0 view .LVU45
 168 0060 1023     		movs	r3, #16
 169 0062 0193     		str	r3, [sp, #4]
 187:Core/Src/main.c **** 
 170              		.loc 1 187 3 is_stmt 1 view .LVU46
 187:Core/Src/main.c **** 
 171              		.loc 1 187 35 is_stmt 0 view .LVU47
 172 0064 0023     		movs	r3, #0
ARM GAS  /tmp/ccRuehTO.s 			page 11


 173 0066 0693     		str	r3, [sp, #24]
 189:Core/Src/main.c ****   {
 174              		.loc 1 189 3 is_stmt 1 view .LVU48
 189:Core/Src/main.c ****   {
 175              		.loc 1 189 7 is_stmt 0 view .LVU49
 176 0068 01A8     		add	r0, sp, #4
 177 006a FFF7FEFF 		bl	HAL_RCCEx_PeriphCLKConfig
 178              	.LVL2:
 189:Core/Src/main.c ****   {
 179              		.loc 1 189 6 view .LVU50
 180 006e 70B9     		cbnz	r0, .L10
 194:Core/Src/main.c **** 
 181              		.loc 1 194 1 view .LVU51
 182 0070 17B0     		add	sp, sp, #92
 183              	.LCFI2:
 184              		.cfi_remember_state
 185              		.cfi_def_cfa_offset 4
 186              		@ sp needed
 187 0072 5DF804FB 		ldr	pc, [sp], #4
 188              	.L8:
 189              	.LCFI3:
 190              		.cfi_restore_state
 167:Core/Src/main.c ****     Error_Handler();
 191              		.loc 1 167 5 is_stmt 1 view .LVU52
 192 0076 0949     		ldr	r1, .L11
 193 0078 0020     		movs	r0, #0
 194 007a FFF7FEFF 		bl	SEGGER_RTT_printf
 195              	.LVL3:
 168:Core/Src/main.c ****   }
 196              		.loc 1 168 5 view .LVU53
 197 007e FFF7FEFF 		bl	Error_Handler
 198              	.LVL4:
 199              	.L9:
 181:Core/Src/main.c ****     Error_Handler();
 200              		.loc 1 181 5 view .LVU54
 201 0082 0749     		ldr	r1, .L11+4
 202 0084 0020     		movs	r0, #0
 203 0086 FFF7FEFF 		bl	SEGGER_RTT_printf
 204              	.LVL5:
 182:Core/Src/main.c ****   }
 205              		.loc 1 182 5 view .LVU55
 206 008a FFF7FEFF 		bl	Error_Handler
 207              	.LVL6:
 208              	.L10:
 191:Core/Src/main.c ****     Error_Handler();
 209              		.loc 1 191 5 view .LVU56
 210 008e 0549     		ldr	r1, .L11+8
 211 0090 0020     		movs	r0, #0
 212 0092 FFF7FEFF 		bl	SEGGER_RTT_printf
 213              	.LVL7:
 192:Core/Src/main.c ****   }
 214              		.loc 1 192 5 view .LVU57
 215 0096 FFF7FEFF 		bl	Error_Handler
 216              	.LVL8:
 217              	.L12:
 218 009a 00BF     		.align	2
 219              	.L11:
ARM GAS  /tmp/ccRuehTO.s 			page 12


 220 009c 00000000 		.word	.LC0
 221 00a0 0C000000 		.word	.LC1
 222 00a4 18000000 		.word	.LC2
 223              		.cfi_endproc
 224              	.LFE66:
 226              		.section	.rodata.main.str1.4,"aMS",%progbits,1
 227              		.align	2
 228              	.LC3:
 229 0000 68616C5F 		.ascii	"hal_init success\012\000"
 229      696E6974 
 229      20737563 
 229      63657373 
 229      0A00
 230 0012 0000     		.align	2
 231              	.LC4:
 232 0014 73797374 		.ascii	"systemclock init success\012\000"
 232      656D636C 
 232      6F636B20 
 232      696E6974 
 232      20737563 
 233 002e 0000     		.align	2
 234              	.LC5:
 235 0030 70657269 		.ascii	"peripheral init success\012\000"
 235      70686572 
 235      616C2069 
 235      6E697420 
 235      73756363 
 236 0049 000000   		.align	2
 237              	.LC6:
 238 004c 64687432 		.ascii	"dht22_read_code_error is %d\012\000"
 238      325F7265 
 238      61645F63 
 238      6F64655F 
 238      6572726F 
 239              		.global	__aeabi_f2d
 240 0069 000000   		.align	2
 241              	.LC7:
 242 006c 74656D70 		.ascii	"temp%fhum%f\012\000"
 242      25666875 
 242      6D25660A 
 242      00
 243              		.section	.text.main,"ax",%progbits
 244              		.align	1
 245              		.global	main
 246              		.syntax unified
 247              		.thumb
 248              		.thumb_func
 249              		.fpu softvfp
 251              	main:
 252              	.LFB65:
  76:Core/Src/main.c ****   /* USER CODE BEGIN 1 */
 253              		.loc 1 76 1 view -0
 254              		.cfi_startproc
 255              		@ args = 0, pretend = 0, frame = 8
 256              		@ frame_needed = 0, uses_anonymous_args = 0
 257 0000 30B5     		push	{r4, r5, lr}
 258              	.LCFI4:
ARM GAS  /tmp/ccRuehTO.s 			page 13


 259              		.cfi_def_cfa_offset 12
 260              		.cfi_offset 4, -12
 261              		.cfi_offset 5, -8
 262              		.cfi_offset 14, -4
 263 0002 85B0     		sub	sp, sp, #20
 264              	.LCFI5:
 265              		.cfi_def_cfa_offset 32
  84:Core/Src/main.c ****   myprintf("hal_init success\n");
 266              		.loc 1 84 3 view .LVU59
 267 0004 FFF7FEFF 		bl	HAL_Init
 268              	.LVL9:
  85:Core/Src/main.c ****   SystemClock_Config();
 269              		.loc 1 85 3 view .LVU60
 270 0008 2649     		ldr	r1, .L16
 271 000a 0020     		movs	r0, #0
 272 000c FFF7FEFF 		bl	SEGGER_RTT_printf
 273              	.LVL10:
  86:Core/Src/main.c ****   myprintf("systemclock init success\n");
 274              		.loc 1 86 3 view .LVU61
 275 0010 FFF7FEFF 		bl	SystemClock_Config
 276              	.LVL11:
  87:Core/Src/main.c ****   /* USER CODE BEGIN Init */
 277              		.loc 1 87 3 view .LVU62
 278 0014 2449     		ldr	r1, .L16+4
 279 0016 0020     		movs	r0, #0
 280 0018 FFF7FEFF 		bl	SEGGER_RTT_printf
 281              	.LVL12:
  98:Core/Src/main.c ****   MX_GPIO_Init();
 282              		.loc 1 98 3 view .LVU63
 283              	.LBB6:
  98:Core/Src/main.c ****   MX_GPIO_Init();
 284              		.loc 1 98 3 view .LVU64
 285 001c 234A     		ldr	r2, .L16+8
 286 001e 5368     		ldr	r3, [r2, #4]
 287              	.LVL13:
  98:Core/Src/main.c ****   MX_GPIO_Init();
 288              		.loc 1 98 3 view .LVU65
 289 0020 23F0E063 		bic	r3, r3, #117440512
 290              	.LVL14:
  98:Core/Src/main.c ****   MX_GPIO_Init();
 291              		.loc 1 98 3 view .LVU66
 292 0024 43F00073 		orr	r3, r3, #33554432
 293              	.LVL15:
  98:Core/Src/main.c ****   MX_GPIO_Init();
 294              		.loc 1 98 3 view .LVU67
 295 0028 5360     		str	r3, [r2, #4]
 296              	.LBE6:
  98:Core/Src/main.c ****   MX_GPIO_Init();
 297              		.loc 1 98 3 view .LVU68
  99:Core/Src/main.c ****   MX_SPI2_Init();
 298              		.loc 1 99 3 view .LVU69
 299 002a FFF7FEFF 		bl	MX_GPIO_Init
 300              	.LVL16:
 100:Core/Src/main.c ****   MX_TIM1_Init();
 301              		.loc 1 100 3 view .LVU70
 302 002e FFF7FEFF 		bl	MX_SPI2_Init
 303              	.LVL17:
ARM GAS  /tmp/ccRuehTO.s 			page 14


 101:Core/Src/main.c ****   MX_TIM3_Init();
 304              		.loc 1 101 3 view .LVU71
 305 0032 FFF7FEFF 		bl	MX_TIM1_Init
 306              	.LVL18:
 102:Core/Src/main.c ****   // MX_USB_PCD_Init();
 307              		.loc 1 102 3 view .LVU72
 308 0036 FFF7FEFF 		bl	MX_TIM3_Init
 309              	.LVL19:
 104:Core/Src/main.c ****   ADXL345_Init();
 310              		.loc 1 104 3 view .LVU73
 311 003a FFF7FEFF 		bl	MX_TIM8_Init
 312              	.LVL20:
 105:Core/Src/main.c ****   DiffSignal_Init();
 313              		.loc 1 105 3 view .LVU74
 314 003e FFF7FEFF 		bl	ADXL345_Init
 315              	.LVL21:
 106:Core/Src/main.c **** 
 316              		.loc 1 106 3 view .LVU75
 317 0042 FFF7FEFF 		bl	DiffSignal_Init
 318              	.LVL22:
 108:Core/Src/main.c ****   DHT22_Init();
 319              		.loc 1 108 3 view .LVU76
 320 0046 6420     		movs	r0, #100
 321 0048 FFF7FEFF 		bl	HAL_Delay
 322              	.LVL23:
 109:Core/Src/main.c ****   EEPROM_Init();
 323              		.loc 1 109 3 view .LVU77
 324 004c FFF7FEFF 		bl	DHT22_Init
 325              	.LVL24:
 110:Core/Src/main.c ****   myprintf("peripheral init success\n");
 326              		.loc 1 110 3 view .LVU78
 327 0050 FFF7FEFF 		bl	EEPROM_Init
 328              	.LVL25:
 111:Core/Src/main.c ****   HAL_Delay(2000);
 329              		.loc 1 111 3 view .LVU79
 330 0054 1649     		ldr	r1, .L16+12
 331 0056 0020     		movs	r0, #0
 332 0058 FFF7FEFF 		bl	SEGGER_RTT_printf
 333              	.LVL26:
 112:Core/Src/main.c ****   /* USER CODE BEGIN 2 */
 334              		.loc 1 112 3 view .LVU80
 335 005c 4FF4FA60 		mov	r0, #2000
 336 0060 FFF7FEFF 		bl	HAL_Delay
 337              	.LVL27:
 122:Core/Src/main.c ****   uint8_t buff[10] = {0x01, 0x02, 0x03, 0x04, 0x05, 0x06, 0x07, 0x08, 0x09, 0x0a};
 338              		.loc 1 122 3 view .LVU81
 122:Core/Src/main.c ****   uint8_t buff[10] = {0x01, 0x02, 0x03, 0x04, 0x05, 0x06, 0x07, 0x08, 0x09, 0x0a};
 339              		.loc 1 122 14 is_stmt 0 view .LVU82
 340 0064 0023     		movs	r3, #0
 341 0066 0293     		str	r3, [sp, #8]	@ float
 123:Core/Src/main.c ****   uint8_t rev_buf[10] = {0x00};
 342              		.loc 1 123 3 is_stmt 1 view .LVU83
 124:Core/Src/main.c ****   uint8_t dht22_read_error_code = 0x00; 
 343              		.loc 1 124 3 view .LVU84
 125:Core/Src/main.c ****   while (1)
 344              		.loc 1 125 3 view .LVU85
 345              	.LVL28:
ARM GAS  /tmp/ccRuehTO.s 			page 15


 346              	.L14:
 126:Core/Src/main.c ****   {
 347              		.loc 1 126 3 discriminator 1 view .LVU86
 129:Core/Src/main.c ****     myprintf("dht22_read_code_error is %d\n",dht22_read_error_code);
 348              		.loc 1 129 5 discriminator 1 view .LVU87
 129:Core/Src/main.c ****     myprintf("dht22_read_code_error is %d\n",dht22_read_error_code);
 349              		.loc 1 129 29 is_stmt 0 discriminator 1 view .LVU88
 350 0068 03A9     		add	r1, sp, #12
 351 006a 02A8     		add	r0, sp, #8
 352 006c FFF7FEFF 		bl	DHT22_ReadData
 353              	.LVL29:
 354 0070 0246     		mov	r2, r0
 355              	.LVL30:
 130:Core/Src/main.c ****     myprintf("temp%fhum%f\n",temp,hum);
 356              		.loc 1 130 5 is_stmt 1 discriminator 1 view .LVU89
 357 0072 1049     		ldr	r1, .L16+16
 358 0074 0020     		movs	r0, #0
 359 0076 FFF7FEFF 		bl	SEGGER_RTT_printf
 360              	.LVL31:
 131:Core/Src/main.c ****     //     EEPROM_WriteBuffer(0x00,buff,10);
 361              		.loc 1 131 5 discriminator 1 view .LVU90
 362 007a 0298     		ldr	r0, [sp, #8]	@ float
 363 007c FFF7FEFF 		bl	__aeabi_f2d
 364              	.LVL32:
 365 0080 0446     		mov	r4, r0
 366 0082 0D46     		mov	r5, r1
 367 0084 0398     		ldr	r0, [sp, #12]	@ float
 368 0086 FFF7FEFF 		bl	__aeabi_f2d
 369              	.LVL33:
 370 008a CDE90001 		strd	r0, [sp]
 371 008e 2246     		mov	r2, r4
 372 0090 2B46     		mov	r3, r5
 373 0092 0949     		ldr	r1, .L16+20
 374 0094 0020     		movs	r0, #0
 375 0096 FFF7FEFF 		bl	SEGGER_RTT_printf
 376              	.LVL34:
 139:Core/Src/main.c ****     /* USER CODE END WHILE */
 377              		.loc 1 139 5 discriminator 1 view .LVU91
 378 009a 40F6B830 		movw	r0, #3000
 379 009e FFF7FEFF 		bl	HAL_Delay
 380              	.LVL35:
 126:Core/Src/main.c ****   {
 381              		.loc 1 126 9 discriminator 1 view .LVU92
 382 00a2 E1E7     		b	.L14
 383              	.L17:
 384              		.align	2
 385              	.L16:
 386 00a4 00000000 		.word	.LC3
 387 00a8 14000000 		.word	.LC4
 388 00ac 00000140 		.word	1073807360
 389 00b0 30000000 		.word	.LC5
 390 00b4 4C000000 		.word	.LC6
 391 00b8 6C000000 		.word	.LC7
 392              		.cfi_endproc
 393              	.LFE65:
 395              		.text
 396              	.Letext0:
ARM GAS  /tmp/ccRuehTO.s 			page 16


 397              		.file 3 "/opt/gcc-arm-none-eabi-9-2020-q2-update/arm-none-eabi/include/machine/_default_types.h"
 398              		.file 4 "/opt/gcc-arm-none-eabi-9-2020-q2-update/arm-none-eabi/include/sys/_stdint.h"
 399              		.file 5 "Drivers/CMSIS/Include/core_cm3.h"
 400              		.file 6 "Drivers/CMSIS/Device/ST/STM32F1xx/Include/system_stm32f1xx.h"
 401              		.file 7 "Drivers/CMSIS/Device/ST/STM32F1xx/Include/stm32f103xe.h"
 402              		.file 8 "Drivers/STM32F1xx_HAL_Driver/Inc/stm32f1xx_hal_def.h"
 403              		.file 9 "Drivers/STM32F1xx_HAL_Driver/Inc/stm32f1xx_hal_rcc.h"
 404              		.file 10 "Drivers/STM32F1xx_HAL_Driver/Inc/stm32f1xx_hal_rcc_ex.h"
 405              		.file 11 "Drivers/STM32F1xx_HAL_Driver/Inc/stm32f1xx_hal_dma.h"
 406              		.file 12 "Drivers/STM32F1xx_HAL_Driver/Inc/stm32f1xx_hal_spi.h"
 407              		.file 13 "Drivers/STM32F1xx_HAL_Driver/Inc/stm32f1xx_hal_tim.h"
 408              		.file 14 "Drivers/STM32F1xx_HAL_Driver/Inc/stm32f1xx_ll_usb.h"
 409              		.file 15 "Drivers/STM32F1xx_HAL_Driver/Inc/stm32f1xx_hal_pcd.h"
 410              		.file 16 "Drivers/STM32F1xx_HAL_Driver/Inc/stm32f1xx_hal.h"
 411              		.file 17 "Core/Inc/spi.h"
 412              		.file 18 "Core/Inc/tim.h"
 413              		.file 19 "Core/Inc/usb.h"
 414              		.file 20 "/opt/gcc-arm-none-eabi-9-2020-q2-update/lib/gcc/arm-none-eabi/9.3.1/include/stddef.h"
 415              		.file 21 "/opt/gcc-arm-none-eabi-9-2020-q2-update/arm-none-eabi/include/sys/_types.h"
 416              		.file 22 "/opt/gcc-arm-none-eabi-9-2020-q2-update/arm-none-eabi/include/sys/reent.h"
 417              		.file 23 "/opt/gcc-arm-none-eabi-9-2020-q2-update/arm-none-eabi/include/sys/lock.h"
 418              		.file 24 "/opt/gcc-arm-none-eabi-9-2020-q2-update/arm-none-eabi/include/stdlib.h"
 419              		.file 25 "ARM_SEGGER_RTT/SEGGER_RTT.h"
 420              		.file 26 "Core/Inc/gpio.h"
 421              		.file 27 "sensor_device/ADXL345.h"
 422              		.file 28 "diff_signal/diff_signal.h"
 423              		.file 29 "sensor_device/DHT22.h"
 424              		.file 30 "sensor_device/eeprom.h"
ARM GAS  /tmp/ccRuehTO.s 			page 17


DEFINED SYMBOLS
                            *ABS*:0000000000000000 main.c
     /tmp/ccRuehTO.s:16     .text.Error_Handler:0000000000000000 $t
     /tmp/ccRuehTO.s:24     .text.Error_Handler:0000000000000000 Error_Handler
     /tmp/ccRuehTO.s:57     .rodata.SystemClock_Config.str1.4:0000000000000000 $d
     /tmp/ccRuehTO.s:67     .text.SystemClock_Config:0000000000000000 $t
     /tmp/ccRuehTO.s:74     .text.SystemClock_Config:0000000000000000 SystemClock_Config
     /tmp/ccRuehTO.s:220    .text.SystemClock_Config:000000000000009c $d
     /tmp/ccRuehTO.s:227    .rodata.main.str1.4:0000000000000000 $d
     /tmp/ccRuehTO.s:244    .text.main:0000000000000000 $t
     /tmp/ccRuehTO.s:251    .text.main:0000000000000000 main
     /tmp/ccRuehTO.s:386    .text.main:00000000000000a4 $d

UNDEFINED SYMBOLS
HAL_RCC_OscConfig
HAL_RCC_ClockConfig
HAL_RCCEx_PeriphCLKConfig
SEGGER_RTT_printf
__aeabi_f2d
HAL_Init
MX_GPIO_Init
MX_SPI2_Init
MX_TIM1_Init
MX_TIM3_Init
MX_TIM8_Init
ADXL345_Init
DiffSignal_Init
HAL_Delay
DHT22_Init
EEPROM_Init
DHT22_ReadData
