ARM GAS  /tmp/ccwRNUuG.s 			page 1


   1              		.cpu cortex-m3
   2              		.eabi_attribute 20, 1
   3              		.eabi_attribute 21, 1
   4              		.eabi_attribute 23, 3
   5              		.eabi_attribute 24, 1
   6              		.eabi_attribute 25, 1
   7              		.eabi_attribute 26, 1
   8              		.eabi_attribute 30, 1
   9              		.eabi_attribute 34, 1
  10              		.eabi_attribute 18, 4
  11              		.file	"main.c"
  12              		.text
  13              	.Ltext0:
  14              		.cfi_sections	.debug_frame
  15              		.global	__aeabi_f2d
  16              		.section	.rodata.dht22_data_read_callback.str1.4,"aMS",%progbits,1
  17              		.align	2
  18              	.LC0:
  19 0000 74656D70 		.ascii	"temper is %f hum is %f\012\000"
  19      65722069 
  19      73202566 
  19      2068756D 
  19      20697320 
  20              		.section	.text.dht22_data_read_callback,"ax",%progbits
  21              		.align	1
  22              		.global	dht22_data_read_callback
  23              		.arch armv7-m
  24              		.syntax unified
  25              		.thumb
  26              		.thumb_func
  27              		.fpu softvfp
  29              	dht22_data_read_callback:
  30              	.LFB68:
  31              		.file 1 "Core/Src/main.c"
   1:Core/Src/main.c **** /* USER CODE BEGIN Header */
   2:Core/Src/main.c **** /**
   3:Core/Src/main.c ****  ******************************************************************************
   4:Core/Src/main.c ****  * @file           : main.c
   5:Core/Src/main.c ****  * @brief          : Main program body
   6:Core/Src/main.c ****  ******************************************************************************
   7:Core/Src/main.c ****  * @attention
   8:Core/Src/main.c ****  *
   9:Core/Src/main.c ****  * <h2><center>&copy; Copyright (c) 2025 STMicroelectronics.
  10:Core/Src/main.c ****  * All rights reserved.</center></h2>
  11:Core/Src/main.c ****  *
  12:Core/Src/main.c ****  * This software component is licensed by ST under BSD 3-Clause license,
  13:Core/Src/main.c ****  * the "License"; You may not use this file except in compliance with the
  14:Core/Src/main.c ****  * License. You may obtain a copy of the License at:
  15:Core/Src/main.c ****  *                        opensource.org/licenses/BSD-3-Clause
  16:Core/Src/main.c ****  *
  17:Core/Src/main.c ****  ******************************************************************************
  18:Core/Src/main.c ****  */
  19:Core/Src/main.c **** /* USER CODE END Header */
  20:Core/Src/main.c **** /* Includes ------------------------------------------------------------------*/
  21:Core/Src/main.c **** #include "main.h"
  22:Core/Src/main.c **** #include "spi.h"
  23:Core/Src/main.c **** #include "tim.h"
ARM GAS  /tmp/ccwRNUuG.s 			page 2


  24:Core/Src/main.c **** #include "usb.h"
  25:Core/Src/main.c **** #include "gpio.h"
  26:Core/Src/main.c **** #include "diff_signal.h"
  27:Core/Src/main.c **** #include "stdint.h"
  28:Core/Src/main.c **** #include "ADXL345.h"
  29:Core/Src/main.c **** #include "DHT22.h"
  30:Core/Src/main.c **** #include "stm32f1xx_hal_gpio_ex.h"
  31:Core/Src/main.c **** #include "diff_signal.h"
  32:Core/Src/main.c **** #include "SEGGER_RTT.h"
  33:Core/Src/main.c **** #include "Custcom_Pin.h"
  34:Core/Src/main.c **** #include "eeprom.h"
  35:Core/Src/main.c **** #include "soft_timer.h"
  36:Core/Src/main.c **** #include "data_collect.h"
  37:Core/Src/main.c **** /* Private includes ----------------------------------------------------------*/
  38:Core/Src/main.c **** /* USER CODE BEGIN Includes */
  39:Core/Src/main.c **** 
  40:Core/Src/main.c **** /* USER CODE END Includes */
  41:Core/Src/main.c **** 
  42:Core/Src/main.c **** /* Private typedef -----------------------------------------------------------*/
  43:Core/Src/main.c **** /* USER CODE BEGIN PTD */
  44:Core/Src/main.c **** 
  45:Core/Src/main.c **** /* USER CODE END PTD */
  46:Core/Src/main.c **** 
  47:Core/Src/main.c **** /* Private define ------------------------------------------------------------*/
  48:Core/Src/main.c **** /* USER CODE BEGIN PD */
  49:Core/Src/main.c **** /* USER CODE END PD */
  50:Core/Src/main.c **** 
  51:Core/Src/main.c **** /* Private macro -------------------------------------------------------------*/
  52:Core/Src/main.c **** /* USER CODE BEGIN PM */
  53:Core/Src/main.c **** 
  54:Core/Src/main.c **** /* USER CODE END PM */
  55:Core/Src/main.c **** 
  56:Core/Src/main.c **** /* Private variables ---------------------------------------------------------*/
  57:Core/Src/main.c **** 
  58:Core/Src/main.c **** /* USER CODE BEGIN PV */
  59:Core/Src/main.c **** 
  60:Core/Src/main.c **** /* USER CODE END PV */
  61:Core/Src/main.c **** 
  62:Core/Src/main.c **** /* Private function prototypes -----------------------------------------------*/
  63:Core/Src/main.c **** void SystemClock_Config(void);
  64:Core/Src/main.c **** void dht22_data_read_callback(void);
  65:Core/Src/main.c **** void ADXL345_data_read_call_back(void);
  66:Core/Src/main.c **** /* USER CODE BEGIN PFP */
  67:Core/Src/main.c **** 
  68:Core/Src/main.c **** /* USER CODE END PFP */
  69:Core/Src/main.c **** 
  70:Core/Src/main.c **** /* Private user code ---------------------------------------------------------*/
  71:Core/Src/main.c **** /* USER CODE BEGIN 0 */
  72:Core/Src/main.c **** 
  73:Core/Src/main.c **** /* USER CODE END 0 */
  74:Core/Src/main.c **** 
  75:Core/Src/main.c **** /**
  76:Core/Src/main.c ****  * @brief  The application entry point.
  77:Core/Src/main.c ****  * @retval int
  78:Core/Src/main.c ****  */
  79:Core/Src/main.c **** int main(void)
  80:Core/Src/main.c **** {
ARM GAS  /tmp/ccwRNUuG.s 			page 3


  81:Core/Src/main.c ****   /* USER CODE BEGIN 1 */
  82:Core/Src/main.c **** 
  83:Core/Src/main.c ****   /* USER CODE END 1 */
  84:Core/Src/main.c **** 
  85:Core/Src/main.c ****   /* MCU Configuration--------------------------------------------------------*/
  86:Core/Src/main.c **** 
  87:Core/Src/main.c ****   /* Reset of all peripherals, Initializes the Flash interface and the Systick. */
  88:Core/Src/main.c ****   HAL_Init();
  89:Core/Src/main.c ****   myprintf("hal_init success\n");
  90:Core/Src/main.c ****   SystemClock_Config();
  91:Core/Src/main.c ****   myprintf("systemclock init success\n");
  92:Core/Src/main.c ****   /* USER CODE BEGIN Init */
  93:Core/Src/main.c ****   /* USER CODE END Init */
  94:Core/Src/main.c **** 
  95:Core/Src/main.c ****   /* Configure the system clock */
  96:Core/Src/main.c **** 
  97:Core/Src/main.c ****   /* USER CODE BEGIN SysInit */
  98:Core/Src/main.c **** 
  99:Core/Src/main.c ****   /* USER CODE END SysInit */
 100:Core/Src/main.c **** 
 101:Core/Src/main.c ****   /* Initialize all configured peripherals */
 102:Core/Src/main.c ****   __HAL_AFIO_REMAP_SWJ_NOJTAG();
 103:Core/Src/main.c ****   MX_GPIO_Init();
 104:Core/Src/main.c ****   MX_SPI2_Init();
 105:Core/Src/main.c ****   MX_TIM1_Init();
 106:Core/Src/main.c ****   MX_TIM3_Init();
 107:Core/Src/main.c ****   MX_TIM6_Init();         // CubeMX 生成的 TIM6 初始化
 108:Core/Src/main.c ****   MX_TIM8_Init();
 109:Core/Src/main.c ****   ADXL345_Init();
 110:Core/Src/main.c ****   DiffSignal_Init();
 111:Core/Src/main.c ****   SoftTimer_Init();
 112:Core/Src/main.c ****   HAL_TIM_Base_Start_IT(&htim6);
 113:Core/Src/main.c **** 
 114:Core/Src/main.c ****   HAL_Delay(100);
 115:Core/Src/main.c ****   DHT22_Init();
 116:Core/Src/main.c ****   EEPROM_Init();
 117:Core/Src/main.c ****   myprintf("peripheral init success\n");
 118:Core/Src/main.c ****   HAL_Delay(2000);
 119:Core/Src/main.c ****   SoftTimer_StartPeriodic(2000, dht22_data_read_callback);
 120:Core/Src/main.c ****   SoftTimer_StartPeriodic(2000, ADXL345_data_read_call_back);
 121:Core/Src/main.c ****   /* USER CODE BEGIN 2 */
 122:Core/Src/main.c **** 
 123:Core/Src/main.c ****   /* USER CODE END 2 */
 124:Core/Src/main.c **** 
 125:Core/Src/main.c ****   /* Infinite loop */
 126:Core/Src/main.c **** 
 127:Core/Src/main.c ****   /* USER CODE BEGIN WHILE */
 128:Core/Src/main.c ****   while (1)
 129:Core/Src/main.c ****   {
 130:Core/Src/main.c **** 
 131:Core/Src/main.c ****     HAL_Delay(3000);
 132:Core/Src/main.c ****     /* USER CODE END WHILE */
 133:Core/Src/main.c ****     /* USER CODE BEGIN 3 */
 134:Core/Src/main.c ****   }
 135:Core/Src/main.c ****   /* USER CODE END 3 */
 136:Core/Src/main.c **** }
 137:Core/Src/main.c **** 
ARM GAS  /tmp/ccwRNUuG.s 			page 4


 138:Core/Src/main.c **** void dht22_data_read_callback(void)
 139:Core/Src/main.c **** {
  32              		.loc 1 139 1 view -0
  33              		.cfi_startproc
  34              		@ args = 0, pretend = 0, frame = 8
  35              		@ frame_needed = 0, uses_anonymous_args = 0
  36 0000 30B5     		push	{r4, r5, lr}
  37              	.LCFI0:
  38              		.cfi_def_cfa_offset 12
  39              		.cfi_offset 4, -12
  40              		.cfi_offset 5, -8
  41              		.cfi_offset 14, -4
  42 0002 85B0     		sub	sp, sp, #20
  43              	.LCFI1:
  44              		.cfi_def_cfa_offset 32
 140:Core/Src/main.c ****   float temp,hum = 0;
  45              		.loc 1 140 3 view .LVU1
  46              		.loc 1 140 14 is_stmt 0 view .LVU2
  47 0004 0023     		movs	r3, #0
  48 0006 0293     		str	r3, [sp, #8]	@ float
 141:Core/Src/main.c ****   DHT22_ReadData(&temp, &hum);
  49              		.loc 1 141 3 is_stmt 1 view .LVU3
  50 0008 02A9     		add	r1, sp, #8
  51 000a 03A8     		add	r0, sp, #12
  52 000c FFF7FEFF 		bl	DHT22_ReadData
  53              	.LVL0:
 142:Core/Src/main.c ****   myprintf("temper is %f hum is %f\n",temp,hum);
  54              		.loc 1 142 3 view .LVU4
  55 0010 0398     		ldr	r0, [sp, #12]	@ float
  56 0012 FFF7FEFF 		bl	__aeabi_f2d
  57              	.LVL1:
  58 0016 0446     		mov	r4, r0
  59 0018 0D46     		mov	r5, r1
  60 001a 0298     		ldr	r0, [sp, #8]	@ float
  61 001c FFF7FEFF 		bl	__aeabi_f2d
  62              	.LVL2:
  63 0020 CDE90001 		strd	r0, [sp]
  64 0024 2246     		mov	r2, r4
  65 0026 2B46     		mov	r3, r5
  66 0028 0449     		ldr	r1, .L3
  67 002a 0020     		movs	r0, #0
  68 002c FFF7FEFF 		bl	SEGGER_RTT_printf
  69              	.LVL3:
 143:Core/Src/main.c ****   set_local_dht22_data(temp,hum);
  70              		.loc 1 143 3 view .LVU5
  71 0030 0299     		ldr	r1, [sp, #8]	@ float
  72 0032 0398     		ldr	r0, [sp, #12]	@ float
  73 0034 FFF7FEFF 		bl	set_local_dht22_data
  74              	.LVL4:
 144:Core/Src/main.c **** }
  75              		.loc 1 144 1 is_stmt 0 view .LVU6
  76 0038 05B0     		add	sp, sp, #20
  77              	.LCFI2:
  78              		.cfi_def_cfa_offset 12
  79              		@ sp needed
  80 003a 30BD     		pop	{r4, r5, pc}
  81              	.L4:
ARM GAS  /tmp/ccwRNUuG.s 			page 5


  82              		.align	2
  83              	.L3:
  84 003c 00000000 		.word	.LC0
  85              		.cfi_endproc
  86              	.LFE68:
  88              		.section	.rodata.ADXL345_data_read_call_back.str1.4,"aMS",%progbits,1
  89              		.align	2
  90              	.LC1:
  91 0000 78646174 		.ascii	"xdata is %f,ydata is %f,zdata is %f\012\000"
  91      61206973 
  91      2025662C 
  91      79646174 
  91      61206973 
  92              		.section	.text.ADXL345_data_read_call_back,"ax",%progbits
  93              		.align	1
  94              		.global	ADXL345_data_read_call_back
  95              		.syntax unified
  96              		.thumb
  97              		.thumb_func
  98              		.fpu softvfp
 100              	ADXL345_data_read_call_back:
 101              	.LFB69:
 145:Core/Src/main.c **** 
 146:Core/Src/main.c **** void ADXL345_data_read_call_back(void)
 147:Core/Src/main.c **** {
 102              		.loc 1 147 1 is_stmt 1 view -0
 103              		.cfi_startproc
 104              		@ args = 0, pretend = 0, frame = 16
 105              		@ frame_needed = 0, uses_anonymous_args = 0
 106 0000 30B5     		push	{r4, r5, lr}
 107              	.LCFI3:
 108              		.cfi_def_cfa_offset 12
 109              		.cfi_offset 4, -12
 110              		.cfi_offset 5, -8
 111              		.cfi_offset 14, -4
 112 0002 89B0     		sub	sp, sp, #36
 113              	.LCFI4:
 114              		.cfi_def_cfa_offset 48
 148:Core/Src/main.c ****   float x_data,y_data,z_data;
 115              		.loc 1 148 3 view .LVU8
 149:Core/Src/main.c ****   ADXL345_ReadXYZ(&x_data,&y_data,&z_data);
 116              		.loc 1 149 3 view .LVU9
 117 0004 05AA     		add	r2, sp, #20
 118 0006 06A9     		add	r1, sp, #24
 119 0008 07A8     		add	r0, sp, #28
 120 000a FFF7FEFF 		bl	ADXL345_ReadXYZ
 121              	.LVL5:
 150:Core/Src/main.c ****   myprintf("xdata is %f,ydata is %f,zdata is %f\n",x_data,y_data,z_data);
 122              		.loc 1 150 3 view .LVU10
 123 000e 0798     		ldr	r0, [sp, #28]	@ float
 124 0010 FFF7FEFF 		bl	__aeabi_f2d
 125              	.LVL6:
 126 0014 0446     		mov	r4, r0
 127 0016 0D46     		mov	r5, r1
 128 0018 0598     		ldr	r0, [sp, #20]	@ float
 129 001a FFF7FEFF 		bl	__aeabi_f2d
 130              	.LVL7:
ARM GAS  /tmp/ccwRNUuG.s 			page 6


 131 001e CDE90201 		strd	r0, [sp, #8]
 132 0022 0698     		ldr	r0, [sp, #24]	@ float
 133 0024 FFF7FEFF 		bl	__aeabi_f2d
 134              	.LVL8:
 135 0028 CDE90001 		strd	r0, [sp]
 136 002c 2246     		mov	r2, r4
 137 002e 2B46     		mov	r3, r5
 138 0030 0549     		ldr	r1, .L7
 139 0032 0020     		movs	r0, #0
 140 0034 FFF7FEFF 		bl	SEGGER_RTT_printf
 141              	.LVL9:
 151:Core/Src/main.c ****   set_local_adxl_345_data(x_data,y_data,z_data);
 142              		.loc 1 151 3 view .LVU11
 143 0038 059A     		ldr	r2, [sp, #20]	@ float
 144 003a 0699     		ldr	r1, [sp, #24]	@ float
 145 003c 0798     		ldr	r0, [sp, #28]	@ float
 146 003e FFF7FEFF 		bl	set_local_adxl_345_data
 147              	.LVL10:
 152:Core/Src/main.c **** }
 148              		.loc 1 152 1 is_stmt 0 view .LVU12
 149 0042 09B0     		add	sp, sp, #36
 150              	.LCFI5:
 151              		.cfi_def_cfa_offset 12
 152              		@ sp needed
 153 0044 30BD     		pop	{r4, r5, pc}
 154              	.L8:
 155 0046 00BF     		.align	2
 156              	.L7:
 157 0048 00000000 		.word	.LC1
 158              		.cfi_endproc
 159              	.LFE69:
 161              		.section	.text.Error_Handler,"ax",%progbits
 162              		.align	1
 163              		.global	Error_Handler
 164              		.syntax unified
 165              		.thumb
 166              		.thumb_func
 167              		.fpu softvfp
 169              	Error_Handler:
 170              	.LFB71:
 153:Core/Src/main.c **** 
 154:Core/Src/main.c **** 
 155:Core/Src/main.c **** /**
 156:Core/Src/main.c ****  * @brief System Clock Configuration
 157:Core/Src/main.c ****  * @retval None
 158:Core/Src/main.c ****  */
 159:Core/Src/main.c **** void SystemClock_Config(void)
 160:Core/Src/main.c **** {
 161:Core/Src/main.c ****   RCC_OscInitTypeDef RCC_OscInitStruct = {0};
 162:Core/Src/main.c ****   RCC_ClkInitTypeDef RCC_ClkInitStruct = {0};
 163:Core/Src/main.c ****   RCC_PeriphCLKInitTypeDef PeriphClkInit = {0};
 164:Core/Src/main.c **** 
 165:Core/Src/main.c ****   /** 配置外部晶振 HSE 和 PLL */
 166:Core/Src/main.c ****   RCC_OscInitStruct.OscillatorType = RCC_OSCILLATORTYPE_HSE; // 使用外部晶振
 167:Core/Src/main.c ****   RCC_OscInitStruct.HSEState = RCC_HSE_ON;                   // 打开 HSE
 168:Core/Src/main.c ****   RCC_OscInitStruct.HSEPredivValue = RCC_HSE_PREDIV_DIV1;    // HSE不分频
 169:Core/Src/main.c ****   RCC_OscInitStruct.HSIState = RCC_HSI_ON;                   // 打开 HSI（备份）
ARM GAS  /tmp/ccwRNUuG.s 			page 7


 170:Core/Src/main.c ****   RCC_OscInitStruct.PLL.PLLState = RCC_PLL_ON;               // 打开 PLL
 171:Core/Src/main.c ****   RCC_OscInitStruct.PLL.PLLSource = RCC_PLLSOURCE_HSE;       // PLL输入源为HSE
 172:Core/Src/main.c ****   RCC_OscInitStruct.PLL.PLLMUL = RCC_PLL_MUL9;               // 8 MHz × 9 = 72 MHz
 173:Core/Src/main.c **** 
 174:Core/Src/main.c ****   if (HAL_RCC_OscConfig(&RCC_OscInitStruct) != HAL_OK)
 175:Core/Src/main.c ****   {
 176:Core/Src/main.c ****     myprintf("error 1\n");
 177:Core/Src/main.c ****     Error_Handler();
 178:Core/Src/main.c ****   }
 179:Core/Src/main.c **** 
 180:Core/Src/main.c ****   /** 初始化系统总线时钟 */
 181:Core/Src/main.c ****   RCC_ClkInitStruct.ClockType = RCC_CLOCKTYPE_HCLK | RCC_CLOCKTYPE_SYSCLK |
 182:Core/Src/main.c ****                                 RCC_CLOCKTYPE_PCLK1 | RCC_CLOCKTYPE_PCLK2;
 183:Core/Src/main.c ****   RCC_ClkInitStruct.SYSCLKSource = RCC_SYSCLKSOURCE_PLLCLK; // SYSCLK = PLL 输出 = 72 MHz
 184:Core/Src/main.c ****   RCC_ClkInitStruct.AHBCLKDivider = RCC_SYSCLK_DIV1;        // HCLK = 72 MHz
 185:Core/Src/main.c ****   RCC_ClkInitStruct.APB1CLKDivider = RCC_HCLK_DIV2;         // PCLK1 = 36 MHz (需 ≤ 36 MHz)
 186:Core/Src/main.c ****   RCC_ClkInitStruct.APB2CLKDivider = RCC_HCLK_DIV1;         // PCLK2 = 72 MHz
 187:Core/Src/main.c **** 
 188:Core/Src/main.c ****   if (HAL_RCC_ClockConfig(&RCC_ClkInitStruct, FLASH_LATENCY_2) != HAL_OK)
 189:Core/Src/main.c ****   {
 190:Core/Src/main.c ****     myprintf("error 2\n");
 191:Core/Src/main.c ****     Error_Handler();
 192:Core/Src/main.c ****   }
 193:Core/Src/main.c **** 
 194:Core/Src/main.c ****   /** 设置 USB 时钟为 48 MHz（需要 SYSCLK = 72 MHz）*/
 195:Core/Src/main.c ****   PeriphClkInit.PeriphClockSelection = RCC_PERIPHCLK_USB;
 196:Core/Src/main.c ****   PeriphClkInit.UsbClockSelection = RCC_USBCLKSOURCE_PLL_DIV1_5; // 72 MHz / 1.5 = 48 MHz
 197:Core/Src/main.c **** 
 198:Core/Src/main.c ****   if (HAL_RCCEx_PeriphCLKConfig(&PeriphClkInit) != HAL_OK)
 199:Core/Src/main.c ****   {
 200:Core/Src/main.c ****     myprintf("error 3\n");
 201:Core/Src/main.c ****     Error_Handler();
 202:Core/Src/main.c ****   }
 203:Core/Src/main.c **** }
 204:Core/Src/main.c **** 
 205:Core/Src/main.c **** /* USER CODE BEGIN 4 */
 206:Core/Src/main.c **** 
 207:Core/Src/main.c **** /* USER CODE END 4 */
 208:Core/Src/main.c **** 
 209:Core/Src/main.c **** /**
 210:Core/Src/main.c ****  * @brief  This function is executed in case of error occurrence.
 211:Core/Src/main.c ****  * @retval None
 212:Core/Src/main.c ****  */
 213:Core/Src/main.c **** void Error_Handler(void)
 214:Core/Src/main.c **** {
 171              		.loc 1 214 1 is_stmt 1 view -0
 172              		.cfi_startproc
 173              		@ Volatile: function does not return.
 174              		@ args = 0, pretend = 0, frame = 0
 175              		@ frame_needed = 0, uses_anonymous_args = 0
 176              		@ link register save eliminated.
 215:Core/Src/main.c ****   /* USER CODE BEGIN Error_Handler_Debug */
 216:Core/Src/main.c ****   /* User can add his own implementation to report the HAL error return state */
 217:Core/Src/main.c ****   __disable_irq();
 177              		.loc 1 217 3 view .LVU14
 178              	.LBB9:
 179              	.LBI9:
ARM GAS  /tmp/ccwRNUuG.s 			page 8


 180              		.file 2 "Drivers/CMSIS/Include/cmsis_gcc.h"
   1:Drivers/CMSIS/Include/cmsis_gcc.h **** /**************************************************************************//**
   2:Drivers/CMSIS/Include/cmsis_gcc.h ****  * @file     cmsis_gcc.h
   3:Drivers/CMSIS/Include/cmsis_gcc.h ****  * @brief    CMSIS compiler GCC header file
   4:Drivers/CMSIS/Include/cmsis_gcc.h ****  * @version  V5.0.4
   5:Drivers/CMSIS/Include/cmsis_gcc.h ****  * @date     09. April 2018
   6:Drivers/CMSIS/Include/cmsis_gcc.h ****  ******************************************************************************/
   7:Drivers/CMSIS/Include/cmsis_gcc.h **** /*
   8:Drivers/CMSIS/Include/cmsis_gcc.h ****  * Copyright (c) 2009-2018 Arm Limited. All rights reserved.
   9:Drivers/CMSIS/Include/cmsis_gcc.h ****  *
  10:Drivers/CMSIS/Include/cmsis_gcc.h ****  * SPDX-License-Identifier: Apache-2.0
  11:Drivers/CMSIS/Include/cmsis_gcc.h ****  *
  12:Drivers/CMSIS/Include/cmsis_gcc.h ****  * Licensed under the Apache License, Version 2.0 (the License); you may
  13:Drivers/CMSIS/Include/cmsis_gcc.h ****  * not use this file except in compliance with the License.
  14:Drivers/CMSIS/Include/cmsis_gcc.h ****  * You may obtain a copy of the License at
  15:Drivers/CMSIS/Include/cmsis_gcc.h ****  *
  16:Drivers/CMSIS/Include/cmsis_gcc.h ****  * www.apache.org/licenses/LICENSE-2.0
  17:Drivers/CMSIS/Include/cmsis_gcc.h ****  *
  18:Drivers/CMSIS/Include/cmsis_gcc.h ****  * Unless required by applicable law or agreed to in writing, software
  19:Drivers/CMSIS/Include/cmsis_gcc.h ****  * distributed under the License is distributed on an AS IS BASIS, WITHOUT
  20:Drivers/CMSIS/Include/cmsis_gcc.h ****  * WARRANTIES OR CONDITIONS OF ANY KIND, either express or implied.
  21:Drivers/CMSIS/Include/cmsis_gcc.h ****  * See the License for the specific language governing permissions and
  22:Drivers/CMSIS/Include/cmsis_gcc.h ****  * limitations under the License.
  23:Drivers/CMSIS/Include/cmsis_gcc.h ****  */
  24:Drivers/CMSIS/Include/cmsis_gcc.h **** 
  25:Drivers/CMSIS/Include/cmsis_gcc.h **** #ifndef __CMSIS_GCC_H
  26:Drivers/CMSIS/Include/cmsis_gcc.h **** #define __CMSIS_GCC_H
  27:Drivers/CMSIS/Include/cmsis_gcc.h **** 
  28:Drivers/CMSIS/Include/cmsis_gcc.h **** /* ignore some GCC warnings */
  29:Drivers/CMSIS/Include/cmsis_gcc.h **** #pragma GCC diagnostic push
  30:Drivers/CMSIS/Include/cmsis_gcc.h **** #pragma GCC diagnostic ignored "-Wsign-conversion"
  31:Drivers/CMSIS/Include/cmsis_gcc.h **** #pragma GCC diagnostic ignored "-Wconversion"
  32:Drivers/CMSIS/Include/cmsis_gcc.h **** #pragma GCC diagnostic ignored "-Wunused-parameter"
  33:Drivers/CMSIS/Include/cmsis_gcc.h **** 
  34:Drivers/CMSIS/Include/cmsis_gcc.h **** /* Fallback for __has_builtin */
  35:Drivers/CMSIS/Include/cmsis_gcc.h **** #ifndef __has_builtin
  36:Drivers/CMSIS/Include/cmsis_gcc.h ****   #define __has_builtin(x) (0)
  37:Drivers/CMSIS/Include/cmsis_gcc.h **** #endif
  38:Drivers/CMSIS/Include/cmsis_gcc.h **** 
  39:Drivers/CMSIS/Include/cmsis_gcc.h **** /* CMSIS compiler specific defines */
  40:Drivers/CMSIS/Include/cmsis_gcc.h **** #ifndef   __ASM
  41:Drivers/CMSIS/Include/cmsis_gcc.h ****   #define __ASM                                  __asm
  42:Drivers/CMSIS/Include/cmsis_gcc.h **** #endif
  43:Drivers/CMSIS/Include/cmsis_gcc.h **** #ifndef   __INLINE
  44:Drivers/CMSIS/Include/cmsis_gcc.h ****   #define __INLINE                               inline
  45:Drivers/CMSIS/Include/cmsis_gcc.h **** #endif
  46:Drivers/CMSIS/Include/cmsis_gcc.h **** #ifndef   __STATIC_INLINE
  47:Drivers/CMSIS/Include/cmsis_gcc.h ****   #define __STATIC_INLINE                        static inline
  48:Drivers/CMSIS/Include/cmsis_gcc.h **** #endif
  49:Drivers/CMSIS/Include/cmsis_gcc.h **** #ifndef   __STATIC_FORCEINLINE                 
  50:Drivers/CMSIS/Include/cmsis_gcc.h ****   #define __STATIC_FORCEINLINE                   __attribute__((always_inline)) static inline
  51:Drivers/CMSIS/Include/cmsis_gcc.h **** #endif                                           
  52:Drivers/CMSIS/Include/cmsis_gcc.h **** #ifndef   __NO_RETURN
  53:Drivers/CMSIS/Include/cmsis_gcc.h ****   #define __NO_RETURN                            __attribute__((__noreturn__))
  54:Drivers/CMSIS/Include/cmsis_gcc.h **** #endif
  55:Drivers/CMSIS/Include/cmsis_gcc.h **** #ifndef   __USED
  56:Drivers/CMSIS/Include/cmsis_gcc.h ****   #define __USED                                 __attribute__((used))
ARM GAS  /tmp/ccwRNUuG.s 			page 9


  57:Drivers/CMSIS/Include/cmsis_gcc.h **** #endif
  58:Drivers/CMSIS/Include/cmsis_gcc.h **** #ifndef   __WEAK
  59:Drivers/CMSIS/Include/cmsis_gcc.h ****   #define __WEAK                                 __attribute__((weak))
  60:Drivers/CMSIS/Include/cmsis_gcc.h **** #endif
  61:Drivers/CMSIS/Include/cmsis_gcc.h **** #ifndef   __PACKED
  62:Drivers/CMSIS/Include/cmsis_gcc.h ****   #define __PACKED                               __attribute__((packed, aligned(1)))
  63:Drivers/CMSIS/Include/cmsis_gcc.h **** #endif
  64:Drivers/CMSIS/Include/cmsis_gcc.h **** #ifndef   __PACKED_STRUCT
  65:Drivers/CMSIS/Include/cmsis_gcc.h ****   #define __PACKED_STRUCT                        struct __attribute__((packed, aligned(1)))
  66:Drivers/CMSIS/Include/cmsis_gcc.h **** #endif
  67:Drivers/CMSIS/Include/cmsis_gcc.h **** #ifndef   __PACKED_UNION
  68:Drivers/CMSIS/Include/cmsis_gcc.h ****   #define __PACKED_UNION                         union __attribute__((packed, aligned(1)))
  69:Drivers/CMSIS/Include/cmsis_gcc.h **** #endif
  70:Drivers/CMSIS/Include/cmsis_gcc.h **** #ifndef   __UNALIGNED_UINT32        /* deprecated */
  71:Drivers/CMSIS/Include/cmsis_gcc.h ****   #pragma GCC diagnostic push
  72:Drivers/CMSIS/Include/cmsis_gcc.h ****   #pragma GCC diagnostic ignored "-Wpacked"
  73:Drivers/CMSIS/Include/cmsis_gcc.h ****   #pragma GCC diagnostic ignored "-Wattributes"
  74:Drivers/CMSIS/Include/cmsis_gcc.h ****   struct __attribute__((packed)) T_UINT32 { uint32_t v; };
  75:Drivers/CMSIS/Include/cmsis_gcc.h ****   #pragma GCC diagnostic pop
  76:Drivers/CMSIS/Include/cmsis_gcc.h ****   #define __UNALIGNED_UINT32(x)                  (((struct T_UINT32 *)(x))->v)
  77:Drivers/CMSIS/Include/cmsis_gcc.h **** #endif
  78:Drivers/CMSIS/Include/cmsis_gcc.h **** #ifndef   __UNALIGNED_UINT16_WRITE
  79:Drivers/CMSIS/Include/cmsis_gcc.h ****   #pragma GCC diagnostic push
  80:Drivers/CMSIS/Include/cmsis_gcc.h ****   #pragma GCC diagnostic ignored "-Wpacked"
  81:Drivers/CMSIS/Include/cmsis_gcc.h ****   #pragma GCC diagnostic ignored "-Wattributes"
  82:Drivers/CMSIS/Include/cmsis_gcc.h ****   __PACKED_STRUCT T_UINT16_WRITE { uint16_t v; };
  83:Drivers/CMSIS/Include/cmsis_gcc.h ****   #pragma GCC diagnostic pop
  84:Drivers/CMSIS/Include/cmsis_gcc.h ****   #define __UNALIGNED_UINT16_WRITE(addr, val)    (void)((((struct T_UINT16_WRITE *)(void *)(addr))-
  85:Drivers/CMSIS/Include/cmsis_gcc.h **** #endif
  86:Drivers/CMSIS/Include/cmsis_gcc.h **** #ifndef   __UNALIGNED_UINT16_READ
  87:Drivers/CMSIS/Include/cmsis_gcc.h ****   #pragma GCC diagnostic push
  88:Drivers/CMSIS/Include/cmsis_gcc.h ****   #pragma GCC diagnostic ignored "-Wpacked"
  89:Drivers/CMSIS/Include/cmsis_gcc.h ****   #pragma GCC diagnostic ignored "-Wattributes"
  90:Drivers/CMSIS/Include/cmsis_gcc.h ****   __PACKED_STRUCT T_UINT16_READ { uint16_t v; };
  91:Drivers/CMSIS/Include/cmsis_gcc.h ****   #pragma GCC diagnostic pop
  92:Drivers/CMSIS/Include/cmsis_gcc.h ****   #define __UNALIGNED_UINT16_READ(addr)          (((const struct T_UINT16_READ *)(const void *)(add
  93:Drivers/CMSIS/Include/cmsis_gcc.h **** #endif
  94:Drivers/CMSIS/Include/cmsis_gcc.h **** #ifndef   __UNALIGNED_UINT32_WRITE
  95:Drivers/CMSIS/Include/cmsis_gcc.h ****   #pragma GCC diagnostic push
  96:Drivers/CMSIS/Include/cmsis_gcc.h ****   #pragma GCC diagnostic ignored "-Wpacked"
  97:Drivers/CMSIS/Include/cmsis_gcc.h ****   #pragma GCC diagnostic ignored "-Wattributes"
  98:Drivers/CMSIS/Include/cmsis_gcc.h ****   __PACKED_STRUCT T_UINT32_WRITE { uint32_t v; };
  99:Drivers/CMSIS/Include/cmsis_gcc.h ****   #pragma GCC diagnostic pop
 100:Drivers/CMSIS/Include/cmsis_gcc.h ****   #define __UNALIGNED_UINT32_WRITE(addr, val)    (void)((((struct T_UINT32_WRITE *)(void *)(addr))-
 101:Drivers/CMSIS/Include/cmsis_gcc.h **** #endif
 102:Drivers/CMSIS/Include/cmsis_gcc.h **** #ifndef   __UNALIGNED_UINT32_READ
 103:Drivers/CMSIS/Include/cmsis_gcc.h ****   #pragma GCC diagnostic push
 104:Drivers/CMSIS/Include/cmsis_gcc.h ****   #pragma GCC diagnostic ignored "-Wpacked"
 105:Drivers/CMSIS/Include/cmsis_gcc.h ****   #pragma GCC diagnostic ignored "-Wattributes"
 106:Drivers/CMSIS/Include/cmsis_gcc.h ****   __PACKED_STRUCT T_UINT32_READ { uint32_t v; };
 107:Drivers/CMSIS/Include/cmsis_gcc.h ****   #pragma GCC diagnostic pop
 108:Drivers/CMSIS/Include/cmsis_gcc.h ****   #define __UNALIGNED_UINT32_READ(addr)          (((const struct T_UINT32_READ *)(const void *)(add
 109:Drivers/CMSIS/Include/cmsis_gcc.h **** #endif
 110:Drivers/CMSIS/Include/cmsis_gcc.h **** #ifndef   __ALIGNED
 111:Drivers/CMSIS/Include/cmsis_gcc.h ****   #define __ALIGNED(x)                           __attribute__((aligned(x)))
 112:Drivers/CMSIS/Include/cmsis_gcc.h **** #endif
 113:Drivers/CMSIS/Include/cmsis_gcc.h **** #ifndef   __RESTRICT
ARM GAS  /tmp/ccwRNUuG.s 			page 10


 114:Drivers/CMSIS/Include/cmsis_gcc.h ****   #define __RESTRICT                             __restrict
 115:Drivers/CMSIS/Include/cmsis_gcc.h **** #endif
 116:Drivers/CMSIS/Include/cmsis_gcc.h **** 
 117:Drivers/CMSIS/Include/cmsis_gcc.h **** 
 118:Drivers/CMSIS/Include/cmsis_gcc.h **** /* ###########################  Core Function Access  ########################### */
 119:Drivers/CMSIS/Include/cmsis_gcc.h **** /** \ingroup  CMSIS_Core_FunctionInterface
 120:Drivers/CMSIS/Include/cmsis_gcc.h ****     \defgroup CMSIS_Core_RegAccFunctions CMSIS Core Register Access Functions
 121:Drivers/CMSIS/Include/cmsis_gcc.h ****   @{
 122:Drivers/CMSIS/Include/cmsis_gcc.h ****  */
 123:Drivers/CMSIS/Include/cmsis_gcc.h **** 
 124:Drivers/CMSIS/Include/cmsis_gcc.h **** /**
 125:Drivers/CMSIS/Include/cmsis_gcc.h ****   \brief   Enable IRQ Interrupts
 126:Drivers/CMSIS/Include/cmsis_gcc.h ****   \details Enables IRQ interrupts by clearing the I-bit in the CPSR.
 127:Drivers/CMSIS/Include/cmsis_gcc.h ****            Can only be executed in Privileged modes.
 128:Drivers/CMSIS/Include/cmsis_gcc.h ****  */
 129:Drivers/CMSIS/Include/cmsis_gcc.h **** __STATIC_FORCEINLINE void __enable_irq(void)
 130:Drivers/CMSIS/Include/cmsis_gcc.h **** {
 131:Drivers/CMSIS/Include/cmsis_gcc.h ****   __ASM volatile ("cpsie i" : : : "memory");
 132:Drivers/CMSIS/Include/cmsis_gcc.h **** }
 133:Drivers/CMSIS/Include/cmsis_gcc.h **** 
 134:Drivers/CMSIS/Include/cmsis_gcc.h **** 
 135:Drivers/CMSIS/Include/cmsis_gcc.h **** /**
 136:Drivers/CMSIS/Include/cmsis_gcc.h ****   \brief   Disable IRQ Interrupts
 137:Drivers/CMSIS/Include/cmsis_gcc.h ****   \details Disables IRQ interrupts by setting the I-bit in the CPSR.
 138:Drivers/CMSIS/Include/cmsis_gcc.h ****            Can only be executed in Privileged modes.
 139:Drivers/CMSIS/Include/cmsis_gcc.h ****  */
 140:Drivers/CMSIS/Include/cmsis_gcc.h **** __STATIC_FORCEINLINE void __disable_irq(void)
 181              		.loc 2 140 27 view .LVU15
 182              	.LBB10:
 141:Drivers/CMSIS/Include/cmsis_gcc.h **** {
 142:Drivers/CMSIS/Include/cmsis_gcc.h ****   __ASM volatile ("cpsid i" : : : "memory");
 183              		.loc 2 142 3 view .LVU16
 184              		.syntax unified
 185              	@ 142 "Drivers/CMSIS/Include/cmsis_gcc.h" 1
 186 0000 72B6     		cpsid i
 187              	@ 0 "" 2
 188              		.thumb
 189              		.syntax unified
 190              	.L10:
 191              	.LBE10:
 192              	.LBE9:
 218:Core/Src/main.c ****   while (1)
 193              		.loc 1 218 3 discriminator 1 view .LVU17
 219:Core/Src/main.c ****   {
 220:Core/Src/main.c ****   }
 194              		.loc 1 220 3 discriminator 1 view .LVU18
 218:Core/Src/main.c ****   while (1)
 195              		.loc 1 218 9 discriminator 1 view .LVU19
 196 0002 FEE7     		b	.L10
 197              		.cfi_endproc
 198              	.LFE71:
 200              		.section	.rodata.SystemClock_Config.str1.4,"aMS",%progbits,1
 201              		.align	2
 202              	.LC2:
 203 0000 6572726F 		.ascii	"error 1\012\000"
 203      7220310A 
 203      00
ARM GAS  /tmp/ccwRNUuG.s 			page 11


 204 0009 000000   		.align	2
 205              	.LC3:
 206 000c 6572726F 		.ascii	"error 2\012\000"
 206      7220320A 
 206      00
 207 0015 000000   		.align	2
 208              	.LC4:
 209 0018 6572726F 		.ascii	"error 3\012\000"
 209      7220330A 
 209      00
 210              		.section	.text.SystemClock_Config,"ax",%progbits
 211              		.align	1
 212              		.global	SystemClock_Config
 213              		.syntax unified
 214              		.thumb
 215              		.thumb_func
 216              		.fpu softvfp
 218              	SystemClock_Config:
 219              	.LFB70:
 160:Core/Src/main.c ****   RCC_OscInitTypeDef RCC_OscInitStruct = {0};
 220              		.loc 1 160 1 view -0
 221              		.cfi_startproc
 222              		@ args = 0, pretend = 0, frame = 88
 223              		@ frame_needed = 0, uses_anonymous_args = 0
 224 0000 00B5     		push	{lr}
 225              	.LCFI6:
 226              		.cfi_def_cfa_offset 4
 227              		.cfi_offset 14, -4
 228 0002 97B0     		sub	sp, sp, #92
 229              	.LCFI7:
 230              		.cfi_def_cfa_offset 96
 161:Core/Src/main.c ****   RCC_ClkInitTypeDef RCC_ClkInitStruct = {0};
 231              		.loc 1 161 3 view .LVU21
 161:Core/Src/main.c ****   RCC_ClkInitTypeDef RCC_ClkInitStruct = {0};
 232              		.loc 1 161 22 is_stmt 0 view .LVU22
 233 0004 0023     		movs	r3, #0
 234 0006 0F93     		str	r3, [sp, #60]
 235 0008 1193     		str	r3, [sp, #68]
 236 000a 1293     		str	r3, [sp, #72]
 162:Core/Src/main.c ****   RCC_PeriphCLKInitTypeDef PeriphClkInit = {0};
 237              		.loc 1 162 3 is_stmt 1 view .LVU23
 162:Core/Src/main.c ****   RCC_PeriphCLKInitTypeDef PeriphClkInit = {0};
 238              		.loc 1 162 22 is_stmt 0 view .LVU24
 239 000c 0793     		str	r3, [sp, #28]
 240 000e 0893     		str	r3, [sp, #32]
 241 0010 0993     		str	r3, [sp, #36]
 242 0012 0A93     		str	r3, [sp, #40]
 243 0014 0B93     		str	r3, [sp, #44]
 163:Core/Src/main.c **** 
 244              		.loc 1 163 3 is_stmt 1 view .LVU25
 163:Core/Src/main.c **** 
 245              		.loc 1 163 28 is_stmt 0 view .LVU26
 246 0016 0193     		str	r3, [sp, #4]
 247 0018 0293     		str	r3, [sp, #8]
 248 001a 0393     		str	r3, [sp, #12]
 249 001c 0493     		str	r3, [sp, #16]
 250 001e 0593     		str	r3, [sp, #20]
ARM GAS  /tmp/ccwRNUuG.s 			page 12


 251 0020 0693     		str	r3, [sp, #24]
 166:Core/Src/main.c ****   RCC_OscInitStruct.HSEState = RCC_HSE_ON;                   // 打开 HSE
 252              		.loc 1 166 3 is_stmt 1 view .LVU27
 166:Core/Src/main.c ****   RCC_OscInitStruct.HSEState = RCC_HSE_ON;                   // 打开 HSE
 253              		.loc 1 166 36 is_stmt 0 view .LVU28
 254 0022 0121     		movs	r1, #1
 255 0024 0C91     		str	r1, [sp, #48]
 167:Core/Src/main.c ****   RCC_OscInitStruct.HSEPredivValue = RCC_HSE_PREDIV_DIV1;    // HSE不分频
 256              		.loc 1 167 3 is_stmt 1 view .LVU29
 167:Core/Src/main.c ****   RCC_OscInitStruct.HSEPredivValue = RCC_HSE_PREDIV_DIV1;    // HSE不分频
 257              		.loc 1 167 30 is_stmt 0 view .LVU30
 258 0026 4FF48032 		mov	r2, #65536
 259 002a 0D92     		str	r2, [sp, #52]
 168:Core/Src/main.c ****   RCC_OscInitStruct.HSIState = RCC_HSI_ON;                   // 打开 HSI（备份）
 260              		.loc 1 168 3 is_stmt 1 view .LVU31
 168:Core/Src/main.c ****   RCC_OscInitStruct.HSIState = RCC_HSI_ON;                   // 打开 HSI（备份）
 261              		.loc 1 168 36 is_stmt 0 view .LVU32
 262 002c 0E93     		str	r3, [sp, #56]
 169:Core/Src/main.c ****   RCC_OscInitStruct.PLL.PLLState = RCC_PLL_ON;               // 打开 PLL
 263              		.loc 1 169 3 is_stmt 1 view .LVU33
 169:Core/Src/main.c ****   RCC_OscInitStruct.PLL.PLLState = RCC_PLL_ON;               // 打开 PLL
 264              		.loc 1 169 30 is_stmt 0 view .LVU34
 265 002e 1091     		str	r1, [sp, #64]
 170:Core/Src/main.c ****   RCC_OscInitStruct.PLL.PLLSource = RCC_PLLSOURCE_HSE;       // PLL输入源为HSE
 266              		.loc 1 170 3 is_stmt 1 view .LVU35
 170:Core/Src/main.c ****   RCC_OscInitStruct.PLL.PLLSource = RCC_PLLSOURCE_HSE;       // PLL输入源为HSE
 267              		.loc 1 170 34 is_stmt 0 view .LVU36
 268 0030 0223     		movs	r3, #2
 269 0032 1393     		str	r3, [sp, #76]
 171:Core/Src/main.c ****   RCC_OscInitStruct.PLL.PLLMUL = RCC_PLL_MUL9;               // 8 MHz × 9 = 72 MHz
 270              		.loc 1 171 3 is_stmt 1 view .LVU37
 171:Core/Src/main.c ****   RCC_OscInitStruct.PLL.PLLMUL = RCC_PLL_MUL9;               // 8 MHz × 9 = 72 MHz
 271              		.loc 1 171 35 is_stmt 0 view .LVU38
 272 0034 1492     		str	r2, [sp, #80]
 172:Core/Src/main.c **** 
 273              		.loc 1 172 3 is_stmt 1 view .LVU39
 172:Core/Src/main.c **** 
 274              		.loc 1 172 32 is_stmt 0 view .LVU40
 275 0036 4FF4E013 		mov	r3, #1835008
 276 003a 1593     		str	r3, [sp, #84]
 174:Core/Src/main.c ****   {
 277              		.loc 1 174 3 is_stmt 1 view .LVU41
 174:Core/Src/main.c ****   {
 278              		.loc 1 174 7 is_stmt 0 view .LVU42
 279 003c 0CA8     		add	r0, sp, #48
 280 003e FFF7FEFF 		bl	HAL_RCC_OscConfig
 281              	.LVL11:
 174:Core/Src/main.c ****   {
 282              		.loc 1 174 6 view .LVU43
 283 0042 C0B9     		cbnz	r0, .L16
 181:Core/Src/main.c ****                                 RCC_CLOCKTYPE_PCLK1 | RCC_CLOCKTYPE_PCLK2;
 284              		.loc 1 181 3 is_stmt 1 view .LVU44
 181:Core/Src/main.c ****                                 RCC_CLOCKTYPE_PCLK1 | RCC_CLOCKTYPE_PCLK2;
 285              		.loc 1 181 31 is_stmt 0 view .LVU45
 286 0044 0F23     		movs	r3, #15
 287 0046 0793     		str	r3, [sp, #28]
 183:Core/Src/main.c ****   RCC_ClkInitStruct.AHBCLKDivider = RCC_SYSCLK_DIV1;        // HCLK = 72 MHz
ARM GAS  /tmp/ccwRNUuG.s 			page 13


 288              		.loc 1 183 3 is_stmt 1 view .LVU46
 183:Core/Src/main.c ****   RCC_ClkInitStruct.AHBCLKDivider = RCC_SYSCLK_DIV1;        // HCLK = 72 MHz
 289              		.loc 1 183 34 is_stmt 0 view .LVU47
 290 0048 0221     		movs	r1, #2
 291 004a 0891     		str	r1, [sp, #32]
 184:Core/Src/main.c ****   RCC_ClkInitStruct.APB1CLKDivider = RCC_HCLK_DIV2;         // PCLK1 = 36 MHz (需 ≤ 36 MHz)
 292              		.loc 1 184 3 is_stmt 1 view .LVU48
 184:Core/Src/main.c ****   RCC_ClkInitStruct.APB1CLKDivider = RCC_HCLK_DIV2;         // PCLK1 = 36 MHz (需 ≤ 36 MHz)
 293              		.loc 1 184 35 is_stmt 0 view .LVU49
 294 004c 0023     		movs	r3, #0
 295 004e 0993     		str	r3, [sp, #36]
 185:Core/Src/main.c ****   RCC_ClkInitStruct.APB2CLKDivider = RCC_HCLK_DIV1;         // PCLK2 = 72 MHz
 296              		.loc 1 185 3 is_stmt 1 view .LVU50
 185:Core/Src/main.c ****   RCC_ClkInitStruct.APB2CLKDivider = RCC_HCLK_DIV1;         // PCLK2 = 72 MHz
 297              		.loc 1 185 36 is_stmt 0 view .LVU51
 298 0050 4FF48062 		mov	r2, #1024
 299 0054 0A92     		str	r2, [sp, #40]
 186:Core/Src/main.c **** 
 300              		.loc 1 186 3 is_stmt 1 view .LVU52
 186:Core/Src/main.c **** 
 301              		.loc 1 186 36 is_stmt 0 view .LVU53
 302 0056 0B93     		str	r3, [sp, #44]
 188:Core/Src/main.c ****   {
 303              		.loc 1 188 3 is_stmt 1 view .LVU54
 188:Core/Src/main.c ****   {
 304              		.loc 1 188 7 is_stmt 0 view .LVU55
 305 0058 07A8     		add	r0, sp, #28
 306 005a FFF7FEFF 		bl	HAL_RCC_ClockConfig
 307              	.LVL12:
 188:Core/Src/main.c ****   {
 308              		.loc 1 188 6 view .LVU56
 309 005e 80B9     		cbnz	r0, .L17
 195:Core/Src/main.c ****   PeriphClkInit.UsbClockSelection = RCC_USBCLKSOURCE_PLL_DIV1_5; // 72 MHz / 1.5 = 48 MHz
 310              		.loc 1 195 3 is_stmt 1 view .LVU57
 195:Core/Src/main.c ****   PeriphClkInit.UsbClockSelection = RCC_USBCLKSOURCE_PLL_DIV1_5; // 72 MHz / 1.5 = 48 MHz
 311              		.loc 1 195 38 is_stmt 0 view .LVU58
 312 0060 1023     		movs	r3, #16
 313 0062 0193     		str	r3, [sp, #4]
 196:Core/Src/main.c **** 
 314              		.loc 1 196 3 is_stmt 1 view .LVU59
 196:Core/Src/main.c **** 
 315              		.loc 1 196 35 is_stmt 0 view .LVU60
 316 0064 0023     		movs	r3, #0
 317 0066 0693     		str	r3, [sp, #24]
 198:Core/Src/main.c ****   {
 318              		.loc 1 198 3 is_stmt 1 view .LVU61
 198:Core/Src/main.c ****   {
 319              		.loc 1 198 7 is_stmt 0 view .LVU62
 320 0068 01A8     		add	r0, sp, #4
 321 006a FFF7FEFF 		bl	HAL_RCCEx_PeriphCLKConfig
 322              	.LVL13:
 198:Core/Src/main.c ****   {
 323              		.loc 1 198 6 view .LVU63
 324 006e 70B9     		cbnz	r0, .L18
 203:Core/Src/main.c **** 
 325              		.loc 1 203 1 view .LVU64
 326 0070 17B0     		add	sp, sp, #92
ARM GAS  /tmp/ccwRNUuG.s 			page 14


 327              	.LCFI8:
 328              		.cfi_remember_state
 329              		.cfi_def_cfa_offset 4
 330              		@ sp needed
 331 0072 5DF804FB 		ldr	pc, [sp], #4
 332              	.L16:
 333              	.LCFI9:
 334              		.cfi_restore_state
 176:Core/Src/main.c ****     Error_Handler();
 335              		.loc 1 176 5 is_stmt 1 view .LVU65
 336 0076 0949     		ldr	r1, .L19
 337 0078 0020     		movs	r0, #0
 338 007a FFF7FEFF 		bl	SEGGER_RTT_printf
 339              	.LVL14:
 177:Core/Src/main.c ****   }
 340              		.loc 1 177 5 view .LVU66
 341 007e FFF7FEFF 		bl	Error_Handler
 342              	.LVL15:
 343              	.L17:
 190:Core/Src/main.c ****     Error_Handler();
 344              		.loc 1 190 5 view .LVU67
 345 0082 0749     		ldr	r1, .L19+4
 346 0084 0020     		movs	r0, #0
 347 0086 FFF7FEFF 		bl	SEGGER_RTT_printf
 348              	.LVL16:
 191:Core/Src/main.c ****   }
 349              		.loc 1 191 5 view .LVU68
 350 008a FFF7FEFF 		bl	Error_Handler
 351              	.LVL17:
 352              	.L18:
 200:Core/Src/main.c ****     Error_Handler();
 353              		.loc 1 200 5 view .LVU69
 354 008e 0549     		ldr	r1, .L19+8
 355 0090 0020     		movs	r0, #0
 356 0092 FFF7FEFF 		bl	SEGGER_RTT_printf
 357              	.LVL18:
 201:Core/Src/main.c ****   }
 358              		.loc 1 201 5 view .LVU70
 359 0096 FFF7FEFF 		bl	Error_Handler
 360              	.LVL19:
 361              	.L20:
 362 009a 00BF     		.align	2
 363              	.L19:
 364 009c 00000000 		.word	.LC2
 365 00a0 0C000000 		.word	.LC3
 366 00a4 18000000 		.word	.LC4
 367              		.cfi_endproc
 368              	.LFE70:
 370              		.section	.rodata.main.str1.4,"aMS",%progbits,1
 371              		.align	2
 372              	.LC5:
 373 0000 68616C5F 		.ascii	"hal_init success\012\000"
 373      696E6974 
 373      20737563 
 373      63657373 
 373      0A00
 374 0012 0000     		.align	2
ARM GAS  /tmp/ccwRNUuG.s 			page 15


 375              	.LC6:
 376 0014 73797374 		.ascii	"systemclock init success\012\000"
 376      656D636C 
 376      6F636B20 
 376      696E6974 
 376      20737563 
 377 002e 0000     		.align	2
 378              	.LC7:
 379 0030 70657269 		.ascii	"peripheral init success\012\000"
 379      70686572 
 379      616C2069 
 379      6E697420 
 379      73756363 
 380              		.section	.text.main,"ax",%progbits
 381              		.align	1
 382              		.global	main
 383              		.syntax unified
 384              		.thumb
 385              		.thumb_func
 386              		.fpu softvfp
 388              	main:
 389              	.LFB67:
  80:Core/Src/main.c ****   /* USER CODE BEGIN 1 */
 390              		.loc 1 80 1 view -0
 391              		.cfi_startproc
 392              		@ args = 0, pretend = 0, frame = 0
 393              		@ frame_needed = 0, uses_anonymous_args = 0
 394 0000 08B5     		push	{r3, lr}
 395              	.LCFI10:
 396              		.cfi_def_cfa_offset 8
 397              		.cfi_offset 3, -8
 398              		.cfi_offset 14, -4
  88:Core/Src/main.c ****   myprintf("hal_init success\n");
 399              		.loc 1 88 3 view .LVU72
 400 0002 FFF7FEFF 		bl	HAL_Init
 401              	.LVL20:
  89:Core/Src/main.c ****   SystemClock_Config();
 402              		.loc 1 89 3 view .LVU73
 403 0006 2349     		ldr	r1, .L24
 404 0008 0020     		movs	r0, #0
 405 000a FFF7FEFF 		bl	SEGGER_RTT_printf
 406              	.LVL21:
  90:Core/Src/main.c ****   myprintf("systemclock init success\n");
 407              		.loc 1 90 3 view .LVU74
 408 000e FFF7FEFF 		bl	SystemClock_Config
 409              	.LVL22:
  91:Core/Src/main.c ****   /* USER CODE BEGIN Init */
 410              		.loc 1 91 3 view .LVU75
 411 0012 2149     		ldr	r1, .L24+4
 412 0014 0020     		movs	r0, #0
 413 0016 FFF7FEFF 		bl	SEGGER_RTT_printf
 414              	.LVL23:
 102:Core/Src/main.c ****   MX_GPIO_Init();
 415              		.loc 1 102 3 view .LVU76
 416              	.LBB11:
 102:Core/Src/main.c ****   MX_GPIO_Init();
 417              		.loc 1 102 3 view .LVU77
ARM GAS  /tmp/ccwRNUuG.s 			page 16


 418 001a 204A     		ldr	r2, .L24+8
 419 001c 5368     		ldr	r3, [r2, #4]
 420              	.LVL24:
 102:Core/Src/main.c ****   MX_GPIO_Init();
 421              		.loc 1 102 3 view .LVU78
 422 001e 23F0E063 		bic	r3, r3, #117440512
 423              	.LVL25:
 102:Core/Src/main.c ****   MX_GPIO_Init();
 424              		.loc 1 102 3 view .LVU79
 425 0022 43F00073 		orr	r3, r3, #33554432
 426              	.LVL26:
 102:Core/Src/main.c ****   MX_GPIO_Init();
 427              		.loc 1 102 3 view .LVU80
 428 0026 5360     		str	r3, [r2, #4]
 429              	.LBE11:
 102:Core/Src/main.c ****   MX_GPIO_Init();
 430              		.loc 1 102 3 view .LVU81
 103:Core/Src/main.c ****   MX_SPI2_Init();
 431              		.loc 1 103 3 view .LVU82
 432 0028 FFF7FEFF 		bl	MX_GPIO_Init
 433              	.LVL27:
 104:Core/Src/main.c ****   MX_TIM1_Init();
 434              		.loc 1 104 3 view .LVU83
 435 002c FFF7FEFF 		bl	MX_SPI2_Init
 436              	.LVL28:
 105:Core/Src/main.c ****   MX_TIM3_Init();
 437              		.loc 1 105 3 view .LVU84
 438 0030 FFF7FEFF 		bl	MX_TIM1_Init
 439              	.LVL29:
 106:Core/Src/main.c ****   MX_TIM6_Init();         // CubeMX 生成的 TIM6 初始化
 440              		.loc 1 106 3 view .LVU85
 441 0034 FFF7FEFF 		bl	MX_TIM3_Init
 442              	.LVL30:
 107:Core/Src/main.c ****   MX_TIM8_Init();
 443              		.loc 1 107 3 view .LVU86
 444 0038 FFF7FEFF 		bl	MX_TIM6_Init
 445              	.LVL31:
 108:Core/Src/main.c ****   ADXL345_Init();
 446              		.loc 1 108 3 view .LVU87
 447 003c FFF7FEFF 		bl	MX_TIM8_Init
 448              	.LVL32:
 109:Core/Src/main.c ****   DiffSignal_Init();
 449              		.loc 1 109 3 view .LVU88
 450 0040 FFF7FEFF 		bl	ADXL345_Init
 451              	.LVL33:
 110:Core/Src/main.c ****   SoftTimer_Init();
 452              		.loc 1 110 3 view .LVU89
 453 0044 FFF7FEFF 		bl	DiffSignal_Init
 454              	.LVL34:
 111:Core/Src/main.c ****   HAL_TIM_Base_Start_IT(&htim6);
 455              		.loc 1 111 3 view .LVU90
 456 0048 FFF7FEFF 		bl	SoftTimer_Init
 457              	.LVL35:
 112:Core/Src/main.c **** 
 458              		.loc 1 112 3 view .LVU91
 459 004c 1448     		ldr	r0, .L24+12
 460 004e FFF7FEFF 		bl	HAL_TIM_Base_Start_IT
ARM GAS  /tmp/ccwRNUuG.s 			page 17


 461              	.LVL36:
 114:Core/Src/main.c ****   DHT22_Init();
 462              		.loc 1 114 3 view .LVU92
 463 0052 6420     		movs	r0, #100
 464 0054 FFF7FEFF 		bl	HAL_Delay
 465              	.LVL37:
 115:Core/Src/main.c ****   EEPROM_Init();
 466              		.loc 1 115 3 view .LVU93
 467 0058 FFF7FEFF 		bl	DHT22_Init
 468              	.LVL38:
 116:Core/Src/main.c ****   myprintf("peripheral init success\n");
 469              		.loc 1 116 3 view .LVU94
 470 005c FFF7FEFF 		bl	EEPROM_Init
 471              	.LVL39:
 117:Core/Src/main.c ****   HAL_Delay(2000);
 472              		.loc 1 117 3 view .LVU95
 473 0060 1049     		ldr	r1, .L24+16
 474 0062 0020     		movs	r0, #0
 475 0064 FFF7FEFF 		bl	SEGGER_RTT_printf
 476              	.LVL40:
 118:Core/Src/main.c ****   SoftTimer_StartPeriodic(2000, dht22_data_read_callback);
 477              		.loc 1 118 3 view .LVU96
 478 0068 4FF4FA60 		mov	r0, #2000
 479 006c FFF7FEFF 		bl	HAL_Delay
 480              	.LVL41:
 119:Core/Src/main.c ****   SoftTimer_StartPeriodic(2000, ADXL345_data_read_call_back);
 481              		.loc 1 119 3 view .LVU97
 482              	.LBB12:
 483              	.LBI12:
 484              		.file 3 "sensor_device/soft_timer.h"
   1:sensor_device/soft_timer.h **** /* soft_timer.h */
   2:sensor_device/soft_timer.h **** 
   3:sensor_device/soft_timer.h **** #ifndef __SOFT_TIMER_H__
   4:sensor_device/soft_timer.h **** #define __SOFT_TIMER_H__
   5:sensor_device/soft_timer.h **** 
   6:sensor_device/soft_timer.h **** #include "stdint.h"
   7:sensor_device/soft_timer.h **** #include "stdbool.h"
   8:sensor_device/soft_timer.h **** #include "stddef.h"
   9:sensor_device/soft_timer.h **** 
  10:sensor_device/soft_timer.h **** #define SOFT_TIMER_MAX    8   // 最多同时支持 8 路软件定时器
  11:sensor_device/soft_timer.h **** 
  12:sensor_device/soft_timer.h **** typedef void (*SoftTimer_Callback)(void);
  13:sensor_device/soft_timer.h **** 
  14:sensor_device/soft_timer.h **** typedef enum {
  15:sensor_device/soft_timer.h ****     TIMER_MODE_ONE_SHOT = 0,   // 到期只执行一次，然后自动停止
  16:sensor_device/soft_timer.h ****     TIMER_MODE_PERIODIC         // 到期后自动重载，循环执行
  17:sensor_device/soft_timer.h **** } SoftTimer_Mode;
  18:sensor_device/soft_timer.h **** 
  19:sensor_device/soft_timer.h **** typedef struct {
  20:sensor_device/soft_timer.h ****     bool               active;       // 是否正在运行
  21:sensor_device/soft_timer.h ****     uint32_t           reload_ms;    // 重载周期（ms）
  22:sensor_device/soft_timer.h ****     uint32_t           counter;      // 当前倒计时值
  23:sensor_device/soft_timer.h ****     SoftTimer_Callback cb;           // 到期回调
  24:sensor_device/soft_timer.h ****     SoftTimer_Mode     mode;         // 单次 or 循环
  25:sensor_device/soft_timer.h **** } SoftTimer_t;
  26:sensor_device/soft_timer.h **** 
  27:sensor_device/soft_timer.h **** /**
ARM GAS  /tmp/ccwRNUuG.s 			page 18


  28:sensor_device/soft_timer.h ****  * @brief 初始化软件定时器模块（必须在 TIM6 启动前调用一次）
  29:sensor_device/soft_timer.h ****  */
  30:sensor_device/soft_timer.h **** void SoftTimer_Init(void);
  31:sensor_device/soft_timer.h **** 
  32:sensor_device/soft_timer.h **** /**
  33:sensor_device/soft_timer.h ****  * @brief 创建并启动一个软件定时器
  34:sensor_device/soft_timer.h ****  * @param period_ms  定时周期，单位 ms
  35:sensor_device/soft_timer.h ****  * @param cb         到期回调函数
  36:sensor_device/soft_timer.h ****  * @param mode       TIMER_MODE_ONE_SHOT 或 TIMER_MODE_PERIODIC
  37:sensor_device/soft_timer.h ****  * @return 定时器 ID（0 ～ SOFT_TIMER_MAX-1），返回 -1 表示已满
  38:sensor_device/soft_timer.h ****  */
  39:sensor_device/soft_timer.h **** int8_t SoftTimer_Start(uint32_t period_ms, SoftTimer_Callback cb, SoftTimer_Mode mode);
  40:sensor_device/soft_timer.h **** 
  41:sensor_device/soft_timer.h **** /**
  42:sensor_device/soft_timer.h ****  * @brief 停止并释放一个定时器
  43:sensor_device/soft_timer.h ****  * @param id 定时器 ID
  44:sensor_device/soft_timer.h ****  */
  45:sensor_device/soft_timer.h **** void SoftTimer_Stop(int8_t id);
  46:sensor_device/soft_timer.h **** 
  47:sensor_device/soft_timer.h **** /**
  48:sensor_device/soft_timer.h ****  * @brief 软件定时器节拍函数，需在 1ms 中断里调用一次
  49:sensor_device/soft_timer.h ****  */
  50:sensor_device/soft_timer.h **** void SoftTimer_Tick(void);
  51:sensor_device/soft_timer.h **** 
  52:sensor_device/soft_timer.h **** /* 方便封装：单次、周期定时器 */
  53:sensor_device/soft_timer.h **** static inline int8_t SoftTimer_StartOneShot(uint32_t ms, SoftTimer_Callback cb) {
  54:sensor_device/soft_timer.h ****     return SoftTimer_Start(ms, cb, TIMER_MODE_ONE_SHOT);
  55:sensor_device/soft_timer.h **** }
  56:sensor_device/soft_timer.h **** static inline int8_t SoftTimer_StartPeriodic(uint32_t ms, SoftTimer_Callback cb) {
 485              		.loc 3 56 22 view .LVU98
 486              	.LBB13:
  57:sensor_device/soft_timer.h ****     return SoftTimer_Start(ms, cb, TIMER_MODE_PERIODIC);
 487              		.loc 3 57 5 view .LVU99
 488              		.loc 3 57 12 is_stmt 0 view .LVU100
 489 0070 0122     		movs	r2, #1
 490 0072 0D49     		ldr	r1, .L24+20
 491 0074 4FF4FA60 		mov	r0, #2000
 492 0078 FFF7FEFF 		bl	SoftTimer_Start
 493              	.LVL42:
 494              		.loc 3 57 12 view .LVU101
 495              	.LBE13:
 496              	.LBE12:
 120:Core/Src/main.c ****   /* USER CODE BEGIN 2 */
 497              		.loc 1 120 3 is_stmt 1 view .LVU102
 498              	.LBB14:
 499              	.LBI14:
  56:sensor_device/soft_timer.h ****     return SoftTimer_Start(ms, cb, TIMER_MODE_PERIODIC);
 500              		.loc 3 56 22 view .LVU103
 501              	.LBB15:
 502              		.loc 3 57 5 view .LVU104
 503              		.loc 3 57 12 is_stmt 0 view .LVU105
 504 007c 0122     		movs	r2, #1
 505 007e 0B49     		ldr	r1, .L24+24
 506 0080 4FF4FA60 		mov	r0, #2000
 507 0084 FFF7FEFF 		bl	SoftTimer_Start
 508              	.LVL43:
 509              	.L22:
ARM GAS  /tmp/ccwRNUuG.s 			page 19


 510              		.loc 3 57 12 view .LVU106
 511              	.LBE15:
 512              	.LBE14:
 128:Core/Src/main.c ****   {
 513              		.loc 1 128 3 is_stmt 1 discriminator 1 view .LVU107
 131:Core/Src/main.c ****     /* USER CODE END WHILE */
 514              		.loc 1 131 5 discriminator 1 view .LVU108
 515 0088 40F6B830 		movw	r0, #3000
 516 008c FFF7FEFF 		bl	HAL_Delay
 517              	.LVL44:
 128:Core/Src/main.c ****   {
 518              		.loc 1 128 9 discriminator 1 view .LVU109
 519 0090 FAE7     		b	.L22
 520              	.L25:
 521 0092 00BF     		.align	2
 522              	.L24:
 523 0094 00000000 		.word	.LC5
 524 0098 14000000 		.word	.LC6
 525 009c 00000140 		.word	1073807360
 526 00a0 00000000 		.word	htim6
 527 00a4 30000000 		.word	.LC7
 528 00a8 00000000 		.word	dht22_data_read_callback
 529 00ac 00000000 		.word	ADXL345_data_read_call_back
 530              		.cfi_endproc
 531              	.LFE67:
 533              		.text
 534              	.Letext0:
 535              		.file 4 "/opt/gcc-arm-none-eabi-9-2020-q2-update/arm-none-eabi/include/machine/_default_types.h"
 536              		.file 5 "/opt/gcc-arm-none-eabi-9-2020-q2-update/arm-none-eabi/include/sys/_stdint.h"
 537              		.file 6 "Drivers/CMSIS/Include/core_cm3.h"
 538              		.file 7 "Drivers/CMSIS/Device/ST/STM32F1xx/Include/system_stm32f1xx.h"
 539              		.file 8 "Drivers/CMSIS/Device/ST/STM32F1xx/Include/stm32f103xe.h"
 540              		.file 9 "Drivers/STM32F1xx_HAL_Driver/Inc/stm32f1xx_hal_def.h"
 541              		.file 10 "Drivers/STM32F1xx_HAL_Driver/Inc/stm32f1xx_hal_rcc.h"
 542              		.file 11 "Drivers/STM32F1xx_HAL_Driver/Inc/stm32f1xx_hal_rcc_ex.h"
 543              		.file 12 "Drivers/STM32F1xx_HAL_Driver/Inc/stm32f1xx_hal_dma.h"
 544              		.file 13 "Drivers/STM32F1xx_HAL_Driver/Inc/stm32f1xx_hal_spi.h"
 545              		.file 14 "Drivers/STM32F1xx_HAL_Driver/Inc/stm32f1xx_hal_tim.h"
 546              		.file 15 "Drivers/STM32F1xx_HAL_Driver/Inc/stm32f1xx_ll_usb.h"
 547              		.file 16 "Drivers/STM32F1xx_HAL_Driver/Inc/stm32f1xx_hal_pcd.h"
 548              		.file 17 "Drivers/STM32F1xx_HAL_Driver/Inc/stm32f1xx_hal.h"
 549              		.file 18 "Core/Inc/spi.h"
 550              		.file 19 "Core/Inc/tim.h"
 551              		.file 20 "Core/Inc/usb.h"
 552              		.file 21 "/opt/gcc-arm-none-eabi-9-2020-q2-update/lib/gcc/arm-none-eabi/9.3.1/include/stddef.h"
 553              		.file 22 "/opt/gcc-arm-none-eabi-9-2020-q2-update/arm-none-eabi/include/sys/_types.h"
 554              		.file 23 "/opt/gcc-arm-none-eabi-9-2020-q2-update/arm-none-eabi/include/sys/reent.h"
 555              		.file 24 "/opt/gcc-arm-none-eabi-9-2020-q2-update/arm-none-eabi/include/sys/lock.h"
 556              		.file 25 "/opt/gcc-arm-none-eabi-9-2020-q2-update/arm-none-eabi/include/stdlib.h"
 557              		.file 26 "sensor_device/data_collect.h"
 558              		.file 27 "ARM_SEGGER_RTT/SEGGER_RTT.h"
 559              		.file 28 "sensor_device/ADXL345.h"
 560              		.file 29 "sensor_device/DHT22.h"
 561              		.file 30 "Core/Inc/gpio.h"
 562              		.file 31 "diff_signal/diff_signal.h"
 563              		.file 32 "sensor_device/eeprom.h"
ARM GAS  /tmp/ccwRNUuG.s 			page 20

