ARM GAS  /tmp/ccuAd2Lh.s 			page 1


   1              		.cpu cortex-m3
   2              		.eabi_attribute 20, 1
   3              		.eabi_attribute 21, 1
   4              		.eabi_attribute 23, 3
   5              		.eabi_attribute 24, 1
   6              		.eabi_attribute 25, 1
   7              		.eabi_attribute 26, 1
   8              		.eabi_attribute 30, 1
   9              		.eabi_attribute 34, 1
  10              		.eabi_attribute 18, 4
  11              		.file	"rs485_port.c"
  12              		.text
  13              	.Ltext0:
  14              		.cfi_sections	.debug_frame
  15              		.section	.text.RS485_Port_SetRxMode,"ax",%progbits
  16              		.align	1
  17              		.arch armv7-m
  18              		.syntax unified
  19              		.thumb
  20              		.thumb_func
  21              		.fpu softvfp
  23              	RS485_Port_SetRxMode:
  24              	.LFB66:
  25              		.file 1 "rs_485_port/rs485_port.c"
   1:rs_485_port/rs485_port.c **** #include "rs485_port.h"
   2:rs_485_port/rs485_port.c **** #include "ring_fifo.h"
   3:rs_485_port/rs485_port.c **** #include "SEGGER_RTT.h"
   4:rs_485_port/rs485_port.c **** extern UART_HandleTypeDef BRIDGE_RS485_HUART;
   5:rs_485_port/rs485_port.c **** 
   6:rs_485_port/rs485_port.c **** static RingFifo_t s_rs485_rx_fifo;
   7:rs_485_port/rs485_port.c **** static uint8_t s_rs485_rx_fifo_mem[BRIDGE_RS485_RX_FIFO_SIZE];
   8:rs_485_port/rs485_port.c **** static uint8_t s_rx_byte;
   9:rs_485_port/rs485_port.c **** 
  10:rs_485_port/rs485_port.c **** static void RS485_Port_SetTxMode(void)
  11:rs_485_port/rs485_port.c **** {
  12:rs_485_port/rs485_port.c **** #if BRIDGE_RS485_DE_ACTIVE_HIGH
  13:rs_485_port/rs485_port.c ****     HAL_GPIO_WritePin(BRIDGE_RS485_DE_GPIO_Port, BRIDGE_RS485_DE_Pin, GPIO_PIN_SET);
  14:rs_485_port/rs485_port.c **** #else
  15:rs_485_port/rs485_port.c ****     HAL_GPIO_WritePin(BRIDGE_RS485_DE_GPIO_Port, BRIDGE_RS485_DE_Pin, GPIO_PIN_RESET);
  16:rs_485_port/rs485_port.c **** #endif
  17:rs_485_port/rs485_port.c **** }
  18:rs_485_port/rs485_port.c **** 
  19:rs_485_port/rs485_port.c **** static void RS485_Port_SetRxMode(void)
  20:rs_485_port/rs485_port.c **** {
  26              		.loc 1 20 1 view -0
  27              		.cfi_startproc
  28              		@ args = 0, pretend = 0, frame = 0
  29              		@ frame_needed = 0, uses_anonymous_args = 0
  30 0000 08B5     		push	{r3, lr}
  31              	.LCFI0:
  32              		.cfi_def_cfa_offset 8
  33              		.cfi_offset 3, -8
  34              		.cfi_offset 14, -4
  21:rs_485_port/rs485_port.c **** #if BRIDGE_RS485_DE_ACTIVE_HIGH
  22:rs_485_port/rs485_port.c ****     HAL_GPIO_WritePin(BRIDGE_RS485_DE_GPIO_Port, BRIDGE_RS485_DE_Pin, GPIO_PIN_RESET);
  35              		.loc 1 22 5 view .LVU1
  36 0002 0022     		movs	r2, #0
ARM GAS  /tmp/ccuAd2Lh.s 			page 2


  37 0004 4FF48071 		mov	r1, #256
  38 0008 0148     		ldr	r0, .L3
  39 000a FFF7FEFF 		bl	HAL_GPIO_WritePin
  40              	.LVL0:
  23:rs_485_port/rs485_port.c **** #else
  24:rs_485_port/rs485_port.c ****     HAL_GPIO_WritePin(BRIDGE_RS485_DE_GPIO_Port, BRIDGE_RS485_DE_Pin, GPIO_PIN_SET);
  25:rs_485_port/rs485_port.c **** #endif
  26:rs_485_port/rs485_port.c **** }
  41              		.loc 1 26 1 is_stmt 0 view .LVU2
  42 000e 08BD     		pop	{r3, pc}
  43              	.L4:
  44              		.align	2
  45              	.L3:
  46 0010 000C0140 		.word	1073810432
  47              		.cfi_endproc
  48              	.LFE66:
  50              		.section	.text.RS485_Port_SetTxMode,"ax",%progbits
  51              		.align	1
  52              		.syntax unified
  53              		.thumb
  54              		.thumb_func
  55              		.fpu softvfp
  57              	RS485_Port_SetTxMode:
  58              	.LFB65:
  11:rs_485_port/rs485_port.c **** #if BRIDGE_RS485_DE_ACTIVE_HIGH
  59              		.loc 1 11 1 is_stmt 1 view -0
  60              		.cfi_startproc
  61              		@ args = 0, pretend = 0, frame = 0
  62              		@ frame_needed = 0, uses_anonymous_args = 0
  63 0000 08B5     		push	{r3, lr}
  64              	.LCFI1:
  65              		.cfi_def_cfa_offset 8
  66              		.cfi_offset 3, -8
  67              		.cfi_offset 14, -4
  13:rs_485_port/rs485_port.c **** #else
  68              		.loc 1 13 5 view .LVU4
  69 0002 0122     		movs	r2, #1
  70 0004 4FF48071 		mov	r1, #256
  71 0008 0148     		ldr	r0, .L7
  72 000a FFF7FEFF 		bl	HAL_GPIO_WritePin
  73              	.LVL1:
  17:rs_485_port/rs485_port.c **** 
  74              		.loc 1 17 1 is_stmt 0 view .LVU5
  75 000e 08BD     		pop	{r3, pc}
  76              	.L8:
  77              		.align	2
  78              	.L7:
  79 0010 000C0140 		.word	1073810432
  80              		.cfi_endproc
  81              	.LFE65:
  83              		.section	.text.RS485_Port_Init,"ax",%progbits
  84              		.align	1
  85              		.global	RS485_Port_Init
  86              		.syntax unified
  87              		.thumb
  88              		.thumb_func
  89              		.fpu softvfp
ARM GAS  /tmp/ccuAd2Lh.s 			page 3


  91              	RS485_Port_Init:
  92              	.LFB67:
  27:rs_485_port/rs485_port.c **** 
  28:rs_485_port/rs485_port.c **** void RS485_Port_Init(void)
  29:rs_485_port/rs485_port.c **** {
  93              		.loc 1 29 1 is_stmt 1 view -0
  94              		.cfi_startproc
  95              		@ args = 0, pretend = 0, frame = 0
  96              		@ frame_needed = 0, uses_anonymous_args = 0
  97 0000 08B5     		push	{r3, lr}
  98              	.LCFI2:
  99              		.cfi_def_cfa_offset 8
 100              		.cfi_offset 3, -8
 101              		.cfi_offset 14, -4
  30:rs_485_port/rs485_port.c ****     RingFifo_Init(&s_rs485_rx_fifo, s_rs485_rx_fifo_mem, sizeof(s_rs485_rx_fifo_mem));
 102              		.loc 1 30 5 view .LVU7
 103 0002 4FF48072 		mov	r2, #256
 104 0006 0349     		ldr	r1, .L11
 105 0008 0348     		ldr	r0, .L11+4
 106 000a FFF7FEFF 		bl	RingFifo_Init
 107              	.LVL2:
  31:rs_485_port/rs485_port.c ****     RS485_Port_SetRxMode();
 108              		.loc 1 31 5 view .LVU8
 109 000e FFF7FEFF 		bl	RS485_Port_SetRxMode
 110              	.LVL3:
  32:rs_485_port/rs485_port.c **** }
 111              		.loc 1 32 1 is_stmt 0 view .LVU9
 112 0012 08BD     		pop	{r3, pc}
 113              	.L12:
 114              		.align	2
 115              	.L11:
 116 0014 00000000 		.word	.LANCHOR0
 117 0018 00000000 		.word	.LANCHOR1
 118              		.cfi_endproc
 119              	.LFE67:
 121              		.section	.rodata.RS485_Port_StartRxIt.str1.4,"aMS",%progbits,1
 122              		.align	2
 123              	.LC0:
 124 0000 3F3F3F3F 		.ascii	"?????\012\000"
 124      3F0A00
 125              		.section	.text.RS485_Port_StartRxIt,"ax",%progbits
 126              		.align	1
 127              		.global	RS485_Port_StartRxIt
 128              		.syntax unified
 129              		.thumb
 130              		.thumb_func
 131              		.fpu softvfp
 133              	RS485_Port_StartRxIt:
 134              	.LFB68:
  33:rs_485_port/rs485_port.c **** 
  34:rs_485_port/rs485_port.c **** void RS485_Port_StartRxIt(void)
  35:rs_485_port/rs485_port.c **** {
 135              		.loc 1 35 1 is_stmt 1 view -0
 136              		.cfi_startproc
 137              		@ args = 0, pretend = 0, frame = 0
 138              		@ frame_needed = 0, uses_anonymous_args = 0
 139 0000 08B5     		push	{r3, lr}
ARM GAS  /tmp/ccuAd2Lh.s 			page 4


 140              	.LCFI3:
 141              		.cfi_def_cfa_offset 8
 142              		.cfi_offset 3, -8
 143              		.cfi_offset 14, -4
  36:rs_485_port/rs485_port.c ****     uint32_t error_code = 0x00;
 144              		.loc 1 36 5 view .LVU11
 145              	.LVL4:
  37:rs_485_port/rs485_port.c ****     error_code = HAL_UART_Receive_IT(&BRIDGE_RS485_HUART, &s_rx_byte, 1u);
 146              		.loc 1 37 5 view .LVU12
 147              		.loc 1 37 18 is_stmt 0 view .LVU13
 148 0002 0122     		movs	r2, #1
 149 0004 0549     		ldr	r1, .L17
 150 0006 0648     		ldr	r0, .L17+4
 151 0008 FFF7FEFF 		bl	HAL_UART_Receive_IT
 152              	.LVL5:
  38:rs_485_port/rs485_port.c ****     if(error_code != HAL_OK)
 153              		.loc 1 38 5 is_stmt 1 view .LVU14
 154              		.loc 1 38 7 is_stmt 0 view .LVU15
 155 000c 00B9     		cbnz	r0, .L16
 156              	.LVL6:
 157              	.L13:
  39:rs_485_port/rs485_port.c ****     {
  40:rs_485_port/rs485_port.c ****     myprintf("?????\n");
  41:rs_485_port/rs485_port.c **** 
  42:rs_485_port/rs485_port.c ****     }
  43:rs_485_port/rs485_port.c **** }
 158              		.loc 1 43 1 view .LVU16
 159 000e 08BD     		pop	{r3, pc}
 160              	.LVL7:
 161              	.L16:
  40:rs_485_port/rs485_port.c **** 
 162              		.loc 1 40 5 is_stmt 1 view .LVU17
 163 0010 0449     		ldr	r1, .L17+8
 164 0012 0020     		movs	r0, #0
 165              	.LVL8:
  40:rs_485_port/rs485_port.c **** 
 166              		.loc 1 40 5 is_stmt 0 view .LVU18
 167 0014 FFF7FEFF 		bl	SEGGER_RTT_printf
 168              	.LVL9:
 169              		.loc 1 43 1 view .LVU19
 170 0018 F9E7     		b	.L13
 171              	.L18:
 172 001a 00BF     		.align	2
 173              	.L17:
 174 001c 00000000 		.word	.LANCHOR2
 175 0020 00000000 		.word	huart3
 176 0024 00000000 		.word	.LC0
 177              		.cfi_endproc
 178              	.LFE68:
 180              		.section	.text.RS485_Port_RxCpltCallback,"ax",%progbits
 181              		.align	1
 182              		.global	RS485_Port_RxCpltCallback
 183              		.syntax unified
 184              		.thumb
 185              		.thumb_func
 186              		.fpu softvfp
 188              	RS485_Port_RxCpltCallback:
ARM GAS  /tmp/ccuAd2Lh.s 			page 5


 189              	.LVL10:
 190              	.LFB69:
  44:rs_485_port/rs485_port.c **** 
  45:rs_485_port/rs485_port.c **** void RS485_Port_RxCpltCallback(UART_HandleTypeDef *huart)
  46:rs_485_port/rs485_port.c **** {
 191              		.loc 1 46 1 is_stmt 1 view -0
 192              		.cfi_startproc
 193              		@ args = 0, pretend = 0, frame = 0
 194              		@ frame_needed = 0, uses_anonymous_args = 0
  47:rs_485_port/rs485_port.c ****     if (huart != &BRIDGE_RS485_HUART)
 195              		.loc 1 47 5 view .LVU21
 196              		.loc 1 47 8 is_stmt 0 view .LVU22
 197 0000 074B     		ldr	r3, .L26
 198 0002 8342     		cmp	r3, r0
 199 0004 00D0     		beq	.L25
 200 0006 7047     		bx	lr
 201              	.L25:
  46:rs_485_port/rs485_port.c ****     if (huart != &BRIDGE_RS485_HUART)
 202              		.loc 1 46 1 view .LVU23
 203 0008 10B5     		push	{r4, lr}
 204              	.LCFI4:
 205              		.cfi_def_cfa_offset 8
 206              		.cfi_offset 4, -8
 207              		.cfi_offset 14, -4
  48:rs_485_port/rs485_port.c ****     {
  49:rs_485_port/rs485_port.c ****         return;
  50:rs_485_port/rs485_port.c ****     }
  51:rs_485_port/rs485_port.c **** 
  52:rs_485_port/rs485_port.c ****     (void)RingFifo_PushByte(&s_rs485_rx_fifo, s_rx_byte);
 208              		.loc 1 52 5 is_stmt 1 view .LVU24
 209 000a 064C     		ldr	r4, .L26+4
 210              		.loc 1 52 11 is_stmt 0 view .LVU25
 211 000c 2178     		ldrb	r1, [r4]	@ zero_extendqisi2
 212 000e 0648     		ldr	r0, .L26+8
 213              	.LVL11:
 214              		.loc 1 52 11 view .LVU26
 215 0010 FFF7FEFF 		bl	RingFifo_PushByte
 216              	.LVL12:
  53:rs_485_port/rs485_port.c ****     (void)HAL_UART_Receive_IT(&BRIDGE_RS485_HUART, &s_rx_byte, 1u);
 217              		.loc 1 53 5 is_stmt 1 view .LVU27
 218              		.loc 1 53 11 is_stmt 0 view .LVU28
 219 0014 0122     		movs	r2, #1
 220 0016 2146     		mov	r1, r4
 221 0018 0148     		ldr	r0, .L26
 222 001a FFF7FEFF 		bl	HAL_UART_Receive_IT
 223              	.LVL13:
  54:rs_485_port/rs485_port.c **** }
 224              		.loc 1 54 1 view .LVU29
 225 001e 10BD     		pop	{r4, pc}
 226              	.L27:
 227              		.align	2
 228              	.L26:
 229 0020 00000000 		.word	huart3
 230 0024 00000000 		.word	.LANCHOR2
 231 0028 00000000 		.word	.LANCHOR1
 232              		.cfi_endproc
 233              	.LFE69:
ARM GAS  /tmp/ccuAd2Lh.s 			page 6


 235              		.section	.text.RS485_Port_ErrorCallback,"ax",%progbits
 236              		.align	1
 237              		.global	RS485_Port_ErrorCallback
 238              		.syntax unified
 239              		.thumb
 240              		.thumb_func
 241              		.fpu softvfp
 243              	RS485_Port_ErrorCallback:
 244              	.LVL14:
 245              	.LFB70:
  55:rs_485_port/rs485_port.c **** 
  56:rs_485_port/rs485_port.c **** void RS485_Port_ErrorCallback(UART_HandleTypeDef *huart)
  57:rs_485_port/rs485_port.c **** {
 246              		.loc 1 57 1 is_stmt 1 view -0
 247              		.cfi_startproc
 248              		@ args = 0, pretend = 0, frame = 16
 249              		@ frame_needed = 0, uses_anonymous_args = 0
  58:rs_485_port/rs485_port.c ****     if (huart != &BRIDGE_RS485_HUART)
 250              		.loc 1 58 5 view .LVU31
 251              		.loc 1 58 8 is_stmt 0 view .LVU32
 252 0000 154B     		ldr	r3, .L35
 253 0002 8342     		cmp	r3, r0
 254 0004 00D0     		beq	.L34
 255 0006 7047     		bx	lr
 256              	.L34:
  57:rs_485_port/rs485_port.c ****     if (huart != &BRIDGE_RS485_HUART)
 257              		.loc 1 57 1 view .LVU33
 258 0008 10B5     		push	{r4, lr}
 259              	.LCFI5:
 260              		.cfi_def_cfa_offset 8
 261              		.cfi_offset 4, -8
 262              		.cfi_offset 14, -4
 263 000a 84B0     		sub	sp, sp, #16
 264              	.LCFI6:
 265              		.cfi_def_cfa_offset 24
  59:rs_485_port/rs485_port.c ****     {
  60:rs_485_port/rs485_port.c ****         return;
  61:rs_485_port/rs485_port.c ****     }
  62:rs_485_port/rs485_port.c **** 
  63:rs_485_port/rs485_port.c ****     __HAL_UART_CLEAR_PEFLAG(&BRIDGE_RS485_HUART);
 266              		.loc 1 63 5 is_stmt 1 view .LVU34
 267              	.LBB2:
 268              		.loc 1 63 5 view .LVU35
 269 000c 0022     		movs	r2, #0
 270 000e 0092     		str	r2, [sp]
 271              		.loc 1 63 5 view .LVU36
 272 0010 1C46     		mov	r4, r3
 273 0012 1B68     		ldr	r3, [r3]
 274 0014 1968     		ldr	r1, [r3]
 275 0016 0091     		str	r1, [sp]
 276              		.loc 1 63 5 view .LVU37
 277 0018 5968     		ldr	r1, [r3, #4]
 278 001a 0091     		str	r1, [sp]
 279              		.loc 1 63 5 view .LVU38
 280 001c 0099     		ldr	r1, [sp]
 281              	.LBE2:
 282              		.loc 1 63 5 view .LVU39
ARM GAS  /tmp/ccuAd2Lh.s 			page 7


  64:rs_485_port/rs485_port.c ****     __HAL_UART_CLEAR_FEFLAG(&BRIDGE_RS485_HUART);
 283              		.loc 1 64 5 view .LVU40
 284              	.LBB3:
 285              		.loc 1 64 5 view .LVU41
 286 001e 0192     		str	r2, [sp, #4]
 287              		.loc 1 64 5 view .LVU42
 288 0020 1968     		ldr	r1, [r3]
 289 0022 0191     		str	r1, [sp, #4]
 290              		.loc 1 64 5 view .LVU43
 291 0024 5968     		ldr	r1, [r3, #4]
 292 0026 0191     		str	r1, [sp, #4]
 293              		.loc 1 64 5 view .LVU44
 294 0028 0199     		ldr	r1, [sp, #4]
 295              	.LBE3:
 296              		.loc 1 64 5 view .LVU45
  65:rs_485_port/rs485_port.c ****     __HAL_UART_CLEAR_NEFLAG(&BRIDGE_RS485_HUART);
 297              		.loc 1 65 5 view .LVU46
 298              	.LBB4:
 299              		.loc 1 65 5 view .LVU47
 300 002a 0292     		str	r2, [sp, #8]
 301              		.loc 1 65 5 view .LVU48
 302 002c 1968     		ldr	r1, [r3]
 303 002e 0291     		str	r1, [sp, #8]
 304              		.loc 1 65 5 view .LVU49
 305 0030 5968     		ldr	r1, [r3, #4]
 306 0032 0291     		str	r1, [sp, #8]
 307              		.loc 1 65 5 view .LVU50
 308 0034 0299     		ldr	r1, [sp, #8]
 309              	.LBE4:
 310              		.loc 1 65 5 view .LVU51
  66:rs_485_port/rs485_port.c ****     __HAL_UART_CLEAR_OREFLAG(&BRIDGE_RS485_HUART);
 311              		.loc 1 66 5 view .LVU52
 312              	.LBB5:
 313              		.loc 1 66 5 view .LVU53
 314 0036 0392     		str	r2, [sp, #12]
 315              		.loc 1 66 5 view .LVU54
 316 0038 1A68     		ldr	r2, [r3]
 317 003a 0392     		str	r2, [sp, #12]
 318              		.loc 1 66 5 view .LVU55
 319 003c 5B68     		ldr	r3, [r3, #4]
 320 003e 0393     		str	r3, [sp, #12]
 321              		.loc 1 66 5 view .LVU56
 322 0040 039B     		ldr	r3, [sp, #12]
 323              	.LBE5:
 324              		.loc 1 66 5 view .LVU57
  67:rs_485_port/rs485_port.c ****     (void)HAL_UART_AbortReceive(&BRIDGE_RS485_HUART);
 325              		.loc 1 67 5 view .LVU58
 326              		.loc 1 67 11 is_stmt 0 view .LVU59
 327 0042 2046     		mov	r0, r4
 328              	.LVL15:
 329              		.loc 1 67 11 view .LVU60
 330 0044 FFF7FEFF 		bl	HAL_UART_AbortReceive
 331              	.LVL16:
  68:rs_485_port/rs485_port.c ****     (void)HAL_UART_Receive_IT(&BRIDGE_RS485_HUART, &s_rx_byte, 1u);
 332              		.loc 1 68 5 is_stmt 1 view .LVU61
 333              		.loc 1 68 11 is_stmt 0 view .LVU62
 334 0048 0122     		movs	r2, #1
ARM GAS  /tmp/ccuAd2Lh.s 			page 8


 335 004a 0449     		ldr	r1, .L35+4
 336 004c 2046     		mov	r0, r4
 337 004e FFF7FEFF 		bl	HAL_UART_Receive_IT
 338              	.LVL17:
  69:rs_485_port/rs485_port.c **** }
 339              		.loc 1 69 1 view .LVU63
 340 0052 04B0     		add	sp, sp, #16
 341              	.LCFI7:
 342              		.cfi_def_cfa_offset 8
 343              		@ sp needed
 344 0054 10BD     		pop	{r4, pc}
 345              	.L36:
 346 0056 00BF     		.align	2
 347              	.L35:
 348 0058 00000000 		.word	huart3
 349 005c 00000000 		.word	.LANCHOR2
 350              		.cfi_endproc
 351              	.LFE70:
 353              		.section	.rodata.RS485_Port_ReadByte.str1.4,"aMS",%progbits,1
 354              		.align	2
 355              	.LC1:
 356 0000 62797465 		.ascii	"byte is null\012\000"
 356      20697320 
 356      6E756C6C 
 356      0A00
 357              		.section	.text.RS485_Port_ReadByte,"ax",%progbits
 358              		.align	1
 359              		.global	RS485_Port_ReadByte
 360              		.syntax unified
 361              		.thumb
 362              		.thumb_func
 363              		.fpu softvfp
 365              	RS485_Port_ReadByte:
 366              	.LVL18:
 367              	.LFB71:
  70:rs_485_port/rs485_port.c **** 
  71:rs_485_port/rs485_port.c **** bool RS485_Port_ReadByte(uint8_t *byte)
  72:rs_485_port/rs485_port.c **** {
 368              		.loc 1 72 1 is_stmt 1 view -0
 369              		.cfi_startproc
 370              		@ args = 0, pretend = 0, frame = 0
 371              		@ frame_needed = 0, uses_anonymous_args = 0
 372              		.loc 1 72 1 is_stmt 0 view .LVU65
 373 0000 08B5     		push	{r3, lr}
 374              	.LCFI8:
 375              		.cfi_def_cfa_offset 8
 376              		.cfi_offset 3, -8
 377              		.cfi_offset 14, -4
  73:rs_485_port/rs485_port.c ****      bool ok;
 378              		.loc 1 73 6 is_stmt 1 view .LVU66
  74:rs_485_port/rs485_port.c **** 
  75:rs_485_port/rs485_port.c ****     if (byte == NULL)
 379              		.loc 1 75 5 view .LVU67
 380              		.loc 1 75 8 is_stmt 0 view .LVU68
 381 0002 20B1     		cbz	r0, .L41
 382 0004 0146     		mov	r1, r0
  76:rs_485_port/rs485_port.c ****     {
ARM GAS  /tmp/ccuAd2Lh.s 			page 9


  77:rs_485_port/rs485_port.c ****         myprintf("byte is null\n");
  78:rs_485_port/rs485_port.c ****         return false;
  79:rs_485_port/rs485_port.c ****     }
  80:rs_485_port/rs485_port.c **** 
  81:rs_485_port/rs485_port.c ****     ok = RingFifo_PopByte(&s_rs485_rx_fifo, byte);
 383              		.loc 1 81 5 is_stmt 1 view .LVU69
 384              		.loc 1 81 10 is_stmt 0 view .LVU70
 385 0006 0448     		ldr	r0, .L42
 386              	.LVL19:
 387              		.loc 1 81 10 view .LVU71
 388 0008 FFF7FEFF 		bl	RingFifo_PopByte
 389              	.LVL20:
  82:rs_485_port/rs485_port.c **** 
  83:rs_485_port/rs485_port.c ****     return ok;
 390              		.loc 1 83 5 is_stmt 1 view .LVU72
 391              	.L39:
  84:rs_485_port/rs485_port.c **** }
 392              		.loc 1 84 1 is_stmt 0 view .LVU73
 393 000c 08BD     		pop	{r3, pc}
 394              	.LVL21:
 395              	.L41:
  77:rs_485_port/rs485_port.c ****         return false;
 396              		.loc 1 77 9 is_stmt 1 view .LVU74
 397 000e 0349     		ldr	r1, .L42+4
 398 0010 FFF7FEFF 		bl	SEGGER_RTT_printf
 399              	.LVL22:
  78:rs_485_port/rs485_port.c ****     }
 400              		.loc 1 78 9 view .LVU75
  78:rs_485_port/rs485_port.c ****     }
 401              		.loc 1 78 16 is_stmt 0 view .LVU76
 402 0014 0020     		movs	r0, #0
 403 0016 F9E7     		b	.L39
 404              	.L43:
 405              		.align	2
 406              	.L42:
 407 0018 00000000 		.word	.LANCHOR1
 408 001c 00000000 		.word	.LC1
 409              		.cfi_endproc
 410              	.LFE71:
 412              		.section	.rodata.RS485_Port_SendBytes.str1.4,"aMS",%progbits,1
 413              		.align	2
 414              	.LC2:
 415 0000 73656E64 		.ascii	"send_error%d\012\000"
 415      5F657272 
 415      6F722564 
 415      0A00
 416              		.section	.text.RS485_Port_SendBytes,"ax",%progbits
 417              		.align	1
 418              		.global	RS485_Port_SendBytes
 419              		.syntax unified
 420              		.thumb
 421              		.thumb_func
 422              		.fpu softvfp
 424              	RS485_Port_SendBytes:
 425              	.LVL23:
 426              	.LFB72:
  85:rs_485_port/rs485_port.c **** 
ARM GAS  /tmp/ccuAd2Lh.s 			page 10


  86:rs_485_port/rs485_port.c **** bool RS485_Port_SendBytes(const uint8_t *data, uint16_t len)
  87:rs_485_port/rs485_port.c **** {
 427              		.loc 1 87 1 is_stmt 1 view -0
 428              		.cfi_startproc
 429              		@ args = 0, pretend = 0, frame = 0
 430              		@ frame_needed = 0, uses_anonymous_args = 0
  88:rs_485_port/rs485_port.c ****     if ((data == NULL) || (len == 0u))
 431              		.loc 1 88 5 view .LVU78
 432              		.loc 1 88 8 is_stmt 0 view .LVU79
 433 0000 10B3     		cbz	r0, .L47
  87:rs_485_port/rs485_port.c ****     if ((data == NULL) || (len == 0u))
 434              		.loc 1 87 1 discriminator 1 view .LVU80
 435 0002 38B5     		push	{r3, r4, r5, lr}
 436              	.LCFI9:
 437              		.cfi_def_cfa_offset 16
 438              		.cfi_offset 3, -16
 439              		.cfi_offset 4, -12
 440              		.cfi_offset 5, -8
 441              		.cfi_offset 14, -4
 442 0004 0C46     		mov	r4, r1
 443 0006 0546     		mov	r5, r0
 444              		.loc 1 88 24 discriminator 1 view .LVU81
 445 0008 09B9     		cbnz	r1, .L53
  89:rs_485_port/rs485_port.c ****     {
  90:rs_485_port/rs485_port.c ****         return false;
 446              		.loc 1 90 16 view .LVU82
 447 000a 0020     		movs	r0, #0
 448              	.LVL24:
 449              	.L45:
  91:rs_485_port/rs485_port.c ****     }
  92:rs_485_port/rs485_port.c **** 
  93:rs_485_port/rs485_port.c ****     RS485_Port_SetTxMode();
  94:rs_485_port/rs485_port.c ****     uint32_t error_code  = 0x00;
  95:rs_485_port/rs485_port.c ****      error_code =   HAL_UART_Transmit(&BRIDGE_RS485_HUART, (uint8_t *)data, len, 1000);
  96:rs_485_port/rs485_port.c ****     if(error_code!= HAL_OK)
  97:rs_485_port/rs485_port.c ****     {
  98:rs_485_port/rs485_port.c ****         myprintf("send_error%d\n",error_code);
  99:rs_485_port/rs485_port.c ****         RS485_Port_SetRxMode();
 100:rs_485_port/rs485_port.c ****         return false;
 101:rs_485_port/rs485_port.c **** 
 102:rs_485_port/rs485_port.c ****     }
 103:rs_485_port/rs485_port.c ****     
 104:rs_485_port/rs485_port.c **** 
 105:rs_485_port/rs485_port.c ****     while (__HAL_UART_GET_FLAG(&BRIDGE_RS485_HUART, UART_FLAG_TC) == RESET)
 106:rs_485_port/rs485_port.c ****     {
 107:rs_485_port/rs485_port.c ****     }
 108:rs_485_port/rs485_port.c **** 
 109:rs_485_port/rs485_port.c ****     RS485_Port_SetRxMode();
 110:rs_485_port/rs485_port.c ****     return true;
 111:rs_485_port/rs485_port.c **** }
 450              		.loc 1 111 1 view .LVU83
 451 000c 38BD     		pop	{r3, r4, r5, pc}
 452              	.LVL25:
 453              	.L53:
  93:rs_485_port/rs485_port.c ****     uint32_t error_code  = 0x00;
 454              		.loc 1 93 5 is_stmt 1 view .LVU84
 455 000e FFF7FEFF 		bl	RS485_Port_SetTxMode
ARM GAS  /tmp/ccuAd2Lh.s 			page 11


 456              	.LVL26:
  94:rs_485_port/rs485_port.c ****      error_code =   HAL_UART_Transmit(&BRIDGE_RS485_HUART, (uint8_t *)data, len, 1000);
 457              		.loc 1 94 5 view .LVU85
  95:rs_485_port/rs485_port.c ****     if(error_code!= HAL_OK)
 458              		.loc 1 95 6 view .LVU86
  95:rs_485_port/rs485_port.c ****     if(error_code!= HAL_OK)
 459              		.loc 1 95 21 is_stmt 0 view .LVU87
 460 0012 4FF47A73 		mov	r3, #1000
 461 0016 2246     		mov	r2, r4
 462 0018 2946     		mov	r1, r5
 463 001a 0C48     		ldr	r0, .L55
 464 001c FFF7FEFF 		bl	HAL_UART_Transmit
 465              	.LVL27:
  96:rs_485_port/rs485_port.c ****     {
 466              		.loc 1 96 5 is_stmt 1 view .LVU88
  96:rs_485_port/rs485_port.c ****     {
 467              		.loc 1 96 7 is_stmt 0 view .LVU89
 468 0020 0246     		mov	r2, r0
 469 0022 48B9     		cbnz	r0, .L54
 470              	.L46:
 107:rs_485_port/rs485_port.c **** 
 471              		.loc 1 107 5 is_stmt 1 discriminator 1 view .LVU90
 105:rs_485_port/rs485_port.c ****     {
 472              		.loc 1 105 11 discriminator 1 view .LVU91
 105:rs_485_port/rs485_port.c ****     {
 473              		.loc 1 105 12 is_stmt 0 discriminator 1 view .LVU92
 474 0024 094B     		ldr	r3, .L55
 475 0026 1B68     		ldr	r3, [r3]
 476 0028 1B68     		ldr	r3, [r3]
 105:rs_485_port/rs485_port.c ****     {
 477              		.loc 1 105 11 discriminator 1 view .LVU93
 478 002a 13F0400F 		tst	r3, #64
 479 002e F9D0     		beq	.L46
 109:rs_485_port/rs485_port.c ****     return true;
 480              		.loc 1 109 5 is_stmt 1 view .LVU94
 481 0030 FFF7FEFF 		bl	RS485_Port_SetRxMode
 482              	.LVL28:
 110:rs_485_port/rs485_port.c **** }
 483              		.loc 1 110 5 view .LVU95
 110:rs_485_port/rs485_port.c **** }
 484              		.loc 1 110 12 is_stmt 0 view .LVU96
 485 0034 0120     		movs	r0, #1
 486 0036 E9E7     		b	.L45
 487              	.LVL29:
 488              	.L54:
  98:rs_485_port/rs485_port.c ****         RS485_Port_SetRxMode();
 489              		.loc 1 98 9 is_stmt 1 view .LVU97
 490 0038 0549     		ldr	r1, .L55+4
 491 003a 0020     		movs	r0, #0
 492              	.LVL30:
  98:rs_485_port/rs485_port.c ****         RS485_Port_SetRxMode();
 493              		.loc 1 98 9 is_stmt 0 view .LVU98
 494 003c FFF7FEFF 		bl	SEGGER_RTT_printf
 495              	.LVL31:
  99:rs_485_port/rs485_port.c ****         return false;
 496              		.loc 1 99 9 is_stmt 1 view .LVU99
 497 0040 FFF7FEFF 		bl	RS485_Port_SetRxMode
ARM GAS  /tmp/ccuAd2Lh.s 			page 12


 498              	.LVL32:
 100:rs_485_port/rs485_port.c **** 
 499              		.loc 1 100 9 view .LVU100
 100:rs_485_port/rs485_port.c **** 
 500              		.loc 1 100 16 is_stmt 0 view .LVU101
 501 0044 0020     		movs	r0, #0
 502 0046 E1E7     		b	.L45
 503              	.LVL33:
 504              	.L47:
 505              	.LCFI10:
 506              		.cfi_def_cfa_offset 0
 507              		.cfi_restore 3
 508              		.cfi_restore 4
 509              		.cfi_restore 5
 510              		.cfi_restore 14
  90:rs_485_port/rs485_port.c ****     }
 511              		.loc 1 90 16 view .LVU102
 512 0048 0020     		movs	r0, #0
 513              	.LVL34:
 514              		.loc 1 111 1 view .LVU103
 515 004a 7047     		bx	lr
 516              	.L56:
 517              		.align	2
 518              	.L55:
 519 004c 00000000 		.word	huart3
 520 0050 00000000 		.word	.LC2
 521              		.cfi_endproc
 522              	.LFE72:
 524              		.section	.bss.s_rs485_rx_fifo,"aw",%nobits
 525              		.align	2
 526              		.set	.LANCHOR1,. + 0
 529              	s_rs485_rx_fifo:
 530 0000 00000000 		.space	12
 530      00000000 
 530      00000000 
 531              		.section	.bss.s_rs485_rx_fifo_mem,"aw",%nobits
 532              		.align	2
 533              		.set	.LANCHOR0,. + 0
 536              	s_rs485_rx_fifo_mem:
 537 0000 00000000 		.space	256
 537      00000000 
 537      00000000 
 537      00000000 
 537      00000000 
 538              		.section	.bss.s_rx_byte,"aw",%nobits
 539              		.set	.LANCHOR2,. + 0
 542              	s_rx_byte:
 543 0000 00       		.space	1
 544              		.text
 545              	.Letext0:
 546              		.file 2 "/opt/gcc-arm-none-eabi-9-2020-q2-update/arm-none-eabi/include/machine/_default_types.h"
 547              		.file 3 "/opt/gcc-arm-none-eabi-9-2020-q2-update/arm-none-eabi/include/sys/_stdint.h"
 548              		.file 4 "Drivers/CMSIS/Include/core_cm3.h"
 549              		.file 5 "Drivers/CMSIS/Device/ST/STM32F1xx/Include/system_stm32f1xx.h"
 550              		.file 6 "Drivers/CMSIS/Device/ST/STM32F1xx/Include/stm32f103xe.h"
 551              		.file 7 "Drivers/CMSIS/Device/ST/STM32F1xx/Include/stm32f1xx.h"
 552              		.file 8 "Drivers/STM32F1xx_HAL_Driver/Inc/stm32f1xx_hal_def.h"
ARM GAS  /tmp/ccuAd2Lh.s 			page 13


 553              		.file 9 "Drivers/STM32F1xx_HAL_Driver/Inc/stm32f1xx_hal_gpio.h"
 554              		.file 10 "Drivers/STM32F1xx_HAL_Driver/Inc/stm32f1xx_hal_dma.h"
 555              		.file 11 "Drivers/STM32F1xx_HAL_Driver/Inc/stm32f1xx_hal_uart.h"
 556              		.file 12 "Drivers/STM32F1xx_HAL_Driver/Inc/stm32f1xx_hal.h"
 557              		.file 13 "rs_485_port/ring_fifo.h"
 558              		.file 14 "ARM_SEGGER_RTT/SEGGER_RTT.h"
ARM GAS  /tmp/ccuAd2Lh.s 			page 14

