ARM GAS  /tmp/cciZyHjk.s 			page 1


   1              		.cpu cortex-m3
   2              		.eabi_attribute 20, 1
   3              		.eabi_attribute 21, 1
   4              		.eabi_attribute 23, 3
   5              		.eabi_attribute 24, 1
   6              		.eabi_attribute 25, 1
   7              		.eabi_attribute 26, 1
   8              		.eabi_attribute 30, 1
   9              		.eabi_attribute 34, 1
  10              		.eabi_attribute 18, 4
  11              		.file	"RTUmodbus_slave.c"
  12              		.text
  13              	.Ltext0:
  14              		.cfi_sections	.debug_frame
  15              		.section	.text.MODS_WriteRegValue,"ax",%progbits
  16              		.align	1
  17              		.arch armv7-m
  18              		.syntax unified
  19              		.thumb
  20              		.thumb_func
  21              		.fpu softvfp
  23              	MODS_WriteRegValue:
  24              	.LVL0:
  25              	.LFB13:
  26              		.file 1 "modbus/RTUmodbus_slave.c"
   1:modbus/RTUmodbus_slave.c **** /*
   2:modbus/RTUmodbus_slave.c **** ***************************************************************************************************
   3:modbus/RTUmodbus_slave.c **** *	ТеАтЮЌтљЇуД░ : MODSжђџС┐АТеАтЮЌ. С╗јуФЎТеАт╝Ј
   4:modbus/RTUmodbus_slave.c **** *	ТќЄС╗ХтљЇуД░ : modbus_slave.c
   5:modbus/RTUmodbus_slave.c **** *	уЅѕ    Тюг : V1.4
   6:modbus/RTUmodbus_slave.c **** *	У»┤    Тўј : тц┤ТќЄС╗Х
   7:modbus/RTUmodbus_slave.c **** ***************************************************************************************************
   8:modbus/RTUmodbus_slave.c **** */
   9:modbus/RTUmodbus_slave.c **** #include "stdio.h"
  10:modbus/RTUmodbus_slave.c **** #include "stdint.h"
  11:modbus/RTUmodbus_slave.c **** #include "string.h"
  12:modbus/RTUmodbus_slave.c **** #include "RTUmodbus_slave.h"
  13:modbus/RTUmodbus_slave.c **** #include "data_collect.h"
  14:modbus/RTUmodbus_slave.c **** static void MODS_SendWithCRC(uint8_t *_pBuf, uint8_t _ucLen);
  15:modbus/RTUmodbus_slave.c **** static void MODS_SendAckOk(void);
  16:modbus/RTUmodbus_slave.c **** static void MODS_SendAckErr(uint8_t _ucErrCode);
  17:modbus/RTUmodbus_slave.c **** 
  18:modbus/RTUmodbus_slave.c **** static void MODS_AnalyzeApp(void);
  19:modbus/RTUmodbus_slave.c **** 
  20:modbus/RTUmodbus_slave.c **** static void MODS_01H(void);
  21:modbus/RTUmodbus_slave.c **** static void MODS_02H(void);
  22:modbus/RTUmodbus_slave.c **** static void MODS_03H(void);
  23:modbus/RTUmodbus_slave.c **** static void MODS_04H(void);
  24:modbus/RTUmodbus_slave.c **** static void MODS_05H(void);
  25:modbus/RTUmodbus_slave.c **** static void MODS_06H(void);
  26:modbus/RTUmodbus_slave.c **** static void MODS_10H(void);
  27:modbus/RTUmodbus_slave.c **** 
  28:modbus/RTUmodbus_slave.c **** static uint8_t MODS_ReadRegValue(uint16_t reg_addr, uint8_t *reg_value);
  29:modbus/RTUmodbus_slave.c **** static uint8_t MODS_WriteRegValue(uint16_t reg_addr, uint16_t reg_value);
  30:modbus/RTUmodbus_slave.c **** 
  31:modbus/RTUmodbus_slave.c **** static uint8_t g_mods_timeout = 0;
  32:modbus/RTUmodbus_slave.c **** 
ARM GAS  /tmp/cciZyHjk.s 			page 2


  33:modbus/RTUmodbus_slave.c **** MODS_T g_tModS;
  34:modbus/RTUmodbus_slave.c **** /*
  35:modbus/RTUmodbus_slave.c **** ***************************************************************************************************
  36:modbus/RTUmodbus_slave.c **** *	тЄй ТЋ░ тљЇ: MODS_Poll
  37:modbus/RTUmodbus_slave.c **** *	тіЪУЃйУ»┤Тўј: УДБТъљТЋ░ТЇ«тїЁ. тюеСИ╗уеІт║ЈСИГУй«ТхЂУ░Ѓућесђѓ
  38:modbus/RTUmodbus_slave.c **** *	тйб    тЈѓ: ТЌа
  39:modbus/RTUmodbus_slave.c **** *	У┐ћ тЏъ тђ╝: ТЌа
  40:modbus/RTUmodbus_slave.c **** ***************************************************************************************************
  41:modbus/RTUmodbus_slave.c **** */
  42:modbus/RTUmodbus_slave.c **** void MODS_Poll(void)
  43:modbus/RTUmodbus_slave.c **** {
  44:modbus/RTUmodbus_slave.c **** 	uint16_t addr;
  45:modbus/RTUmodbus_slave.c **** 	uint16_t crc1;
  46:modbus/RTUmodbus_slave.c **** 
  47:modbus/RTUmodbus_slave.c **** 	/* УХЁУ┐Є3.5СИфтГЌугдТЌХжЌ┤тљјТЅДУАїMODH_RxTimeOut()тЄйТЋ░сђѓтЁет▒ђтЈўжЄЈ g_rtu_timeout = 1; жђџуЪ
  48:modbus/RTUmodbus_slave.c **** 	if (g_mods_timeout == 0)
  49:modbus/RTUmodbus_slave.c **** 	{
  50:modbus/RTUmodbus_slave.c **** 		return; /* Т▓АТюЅУХЁТЌХ№╝їу╗Ду╗ГТјЦТћХсђѓСИЇУдЂТИЁжЏХ g_tModS.RxCount */
  51:modbus/RTUmodbus_slave.c **** 	}
  52:modbus/RTUmodbus_slave.c **** 
  53:modbus/RTUmodbus_slave.c **** 	g_mods_timeout = 0; /* ТИЁТаЄт┐Ќ */
  54:modbus/RTUmodbus_slave.c **** 
  55:modbus/RTUmodbus_slave.c **** 	if (g_tModS.RxCount < 4) /* ТјЦТћХтѕ░уџёТЋ░ТЇ«т░ЈС║ј4СИфтГЌУіѓт░▒У«цСИ║жћЎУ»» */
  56:modbus/RTUmodbus_slave.c **** 	{
  57:modbus/RTUmodbus_slave.c **** 		goto err_ret;
  58:modbus/RTUmodbus_slave.c **** 	}
  59:modbus/RTUmodbus_slave.c **** 
  60:modbus/RTUmodbus_slave.c **** 	/* У«Ау«ЌCRCТаАжфїтњї */
  61:modbus/RTUmodbus_slave.c **** 	crc1 = CRC16_Modbus(g_tModS.RxBuf, g_tModS.RxCount);
  62:modbus/RTUmodbus_slave.c **** 	if (crc1 != 0)
  63:modbus/RTUmodbus_slave.c **** 	{
  64:modbus/RTUmodbus_slave.c **** 		goto err_ret;
  65:modbus/RTUmodbus_slave.c **** 	}
  66:modbus/RTUmodbus_slave.c **** 
  67:modbus/RTUmodbus_slave.c **** 	/* уФЎтю░тЮђ (1тГЌУіѓ№╝Ѕ */
  68:modbus/RTUmodbus_slave.c **** 	addr = g_tModS.RxBuf[0]; /* угг1тГЌУіѓ уФЎтЈи */
  69:modbus/RTUmodbus_slave.c **** 	if (addr != 0x01)		 /* тѕцТќГСИ╗Тю║тЈЉжђЂуџётЉйС╗цтю░тЮђТў»тљдугдтљѕ */
  70:modbus/RTUmodbus_slave.c **** 	{
  71:modbus/RTUmodbus_slave.c **** 		goto err_ret;
  72:modbus/RTUmodbus_slave.c **** 	}
  73:modbus/RTUmodbus_slave.c **** 	/* тѕєТъљт║ћућет▒ѓтЇЈУ«« */
  74:modbus/RTUmodbus_slave.c **** 	MODS_AnalyzeApp();
  75:modbus/RTUmodbus_slave.c **** 
  76:modbus/RTUmodbus_slave.c **** err_ret:
  77:modbus/RTUmodbus_slave.c **** 	/* ТГцжЃетѕєСИ║С║єСИ▓тЈБТЅЊтЇ░у╗ЊТъю,т«ъжЎЁУ┐љућеСИГтЈ»СИЇУдЂ */
  78:modbus/RTUmodbus_slave.c **** 	g_tModS.RxCount = 0; /* т┐ЁжА╗ТИЁжЏХУ«АТЋ░тЎе№╝їТќ╣СЙ┐СИІТгАтИДтљїТГЦ */
  79:modbus/RTUmodbus_slave.c **** }
  80:modbus/RTUmodbus_slave.c **** 
  81:modbus/RTUmodbus_slave.c **** /*
  82:modbus/RTUmodbus_slave.c **** ***************************************************************************************************
  83:modbus/RTUmodbus_slave.c **** *	тЄй ТЋ░ тљЇ: MODS_ReciveNew
  84:modbus/RTUmodbus_slave.c **** *	тіЪУЃйУ»┤Тўј: СИ▓тЈБТјЦТћХСИГТќГТюЇтіАуеІт║ЈС╝џУ░ЃућеТюгтЄйТЋ░сђѓтйЊТћХтѕ░СИђСИфтГЌУіѓТЌХ№╝їТЅДУА
  85:modbus/RTUmodbus_slave.c **** *	тйб    тЈѓ: ТЌа
  86:modbus/RTUmodbus_slave.c **** *	У┐ћ тЏъ тђ╝: ТЌа
  87:modbus/RTUmodbus_slave.c **** ***************************************************************************************************
  88:modbus/RTUmodbus_slave.c **** */
  89:modbus/RTUmodbus_slave.c **** #if 0 // ТюгтиЦуеІСИЇжђѓућеСИ▓тЈБТјЦТћХтј╗ТјЅСИЇСй┐ућеmodbusт«џТЌХтЎеуџётіЪУЃй
ARM GAS  /tmp/cciZyHjk.s 			page 3


  90:modbus/RTUmodbus_slave.c **** 
  91:modbus/RTUmodbus_slave.c **** void MODS_ReciveNew(uint8_t _byte)
  92:modbus/RTUmodbus_slave.c **** {
  93:modbus/RTUmodbus_slave.c **** 	/*
  94:modbus/RTUmodbus_slave.c **** 		3.5СИфтГЌугдуџёТЌХжЌ┤жЌ┤жџћ№╝їтЈфТў»ућетюеRTUТеАт╝ЈСИІжЮб№╝їтЏаСИ║RTUТеАт╝ЈТ▓АТюЅт╝ђтДІугдтњїу╗ЊТ
  95:modbus/RTUmodbus_slave.c **** 		СИцСИфТЋ░ТЇ«тїЁС╣ІжЌ┤тЈфУЃйжЮаТЌХжЌ┤жЌ┤жџћТЮЦтї║тѕє№╝їModbusт«џС╣ЅтюеСИЇтљїуџёТ│буЅ╣ујЄСИІ№╝їжЌ┤ж
  96:modbus/RTUmodbus_slave.c **** 		ТЅђС╗Цт░▒Тў»3.5СИфтГЌугдуџёТЌХжЌ┤№╝їТ│буЅ╣ујЄжФў№╝їУ┐ЎСИфТЌХжЌ┤жЌ┤жџћт░▒т░Ј№╝їТ│буЅ╣ујЄСйј№╝їУ┐ЎС
  97:modbus/RTUmodbus_slave.c **** 
  98:modbus/RTUmodbus_slave.c **** 		4800  = 7.297ms
  99:modbus/RTUmodbus_slave.c **** 		9600  = 3.646ms
 100:modbus/RTUmodbus_slave.c **** 		19200  = 1.771ms
 101:modbus/RTUmodbus_slave.c **** 		38400  = 0.885ms
 102:modbus/RTUmodbus_slave.c **** 	*/
 103:modbus/RTUmodbus_slave.c **** 	uint32_t timeout;
 104:modbus/RTUmodbus_slave.c **** 
 105:modbus/RTUmodbus_slave.c **** 	g_mods_timeout = 0;
 106:modbus/RTUmodbus_slave.c **** 	
 107:modbus/RTUmodbus_slave.c **** 	timeout = 35000000 / SBAUD485;			/* У«Ау«ЌУХЁТЌХТЌХжЌ┤№╝їтЇЋСйЇus 35000000*/
 108:modbus/RTUmodbus_slave.c **** 	
 109:modbus/RTUmodbus_slave.c **** 	/* уАгС╗Хт«џТЌХСИГТќГ№╝їт«џТЌХу▓Йт║дus уАгС╗Хт«џТЌХтЎе1ућеС║јADC, т«џТЌХтЎе2ућеС║јModbus */
 110:modbus/RTUmodbus_slave.c **** 	bsp_StartHardTimer(1, timeout, (void *)MODS_RxTimeOut);
 111:modbus/RTUmodbus_slave.c **** 
 112:modbus/RTUmodbus_slave.c **** 	if (g_tModS.RxCount < S_RX_BUF_SIZE)
 113:modbus/RTUmodbus_slave.c **** 	{
 114:modbus/RTUmodbus_slave.c **** 		g_tModS.RxBuf[g_tModS.RxCount++] = _byte;
 115:modbus/RTUmodbus_slave.c **** 	}
 116:modbus/RTUmodbus_slave.c **** }
 117:modbus/RTUmodbus_slave.c **** #endif
 118:modbus/RTUmodbus_slave.c **** /*
 119:modbus/RTUmodbus_slave.c **** ***************************************************************************************************
 120:modbus/RTUmodbus_slave.c **** *	тЄй ТЋ░ тљЇ: MODS_ReciveNew_no_timer
 121:modbus/RTUmodbus_slave.c **** *	тіЪУЃйУ»┤Тўј: СИ▓тЈБТјЦТћХСИГТќГТюЇтіАуеІт║ЈС╝џУ░ЃућеТюгтЄйТЋ░сђѓтйЊТћХтѕ░СИђСИфтГЌУіѓТЌХ№╝їТЅДУА
 122:modbus/RTUmodbus_slave.c **** *	тйб    тЈѓ: ТЌа
 123:modbus/RTUmodbus_slave.c **** *	У┐ћ тЏъ тђ╝: ТЌа
 124:modbus/RTUmodbus_slave.c **** ***************************************************************************************************
 125:modbus/RTUmodbus_slave.c **** */
 126:modbus/RTUmodbus_slave.c **** void MODS_ReciveNew_no_timer(uint8_t _byte)
 127:modbus/RTUmodbus_slave.c **** {
 128:modbus/RTUmodbus_slave.c **** 	g_mods_timeout = 0;
 129:modbus/RTUmodbus_slave.c **** 	if (g_tModS.RxCount < S_RX_BUF_SIZE)
 130:modbus/RTUmodbus_slave.c **** 	{
 131:modbus/RTUmodbus_slave.c **** 		g_tModS.RxBuf[g_tModS.RxCount++] = _byte;
 132:modbus/RTUmodbus_slave.c **** 	}
 133:modbus/RTUmodbus_slave.c **** }
 134:modbus/RTUmodbus_slave.c **** 
 135:modbus/RTUmodbus_slave.c **** /*
 136:modbus/RTUmodbus_slave.c **** ***************************************************************************************************
 137:modbus/RTUmodbus_slave.c **** *	тЄй ТЋ░ тљЇ: MODS_RxTimeOut
 138:modbus/RTUmodbus_slave.c **** *	тіЪУЃйУ»┤Тўј: УХЁУ┐Є3.5СИфтГЌугдТЌХжЌ┤тљјТЅДУАїТюгтЄйТЋ░сђѓ У«Йуй«тЁет▒ђтЈўжЄЈ g_mods_timeout = 1
 139:modbus/RTUmodbus_slave.c **** *	тйб    тЈѓ: ТЌа
 140:modbus/RTUmodbus_slave.c **** *	У┐ћ тЏъ тђ╝: ТЌа
 141:modbus/RTUmodbus_slave.c **** ***************************************************************************************************
 142:modbus/RTUmodbus_slave.c **** */
 143:modbus/RTUmodbus_slave.c **** void MODS_RxTimeOut(void)
 144:modbus/RTUmodbus_slave.c **** {
 145:modbus/RTUmodbus_slave.c **** 	g_mods_timeout = 1;
 146:modbus/RTUmodbus_slave.c **** }
ARM GAS  /tmp/cciZyHjk.s 			page 4


 147:modbus/RTUmodbus_slave.c **** 
 148:modbus/RTUmodbus_slave.c **** /*
 149:modbus/RTUmodbus_slave.c **** ***************************************************************************************************
 150:modbus/RTUmodbus_slave.c **** *	тЄй ТЋ░ тљЇ: MODS_SendWithCRC
 151:modbus/RTUmodbus_slave.c **** *	тіЪУЃйУ»┤Тўј: тЈЉжђЂСИђСИ▓ТЋ░ТЇ«, УЄфтіеУ┐йтіа2тГЌУіѓCRC
 152:modbus/RTUmodbus_slave.c **** *	тйб    тЈѓ: _pBuf ТЋ░ТЇ«№╝Џ
 153:modbus/RTUmodbus_slave.c **** *			  _ucLen ТЋ░ТЇ«жЋ┐т║д№╝ѕСИЇтИдCRC№╝Ѕ
 154:modbus/RTUmodbus_slave.c **** *	У┐ћ тЏъ тђ╝: ТЌа
 155:modbus/RTUmodbus_slave.c **** ***************************************************************************************************
 156:modbus/RTUmodbus_slave.c **** */
 157:modbus/RTUmodbus_slave.c **** static void MODS_SendWithCRC(uint8_t *_pBuf, uint8_t _ucLen)
 158:modbus/RTUmodbus_slave.c **** {
 159:modbus/RTUmodbus_slave.c **** 	uint16_t crc;
 160:modbus/RTUmodbus_slave.c **** 	uint8_t buf[S_TX_BUF_SIZE];
 161:modbus/RTUmodbus_slave.c **** 
 162:modbus/RTUmodbus_slave.c **** 	memcpy(buf, _pBuf, _ucLen);
 163:modbus/RTUmodbus_slave.c **** 	crc = CRC16_Modbus(_pBuf, _ucLen);
 164:modbus/RTUmodbus_slave.c **** 	buf[_ucLen++] = crc >> 8;
 165:modbus/RTUmodbus_slave.c **** 	buf[_ucLen++] = crc;
 166:modbus/RTUmodbus_slave.c **** 	#warning У┐ЎжЄїжюђУдЂу╗ЎтЄ║СИђСИфтЈЉжђЂуџёТјЦтЈБ
 167:modbus/RTUmodbus_slave.c **** 	// self_uart_send(buf, _ucLen);
 168:modbus/RTUmodbus_slave.c **** 	/* ТГцжЃетѕєСИ║С║єСИ▓тЈБТЅЊтЇ░у╗ЊТъю,т«ъжЎЁУ┐љућеСИГтЈ»СИЇУдЂ */
 169:modbus/RTUmodbus_slave.c **** }
 170:modbus/RTUmodbus_slave.c **** 
 171:modbus/RTUmodbus_slave.c **** /*
 172:modbus/RTUmodbus_slave.c **** ***************************************************************************************************
 173:modbus/RTUmodbus_slave.c **** *	тЄй ТЋ░ тљЇ: MODS_SendAckErr
 174:modbus/RTUmodbus_slave.c **** *	тіЪУЃйУ»┤Тўј: тЈЉжђЂжћЎУ»»т║ћуГћ
 175:modbus/RTUmodbus_slave.c **** *	тйб    тЈѓ: _ucErrCode : жћЎУ»»С╗БуаЂ
 176:modbus/RTUmodbus_slave.c **** *	У┐ћ тЏъ тђ╝: ТЌа
 177:modbus/RTUmodbus_slave.c **** ***************************************************************************************************
 178:modbus/RTUmodbus_slave.c **** */
 179:modbus/RTUmodbus_slave.c **** static void MODS_SendAckErr(uint8_t _ucErrCode)
 180:modbus/RTUmodbus_slave.c **** {
 181:modbus/RTUmodbus_slave.c **** 	uint8_t txbuf[3];
 182:modbus/RTUmodbus_slave.c **** 
 183:modbus/RTUmodbus_slave.c **** 	txbuf[0] = g_tModS.RxBuf[0];		/* 485тю░тЮђ */
 184:modbus/RTUmodbus_slave.c **** 	txbuf[1] = g_tModS.RxBuf[1] | 0x80; /* т╝ѓтИИуџётіЪУЃйуаЂ */
 185:modbus/RTUmodbus_slave.c **** 	txbuf[2] = _ucErrCode;				/* жћЎУ»»С╗БуаЂ(01,02,03,04) */
 186:modbus/RTUmodbus_slave.c **** 
 187:modbus/RTUmodbus_slave.c **** 	MODS_SendWithCRC(txbuf, 3);
 188:modbus/RTUmodbus_slave.c **** }
 189:modbus/RTUmodbus_slave.c **** 
 190:modbus/RTUmodbus_slave.c **** /*
 191:modbus/RTUmodbus_slave.c **** ***************************************************************************************************
 192:modbus/RTUmodbus_slave.c **** *	тЄй ТЋ░ тљЇ: MODS_SendAckOk
 193:modbus/RTUmodbus_slave.c **** *	тіЪУЃйУ»┤Тўј: тЈЉжђЂТГБуА«уџёт║ћуГћ.
 194:modbus/RTUmodbus_slave.c **** *	тйб    тЈѓ: ТЌа
 195:modbus/RTUmodbus_slave.c **** *	У┐ћ тЏъ тђ╝: ТЌа
 196:modbus/RTUmodbus_slave.c **** ***************************************************************************************************
 197:modbus/RTUmodbus_slave.c **** */
 198:modbus/RTUmodbus_slave.c **** static void MODS_SendAckOk(void)
 199:modbus/RTUmodbus_slave.c **** {
 200:modbus/RTUmodbus_slave.c **** 	uint8_t txbuf[6];
 201:modbus/RTUmodbus_slave.c **** 	uint8_t i;
 202:modbus/RTUmodbus_slave.c **** 
 203:modbus/RTUmodbus_slave.c **** 	for (i = 0; i < 6; i++)
ARM GAS  /tmp/cciZyHjk.s 			page 5


 204:modbus/RTUmodbus_slave.c **** 	{
 205:modbus/RTUmodbus_slave.c **** 		txbuf[i] = g_tModS.RxBuf[i];
 206:modbus/RTUmodbus_slave.c **** 	}
 207:modbus/RTUmodbus_slave.c **** 	MODS_SendWithCRC(txbuf, 6);
 208:modbus/RTUmodbus_slave.c **** }
 209:modbus/RTUmodbus_slave.c **** 
 210:modbus/RTUmodbus_slave.c **** /*
 211:modbus/RTUmodbus_slave.c **** ***************************************************************************************************
 212:modbus/RTUmodbus_slave.c **** *	тЄй ТЋ░ тљЇ: MODS_AnalyzeApp
 213:modbus/RTUmodbus_slave.c **** *	тіЪУЃйУ»┤Тўј: тѕєТъљт║ћућет▒ѓтЇЈУ««
 214:modbus/RTUmodbus_slave.c **** *	тйб    тЈѓ: ТЌа
 215:modbus/RTUmodbus_slave.c **** *	У┐ћ тЏъ тђ╝: ТЌа
 216:modbus/RTUmodbus_slave.c **** ***************************************************************************************************
 217:modbus/RTUmodbus_slave.c **** */
 218:modbus/RTUmodbus_slave.c **** static void MODS_AnalyzeApp(void)
 219:modbus/RTUmodbus_slave.c **** {
 220:modbus/RTUmodbus_slave.c **** 	switch (g_tModS.RxBuf[1]) /* угг2СИфтГЌУіѓ тіЪУЃйуаЂ */
 221:modbus/RTUmodbus_slave.c **** 	{
 222:modbus/RTUmodbus_slave.c **** 	case 0x01: /* У»╗тЈќу║┐тюѕуіХТђЂ№╝ѕТГцСЙІуеІућеledС╗БТЏ┐№╝Ѕ*/
 223:modbus/RTUmodbus_slave.c **** 		MODS_01H();
 224:modbus/RTUmodbus_slave.c **** 		// bsp_PutMsg(MSG_MODS_01H, 0);	/* тЈЉжђЂТХѕТЂ»,СИ╗уеІт║Јтцёуљє */
 225:modbus/RTUmodbus_slave.c **** 		break;
 226:modbus/RTUmodbus_slave.c **** 
 227:modbus/RTUmodbus_slave.c **** 	case 0x02: /* У»╗тЈќУЙЊтЁЦуіХТђЂ№╝ѕТїЅжћ«уіХТђЂ№╝Ѕ*/
 228:modbus/RTUmodbus_slave.c **** 		MODS_02H();
 229:modbus/RTUmodbus_slave.c **** 		// bsp_PutMsg(MSG_MODS_02H, 0);
 230:modbus/RTUmodbus_slave.c **** 		break;
 231:modbus/RTUmodbus_slave.c **** 
 232:modbus/RTUmodbus_slave.c **** 	case 0x03: /* У»╗тЈќС┐ЮТїЂт»ётГўтЎе№╝ѕТГцСЙІуеІтГўтюеg_tVarСИГ№╝Ѕ*/
 233:modbus/RTUmodbus_slave.c **** 		MODS_03H();
 234:modbus/RTUmodbus_slave.c **** 		// bsp_PutMsg(MSG_MODS_03H, 0);
 235:modbus/RTUmodbus_slave.c **** 		break;
 236:modbus/RTUmodbus_slave.c **** 
 237:modbus/RTUmodbus_slave.c **** 	case 0x04: /* У»╗тЈќУЙЊтЁЦт»ётГўтЎе№╝ѕADCуџётђ╝№╝Ѕ*/
 238:modbus/RTUmodbus_slave.c **** 		MODS_04H();
 239:modbus/RTUmodbus_slave.c **** 		// bsp_PutMsg(MSG_MODS_04H, 0);
 240:modbus/RTUmodbus_slave.c **** 		break;
 241:modbus/RTUmodbus_slave.c **** 
 242:modbus/RTUmodbus_slave.c **** 	case 0x05: /* т╝║тѕХтЇЋу║┐тюѕ№╝ѕУ«Йуй«led№╝Ѕ*/
 243:modbus/RTUmodbus_slave.c **** 		MODS_05H();
 244:modbus/RTUmodbus_slave.c **** 		// bsp_PutMsg(MSG_MODS_05H, 0);
 245:modbus/RTUmodbus_slave.c **** 		break;
 246:modbus/RTUmodbus_slave.c **** 
 247:modbus/RTUmodbus_slave.c **** 	case 0x06: /* тєЎтЇЋСИфС┐ЮтГўт»ётГўтЎе№╝ѕТГцСЙІуеІТћ╣тєЎg_tVarСИГуџётЈѓТЋ░№╝Ѕ*/
 248:modbus/RTUmodbus_slave.c **** 		MODS_06H();
 249:modbus/RTUmodbus_slave.c **** 		// bsp_PutMsg(MSG_MODS_06H, 0);
 250:modbus/RTUmodbus_slave.c **** 		break;
 251:modbus/RTUmodbus_slave.c **** 
 252:modbus/RTUmodbus_slave.c **** 	case 0x10: /* тєЎтцџСИфС┐ЮтГўт»ётГўтЎе№╝ѕТГцСЙІуеІтГўтюеg_tVarСИГуџётЈѓТЋ░№╝Ѕ*/
 253:modbus/RTUmodbus_slave.c **** 		MODS_10H();
 254:modbus/RTUmodbus_slave.c **** 		// bsp_PutMsg(MSG_MODS_10H, 0);
 255:modbus/RTUmodbus_slave.c **** 		break;
 256:modbus/RTUmodbus_slave.c **** 
 257:modbus/RTUmodbus_slave.c **** 	default:
 258:modbus/RTUmodbus_slave.c **** 		g_tModS.RspCode = RSP_ERR_CMD;
 259:modbus/RTUmodbus_slave.c **** 		MODS_SendAckErr(g_tModS.RspCode); /* тЉіУ»ЅСИ╗Тю║тЉйС╗цжћЎУ»» */
 260:modbus/RTUmodbus_slave.c **** 		break;
ARM GAS  /tmp/cciZyHjk.s 			page 6


 261:modbus/RTUmodbus_slave.c **** 	}
 262:modbus/RTUmodbus_slave.c **** }
 263:modbus/RTUmodbus_slave.c **** 
 264:modbus/RTUmodbus_slave.c **** /*
 265:modbus/RTUmodbus_slave.c **** ***************************************************************************************************
 266:modbus/RTUmodbus_slave.c **** *	тЄй ТЋ░ тљЇ: MODS_01H
 267:modbus/RTUmodbus_slave.c **** *	тіЪУЃйУ»┤Тўј: У»╗тЈќу║┐тюѕуіХТђЂ№╝ѕт»╣т║ћУ┐юуеІт╝ђтЁ│D01/D02/D03№╝Ѕ
 268:modbus/RTUmodbus_slave.c **** *	тйб    тЈѓ: ТЌа
 269:modbus/RTUmodbus_slave.c **** *	У┐ћ тЏъ тђ╝: ТЌа
 270:modbus/RTUmodbus_slave.c **** ***************************************************************************************************
 271:modbus/RTUmodbus_slave.c **** */
 272:modbus/RTUmodbus_slave.c **** /* У»┤Тўј:У┐ЎжЄїућеLEDС╗БТЏ┐у╗ДућхтЎе,СЙ┐С║јУДѓт»Ъуј░У▒А */
 273:modbus/RTUmodbus_slave.c **** static void MODS_01H(void)
 274:modbus/RTUmodbus_slave.c **** {
 275:modbus/RTUmodbus_slave.c **** 	/*
 276:modbus/RTUmodbus_slave.c **** 	 СИЙСЙІ№╝џ
 277:modbus/RTUmodbus_slave.c **** 		СИ╗Тю║тЈЉжђЂ:
 278:modbus/RTUmodbus_slave.c **** 			11 С╗јТю║тю░тЮђ
 279:modbus/RTUmodbus_slave.c **** 			01 тіЪУЃйуаЂ
 280:modbus/RTUmodbus_slave.c **** 			00 т»ётГўтЎеУхитДІтю░тЮђжФўтГЌУіѓ
 281:modbus/RTUmodbus_slave.c **** 			13 т»ётГўтЎеУхитДІтю░тЮђСйјтГЌУіѓ
 282:modbus/RTUmodbus_slave.c **** 			00 т»ётГўтЎеТЋ░жЄЈжФўтГЌУіѓ
 283:modbus/RTUmodbus_slave.c **** 			25 т»ётГўтЎеТЋ░жЄЈСйјтГЌУіѓ
 284:modbus/RTUmodbus_slave.c **** 			0E CRCТаАжфїжФўтГЌУіѓ
 285:modbus/RTUmodbus_slave.c **** 			84 CRCТаАжфїСйјтГЌУіѓ
 286:modbus/RTUmodbus_slave.c **** 
 287:modbus/RTUmodbus_slave.c **** 		С╗јТю║т║ћуГћ: 	1С╗БУАеON№╝ї0С╗БУАеOFFсђѓУІЦУ┐ћтЏъуџёу║┐тюѕТЋ░СИЇСИ║8уџётђЇТЋ░№╝їтѕЎтюеТюђтљјТЋ░ТЇ
 288:modbus/RTUmodbus_slave.c **** 			11 С╗јТю║тю░тЮђ
 289:modbus/RTUmodbus_slave.c **** 			01 тіЪУЃйуаЂ
 290:modbus/RTUmodbus_slave.c **** 			05 У┐ћтЏътГЌУіѓТЋ░
 291:modbus/RTUmodbus_slave.c **** 			CD ТЋ░ТЇ«1(у║┐тюѕ0013H-у║┐тюѕ001AH)
 292:modbus/RTUmodbus_slave.c **** 			6B ТЋ░ТЇ«2(у║┐тюѕ001BH-у║┐тюѕ0022H)
 293:modbus/RTUmodbus_slave.c **** 			B2 ТЋ░ТЇ«3(у║┐тюѕ0023H-у║┐тюѕ002AH)
 294:modbus/RTUmodbus_slave.c **** 			0E ТЋ░ТЇ«4(у║┐тюѕ0032H-у║┐тюѕ002BH)
 295:modbus/RTUmodbus_slave.c **** 			1B ТЋ░ТЇ«5(у║┐тюѕ0037H-у║┐тюѕ0033H)
 296:modbus/RTUmodbus_slave.c **** 			45 CRCТаАжфїжФўтГЌУіѓ
 297:modbus/RTUmodbus_slave.c **** 			E6 CRCТаАжфїСйјтГЌУіѓ
 298:modbus/RTUmodbus_slave.c **** 
 299:modbus/RTUmodbus_slave.c **** 		СЙІтГљ:
 300:modbus/RTUmodbus_slave.c **** 			01 01 10 01 00 03   29 0B	--- ТЪЦУ»бD01т╝ђтДІуџё3СИфу╗ДућхтЎеуіХТђЂ
 301:modbus/RTUmodbus_slave.c **** 			01 01 10 03 00 01   09 0A   --- ТЪЦУ»бD03у╗ДућхтЎеуџёуіХТђЂ
 302:modbus/RTUmodbus_slave.c **** 	*/
 303:modbus/RTUmodbus_slave.c **** 	uint16_t reg;
 304:modbus/RTUmodbus_slave.c **** 	uint16_t num;
 305:modbus/RTUmodbus_slave.c **** 	uint16_t i;
 306:modbus/RTUmodbus_slave.c **** 	uint16_t m;
 307:modbus/RTUmodbus_slave.c **** 	uint8_t status[10];
 308:modbus/RTUmodbus_slave.c **** 
 309:modbus/RTUmodbus_slave.c **** 	g_tModS.RspCode = RSP_OK;
 310:modbus/RTUmodbus_slave.c **** 
 311:modbus/RTUmodbus_slave.c **** 	/* Т▓АТюЅтцќжЃеу╗ДућхтЎе№╝їуЏ┤ТјЦт║ћуГћжћЎУ»» */
 312:modbus/RTUmodbus_slave.c **** 	if (g_tModS.RxCount != 8)
 313:modbus/RTUmodbus_slave.c **** 	{
 314:modbus/RTUmodbus_slave.c **** 		g_tModS.RspCode = RSP_ERR_VALUE; /* ТЋ░ТЇ«тђ╝тЪЪжћЎУ»» */
 315:modbus/RTUmodbus_slave.c **** 		return;
 316:modbus/RTUmodbus_slave.c **** 	}
 317:modbus/RTUmodbus_slave.c **** 
ARM GAS  /tmp/cciZyHjk.s 			page 7


 318:modbus/RTUmodbus_slave.c **** 	reg = BEBufToUint16(&g_tModS.RxBuf[2]); /* т»ётГўтЎетЈи */
 319:modbus/RTUmodbus_slave.c **** 	num = BEBufToUint16(&g_tModS.RxBuf[4]); /* т»ётГўтЎеСИфТЋ░ */
 320:modbus/RTUmodbus_slave.c **** 
 321:modbus/RTUmodbus_slave.c **** 	m = (num + 7) / 8;
 322:modbus/RTUmodbus_slave.c **** 
 323:modbus/RTUmodbus_slave.c **** 	if ((reg >= REG_D01) && (num > 0) && (reg + num <= REG_DXX + 1))
 324:modbus/RTUmodbus_slave.c **** 	{
 325:modbus/RTUmodbus_slave.c **** 		for (i = 0; i < m; i++)
 326:modbus/RTUmodbus_slave.c **** 		{
 327:modbus/RTUmodbus_slave.c **** 			status[i] = 0;
 328:modbus/RTUmodbus_slave.c **** 		}
 329:modbus/RTUmodbus_slave.c **** 		for (i = 0; i < num; i++)
 330:modbus/RTUmodbus_slave.c **** 		{
 331:modbus/RTUmodbus_slave.c **** 			// if (bsp_IsLedOn(i + 1 + reg - REG_D01))		/* У»╗LEDуџёуіХТђЂ№╝їтєЎтЁЦуіХТђЂт»ётГўтЎеуџёТ»ЈСИђС
 332:modbus/RTUmodbus_slave.c **** 			// {
 333:modbus/RTUmodbus_slave.c **** 			//		status[i / 8] |= (1 << (i % 8));
 334:modbus/RTUmodbus_slave.c **** 			// }
 335:modbus/RTUmodbus_slave.c **** 		}
 336:modbus/RTUmodbus_slave.c **** 	}
 337:modbus/RTUmodbus_slave.c **** 	else
 338:modbus/RTUmodbus_slave.c **** 	{
 339:modbus/RTUmodbus_slave.c **** 		g_tModS.RspCode = RSP_ERR_REG_ADDR; /* т»ётГўтЎетю░тЮђжћЎУ»» */
 340:modbus/RTUmodbus_slave.c **** 	}
 341:modbus/RTUmodbus_slave.c **** 
 342:modbus/RTUmodbus_slave.c **** 	if (g_tModS.RspCode == RSP_OK) /* ТГБуА«т║ћуГћ */
 343:modbus/RTUmodbus_slave.c **** 	{
 344:modbus/RTUmodbus_slave.c **** 		g_tModS.TxCount = 0;
 345:modbus/RTUmodbus_slave.c **** 		g_tModS.TxBuf[g_tModS.TxCount++] = g_tModS.RxBuf[0];
 346:modbus/RTUmodbus_slave.c **** 		g_tModS.TxBuf[g_tModS.TxCount++] = g_tModS.RxBuf[1];
 347:modbus/RTUmodbus_slave.c **** 		g_tModS.TxBuf[g_tModS.TxCount++] = m; /* У┐ћтЏътГЌУіѓТЋ░ */
 348:modbus/RTUmodbus_slave.c **** 
 349:modbus/RTUmodbus_slave.c **** 		for (i = 0; i < m; i++)
 350:modbus/RTUmodbus_slave.c **** 		{
 351:modbus/RTUmodbus_slave.c **** 			g_tModS.TxBuf[g_tModS.TxCount++] = status[i]; /* у╗ДућхтЎеуіХТђЂ */
 352:modbus/RTUmodbus_slave.c **** 		}
 353:modbus/RTUmodbus_slave.c **** 		MODS_SendWithCRC(g_tModS.TxBuf, g_tModS.TxCount);
 354:modbus/RTUmodbus_slave.c **** 	}
 355:modbus/RTUmodbus_slave.c **** 	else
 356:modbus/RTUmodbus_slave.c **** 	{
 357:modbus/RTUmodbus_slave.c **** 		MODS_SendAckErr(g_tModS.RspCode); /* тЉіУ»ЅСИ╗Тю║тЉйС╗цжћЎУ»» */
 358:modbus/RTUmodbus_slave.c **** 	}
 359:modbus/RTUmodbus_slave.c **** }
 360:modbus/RTUmodbus_slave.c **** 
 361:modbus/RTUmodbus_slave.c **** /*
 362:modbus/RTUmodbus_slave.c **** ***************************************************************************************************
 363:modbus/RTUmodbus_slave.c **** *	тЄй ТЋ░ тљЇ: MODS_02H
 364:modbus/RTUmodbus_slave.c **** *	тіЪУЃйУ»┤Тўј: У»╗тЈќУЙЊтЁЦуіХТђЂ№╝ѕт»╣т║ћK01№йъK03№╝Ѕ
 365:modbus/RTUmodbus_slave.c **** *	тйб    тЈѓ: ТЌа
 366:modbus/RTUmodbus_slave.c **** *	У┐ћ тЏъ тђ╝: ТЌа
 367:modbus/RTUmodbus_slave.c **** ***************************************************************************************************
 368:modbus/RTUmodbus_slave.c **** */
 369:modbus/RTUmodbus_slave.c **** static void MODS_02H(void)
 370:modbus/RTUmodbus_slave.c **** {
 371:modbus/RTUmodbus_slave.c **** 	/*
 372:modbus/RTUmodbus_slave.c **** 		СИ╗Тю║тЈЉжђЂ:
 373:modbus/RTUmodbus_slave.c **** 			11 С╗јТю║тю░тЮђ
 374:modbus/RTUmodbus_slave.c **** 			02 тіЪУЃйуаЂ
ARM GAS  /tmp/cciZyHjk.s 			page 8


 375:modbus/RTUmodbus_slave.c **** 			00 т»ётГўтЎетю░тЮђжФўтГЌУіѓ
 376:modbus/RTUmodbus_slave.c **** 			C4 т»ётГўтЎетю░тЮђСйјтГЌУіѓ
 377:modbus/RTUmodbus_slave.c **** 			00 т»ётГўтЎеТЋ░жЄЈжФўтГЌУіѓ
 378:modbus/RTUmodbus_slave.c **** 			16 т»ётГўтЎеТЋ░жЄЈСйјтГЌУіѓ
 379:modbus/RTUmodbus_slave.c **** 			BA CRCТаАжфїжФўтГЌУіѓ
 380:modbus/RTUmodbus_slave.c **** 			A9 CRCТаАжфїСйјтГЌУіѓ
 381:modbus/RTUmodbus_slave.c **** 
 382:modbus/RTUmodbus_slave.c **** 		С╗јТю║т║ћуГћ:  тЊЇт║ћтљёуд╗ТЋБУЙЊтЁЦт»ётГўтЎеуіХТђЂ№╝їтѕєтѕФт»╣т║ћТЋ░ТЇ«тї║СИГуџёТ»ЈСйЇтђ╝№╝ї1 С╗
 383:modbus/RTUmodbus_slave.c **** 				   уггСИђСИфТЋ░ТЇ«тГЌУіѓуџёLSB(ТюђСйјтГЌУіѓ)СИ║ТЪЦУ»буџёт»╗тЮђтю░тЮђ№╝їтЁХС╗ќУЙЊтЁЦтЈБТїЅжА║т║Ј
 384:modbus/RTUmodbus_slave.c **** 				   тљЉжФўтГЌУіѓТјњтѕЌ№╝їуЏ┤тѕ░тАФтЁЁТ╗А8СйЇсђѓСИІСИђСИфтГЌУіѓСИГуџё8СИфУЙЊтЁЦСйЇС╣ЪТў»С╗јСйјтГЌ
 385:modbus/RTUmodbus_slave.c **** 				   УІЦУ┐ћтЏъуџёУЙЊтЁЦСйЇТЋ░СИЇТў»8уџётђЇТЋ░№╝їтѕЎтюеТюђтљјуџёТЋ░ТЇ«тГЌУіѓСИГуџётЅЕСйЎСйЇУЄ│У»Цт
 386:modbus/RTUmodbus_slave.c **** 			11 С╗јТю║тю░тЮђ
 387:modbus/RTUmodbus_slave.c **** 			02 тіЪУЃйуаЂ
 388:modbus/RTUmodbus_slave.c **** 			03 У┐ћтЏътГЌУіѓТЋ░
 389:modbus/RTUmodbus_slave.c **** 			AC ТЋ░ТЇ«1(00C4H-00CBH)
 390:modbus/RTUmodbus_slave.c **** 			DB ТЋ░ТЇ«2(00CCH-00D3H)
 391:modbus/RTUmodbus_slave.c **** 			35 ТЋ░ТЇ«3(00D4H-00D9H)
 392:modbus/RTUmodbus_slave.c **** 			20 CRCТаАжфїжФўтГЌУіѓ
 393:modbus/RTUmodbus_slave.c **** 			18 CRCТаАжфїСйјтГЌУіѓ
 394:modbus/RTUmodbus_slave.c **** 
 395:modbus/RTUmodbus_slave.c **** 		СЙІтГљ:
 396:modbus/RTUmodbus_slave.c **** 		01 02 20 01 00 08  23CC  ---- У»╗тЈќT01-08уџёуіХТђЂ
 397:modbus/RTUmodbus_slave.c **** 		01 02 20 04 00 02  B3CA  ---- У»╗тЈќT04-05уџёуіХТђЂ
 398:modbus/RTUmodbus_slave.c **** 		01 02 20 01 00 12  A207   ---- У»╗ T01-18
 399:modbus/RTUmodbus_slave.c **** 	*/
 400:modbus/RTUmodbus_slave.c **** 
 401:modbus/RTUmodbus_slave.c **** 	uint16_t reg;
 402:modbus/RTUmodbus_slave.c **** 	uint16_t num;
 403:modbus/RTUmodbus_slave.c **** 	uint16_t i;
 404:modbus/RTUmodbus_slave.c **** 	uint16_t m;
 405:modbus/RTUmodbus_slave.c **** 	uint8_t status[10];
 406:modbus/RTUmodbus_slave.c **** 
 407:modbus/RTUmodbus_slave.c **** 	g_tModS.RspCode = RSP_OK;
 408:modbus/RTUmodbus_slave.c **** 
 409:modbus/RTUmodbus_slave.c **** 	if (g_tModS.RxCount != 8)
 410:modbus/RTUmodbus_slave.c **** 	{
 411:modbus/RTUmodbus_slave.c **** 		g_tModS.RspCode = RSP_ERR_VALUE; /* ТЋ░ТЇ«тђ╝тЪЪжћЎУ»» */
 412:modbus/RTUmodbus_slave.c **** 		return;
 413:modbus/RTUmodbus_slave.c **** 	}
 414:modbus/RTUmodbus_slave.c **** 
 415:modbus/RTUmodbus_slave.c **** 	reg = BEBufToUint16(&g_tModS.RxBuf[2]); /* т»ётГўтЎетЈи */
 416:modbus/RTUmodbus_slave.c **** 	num = BEBufToUint16(&g_tModS.RxBuf[4]); /* т»ётГўтЎеСИфТЋ░ */
 417:modbus/RTUmodbus_slave.c **** 
 418:modbus/RTUmodbus_slave.c **** 	m = (num + 7) / 8;
 419:modbus/RTUmodbus_slave.c **** 	if ((reg >= REG_T01) && (num > 0) && (reg + num <= REG_TXX + 1))
 420:modbus/RTUmodbus_slave.c **** 	{
 421:modbus/RTUmodbus_slave.c **** 		for (i = 0; i < m; i++)
 422:modbus/RTUmodbus_slave.c **** 		{
 423:modbus/RTUmodbus_slave.c **** 			status[i] = 0;
 424:modbus/RTUmodbus_slave.c **** 		}
 425:modbus/RTUmodbus_slave.c **** 		for (i = 0; i < num; i++)
 426:modbus/RTUmodbus_slave.c **** 		{
 427:modbus/RTUmodbus_slave.c **** 			// if (bsp_GetKeyState((KEY_ID_E)(KID_K1 + reg - REG_T01 + i)))
 428:modbus/RTUmodbus_slave.c **** 			// {
 429:modbus/RTUmodbus_slave.c **** 			// 		status[i / 8] |= (1 << (i % 8));
 430:modbus/RTUmodbus_slave.c **** 			// }
 431:modbus/RTUmodbus_slave.c **** 		}
ARM GAS  /tmp/cciZyHjk.s 			page 9


 432:modbus/RTUmodbus_slave.c **** 	}
 433:modbus/RTUmodbus_slave.c **** 	else
 434:modbus/RTUmodbus_slave.c **** 	{
 435:modbus/RTUmodbus_slave.c **** 		g_tModS.RspCode = RSP_ERR_REG_ADDR; /* т»ётГўтЎетю░тЮђжћЎУ»» */
 436:modbus/RTUmodbus_slave.c **** 	}
 437:modbus/RTUmodbus_slave.c **** 
 438:modbus/RTUmodbus_slave.c **** 	if (g_tModS.RspCode == RSP_OK) /* ТГБуА«т║ћуГћ */
 439:modbus/RTUmodbus_slave.c **** 	{
 440:modbus/RTUmodbus_slave.c **** 		g_tModS.TxCount = 0;
 441:modbus/RTUmodbus_slave.c **** 		g_tModS.TxBuf[g_tModS.TxCount++] = g_tModS.RxBuf[0];
 442:modbus/RTUmodbus_slave.c **** 		g_tModS.TxBuf[g_tModS.TxCount++] = g_tModS.RxBuf[1];
 443:modbus/RTUmodbus_slave.c **** 		g_tModS.TxBuf[g_tModS.TxCount++] = m; /* У┐ћтЏътГЌУіѓТЋ░ */
 444:modbus/RTUmodbus_slave.c **** 
 445:modbus/RTUmodbus_slave.c **** 		for (i = 0; i < m; i++)
 446:modbus/RTUmodbus_slave.c **** 		{
 447:modbus/RTUmodbus_slave.c **** 			g_tModS.TxBuf[g_tModS.TxCount++] = status[i]; /* T01-02уіХТђЂ */
 448:modbus/RTUmodbus_slave.c **** 		}
 449:modbus/RTUmodbus_slave.c **** 		MODS_SendWithCRC(g_tModS.TxBuf, g_tModS.TxCount);
 450:modbus/RTUmodbus_slave.c **** 	}
 451:modbus/RTUmodbus_slave.c **** 	else
 452:modbus/RTUmodbus_slave.c **** 	{
 453:modbus/RTUmodbus_slave.c **** 		MODS_SendAckErr(g_tModS.RspCode); /* тЉіУ»ЅСИ╗Тю║тЉйС╗цжћЎУ»» */
 454:modbus/RTUmodbus_slave.c **** 	}
 455:modbus/RTUmodbus_slave.c **** }
 456:modbus/RTUmodbus_slave.c **** 
 457:modbus/RTUmodbus_slave.c **** /*
 458:modbus/RTUmodbus_slave.c **** ***************************************************************************************************
 459:modbus/RTUmodbus_slave.c **** *	тЄй ТЋ░ тљЇ: MODS_ReadRegValue
 460:modbus/RTUmodbus_slave.c **** *	тіЪУЃйУ»┤Тўј: У»╗тЈќС┐ЮТїЂт»ётГўтЎеуџётђ╝
 461:modbus/RTUmodbus_slave.c **** *	тйб    тЈѓ: reg_addr т»ётГўтЎетю░тЮђ
 462:modbus/RTUmodbus_slave.c **** *			  reg_value тГўТћЙт»ётГўтЎеу╗ЊТъю
 463:modbus/RTUmodbus_slave.c **** *	У┐ћ тЏъ тђ╝: 1УАеуц║OK 0УАеуц║жћЎУ»»
 464:modbus/RTUmodbus_slave.c **** ***************************************************************************************************
 465:modbus/RTUmodbus_slave.c **** */
 466:modbus/RTUmodbus_slave.c **** static uint8_t MODS_ReadRegValue(uint16_t reg_addr, uint8_t *reg_value)
 467:modbus/RTUmodbus_slave.c **** {
 468:modbus/RTUmodbus_slave.c **** 	uint16_t value;
 469:modbus/RTUmodbus_slave.c **** 	float temp, hum = 0;
 470:modbus/RTUmodbus_slave.c **** 	float x_data, y_data, z_data = 0;
 471:modbus/RTUmodbus_slave.c **** 	switch (reg_addr) /* тѕцТќГт»ётГўтЎетю░тЮђ */
 472:modbus/RTUmodbus_slave.c **** 	{
 473:modbus/RTUmodbus_slave.c **** 	/*************** dht22 ***********/
 474:modbus/RTUmodbus_slave.c **** 	case SLAVE_REG_P0000:
 475:modbus/RTUmodbus_slave.c **** 	{
 476:modbus/RTUmodbus_slave.c **** 		get_local_dht22_data(&temp, &hum);
 477:modbus/RTUmodbus_slave.c **** 		uint32_t temper_32 = convert_float_to_uint32(temp);
 478:modbus/RTUmodbus_slave.c **** 		value = temper_32 >> 16;
 479:modbus/RTUmodbus_slave.c **** 		break;
 480:modbus/RTUmodbus_slave.c **** 	}
 481:modbus/RTUmodbus_slave.c **** 	case SLAVE_REG_P0001:
 482:modbus/RTUmodbus_slave.c **** 	{
 483:modbus/RTUmodbus_slave.c **** 		get_local_dht22_data(&temp, &hum);
 484:modbus/RTUmodbus_slave.c **** 		uint32_t temper_32 = convert_float_to_uint32(temp);
 485:modbus/RTUmodbus_slave.c **** 		value = temper_32;
 486:modbus/RTUmodbus_slave.c **** 		break;
 487:modbus/RTUmodbus_slave.c **** 	}
 488:modbus/RTUmodbus_slave.c **** 	case SLAVE_REG_P0002:
ARM GAS  /tmp/cciZyHjk.s 			page 10


 489:modbus/RTUmodbus_slave.c **** 	{
 490:modbus/RTUmodbus_slave.c **** 		get_local_dht22_data(&temp, &hum);
 491:modbus/RTUmodbus_slave.c **** 		uint32_t hum_32 = convert_float_to_uint32(hum);
 492:modbus/RTUmodbus_slave.c **** 		value = hum_32 >> 16;
 493:modbus/RTUmodbus_slave.c **** 		break;
 494:modbus/RTUmodbus_slave.c **** 	}
 495:modbus/RTUmodbus_slave.c **** 	case SLAVE_REG_P0003:
 496:modbus/RTUmodbus_slave.c **** 	{
 497:modbus/RTUmodbus_slave.c **** 		get_local_dht22_data(&temp, &hum);
 498:modbus/RTUmodbus_slave.c **** 		uint32_t hum_32 = convert_float_to_uint32(hum);
 499:modbus/RTUmodbus_slave.c **** 		value = hum_32;
 500:modbus/RTUmodbus_slave.c **** 		break;
 501:modbus/RTUmodbus_slave.c **** 	}
 502:modbus/RTUmodbus_slave.c **** 	/*************** adxl345 ***********/
 503:modbus/RTUmodbus_slave.c **** 	case SLAVE_REG_P0004:
 504:modbus/RTUmodbus_slave.c **** 	{
 505:modbus/RTUmodbus_slave.c **** 		get_local_adxl_345_data(&x_data, &y_data, &z_data);
 506:modbus/RTUmodbus_slave.c **** 		uint32_t x_data_32 = convert_float_to_uint32(x_data);
 507:modbus/RTUmodbus_slave.c **** 		value = x_data_32 >> 16;
 508:modbus/RTUmodbus_slave.c **** 		break;
 509:modbus/RTUmodbus_slave.c **** 	}
 510:modbus/RTUmodbus_slave.c **** 	case SLAVE_REG_P0005:
 511:modbus/RTUmodbus_slave.c **** 	{
 512:modbus/RTUmodbus_slave.c **** 		get_local_adxl_345_data(&x_data, &y_data, &z_data);
 513:modbus/RTUmodbus_slave.c **** 		uint32_t x_data_32 = convert_float_to_uint32(x_data);
 514:modbus/RTUmodbus_slave.c **** 		value = x_data_32;
 515:modbus/RTUmodbus_slave.c **** 		break;
 516:modbus/RTUmodbus_slave.c **** 	}
 517:modbus/RTUmodbus_slave.c **** 	case SLAVE_REG_P0006:
 518:modbus/RTUmodbus_slave.c **** 	{
 519:modbus/RTUmodbus_slave.c **** 		get_local_adxl_345_data(&x_data, &y_data, &z_data);
 520:modbus/RTUmodbus_slave.c **** 		uint32_t y_data_32 = convert_float_to_uint32(y_data);
 521:modbus/RTUmodbus_slave.c **** 		value = y_data_32 >> 16;
 522:modbus/RTUmodbus_slave.c **** 		break;
 523:modbus/RTUmodbus_slave.c **** 	}
 524:modbus/RTUmodbus_slave.c **** 	case SLAVE_REG_P0007:
 525:modbus/RTUmodbus_slave.c **** 	{
 526:modbus/RTUmodbus_slave.c **** 		get_local_adxl_345_data(&x_data, &y_data, &z_data);
 527:modbus/RTUmodbus_slave.c **** 		uint32_t y_data_32 = convert_float_to_uint32(y_data);
 528:modbus/RTUmodbus_slave.c **** 		value = y_data_32;
 529:modbus/RTUmodbus_slave.c **** 		break;
 530:modbus/RTUmodbus_slave.c **** 	}
 531:modbus/RTUmodbus_slave.c **** 	case SLAVE_REG_P0008:
 532:modbus/RTUmodbus_slave.c **** 	{
 533:modbus/RTUmodbus_slave.c **** 		get_local_adxl_345_data(&x_data, &y_data, &z_data);
 534:modbus/RTUmodbus_slave.c **** 		uint32_t z_data_32 = convert_float_to_uint32(z_data);
 535:modbus/RTUmodbus_slave.c **** 		value = z_data_32>>16;
 536:modbus/RTUmodbus_slave.c **** 		break;
 537:modbus/RTUmodbus_slave.c **** 	}
 538:modbus/RTUmodbus_slave.c **** 	case SLAVE_REG_P0009:
 539:modbus/RTUmodbus_slave.c **** 	{
 540:modbus/RTUmodbus_slave.c **** 		get_local_adxl_345_data(&x_data, &y_data, &z_data);
 541:modbus/RTUmodbus_slave.c **** 		uint32_t z_data_32 = convert_float_to_uint32(z_data);
 542:modbus/RTUmodbus_slave.c **** 		value = z_data_32;
 543:modbus/RTUmodbus_slave.c **** 		break;
 544:modbus/RTUmodbus_slave.c **** 	}
 545:modbus/RTUmodbus_slave.c **** 	case SLAVE_REG_P000A:
ARM GAS  /tmp/cciZyHjk.s 			page 11


 546:modbus/RTUmodbus_slave.c **** 	
 547:modbus/RTUmodbus_slave.c **** 		value = 0x0000;
 548:modbus/RTUmodbus_slave.c **** 		break;
 549:modbus/RTUmodbus_slave.c **** 	default:
 550:modbus/RTUmodbus_slave.c **** 		return 0; /* тЈѓТЋ░т╝ѓтИИ№╝їУ┐ћтЏъ 0 */
 551:modbus/RTUmodbus_slave.c **** 	}
 552:modbus/RTUmodbus_slave.c **** 
 553:modbus/RTUmodbus_slave.c **** 	reg_value[0] = value >> 8;
 554:modbus/RTUmodbus_slave.c **** 	reg_value[1] = value;
 555:modbus/RTUmodbus_slave.c **** 	return 1; /* У»╗тЈќТѕљтіЪ */
 556:modbus/RTUmodbus_slave.c **** }
 557:modbus/RTUmodbus_slave.c **** 
 558:modbus/RTUmodbus_slave.c **** /*
 559:modbus/RTUmodbus_slave.c **** ***************************************************************************************************
 560:modbus/RTUmodbus_slave.c **** *	тЄй ТЋ░ тљЇ: MODS_WriteRegValue
 561:modbus/RTUmodbus_slave.c **** *	тіЪУЃйУ»┤Тўј: тєЎС┐ЮТїЂт»ётГўтЎеуџётђ╝
 562:modbus/RTUmodbus_slave.c **** *	тйб    тЈѓ: reg_addr т»ётГўтЎетю░тЮђ
 563:modbus/RTUmodbus_slave.c **** *			  reg_value т»ётГўтЎетђ╝
 564:modbus/RTUmodbus_slave.c **** *	У┐ћ тЏъ тђ╝: 1УАеуц║OK 0УАеуц║жћЎУ»»
 565:modbus/RTUmodbus_slave.c **** ***************************************************************************************************
 566:modbus/RTUmodbus_slave.c **** */
 567:modbus/RTUmodbus_slave.c **** static uint8_t MODS_WriteRegValue(uint16_t reg_addr, uint16_t reg_value)
 568:modbus/RTUmodbus_slave.c **** {
  27              		.loc 1 568 1 view -0
  28              		.cfi_startproc
  29              		@ args = 0, pretend = 0, frame = 0
  30              		@ frame_needed = 0, uses_anonymous_args = 0
  31              		@ link register save eliminated.
 569:modbus/RTUmodbus_slave.c **** 	switch (reg_addr) /* тѕцТќГт»ётГўтЎетю░тЮђ */
  32              		.loc 1 569 2 view .LVU1
  33 0000 0328     		cmp	r0, #3
  34 0002 03D9     		bls	.L3
  35 0004 1028     		cmp	r0, #16
  36 0006 03D1     		bne	.L4
 570:modbus/RTUmodbus_slave.c **** 	{
 571:modbus/RTUmodbus_slave.c **** 	case SLAVE_REG_P0000:
 572:modbus/RTUmodbus_slave.c **** 		reg_value = 0x00;
 573:modbus/RTUmodbus_slave.c **** 		break;
 574:modbus/RTUmodbus_slave.c **** 	case SLAVE_REG_P0001:
 575:modbus/RTUmodbus_slave.c **** 		reg_value = 0x00;
 576:modbus/RTUmodbus_slave.c **** 		break;
 577:modbus/RTUmodbus_slave.c **** 	case SLAVE_REG_P0002:
 578:modbus/RTUmodbus_slave.c **** 		reg_value = 0x00;
 579:modbus/RTUmodbus_slave.c **** 		break;
 580:modbus/RTUmodbus_slave.c **** 	case SLAVE_REG_P0003:
 581:modbus/RTUmodbus_slave.c **** 
 582:modbus/RTUmodbus_slave.c **** 		break;
 583:modbus/RTUmodbus_slave.c **** 	case SLAVE_REG_P0010:
 584:modbus/RTUmodbus_slave.c **** 
 585:modbus/RTUmodbus_slave.c **** 		break;
 586:modbus/RTUmodbus_slave.c **** 	default:
 587:modbus/RTUmodbus_slave.c **** 		return 0; /* тЈѓТЋ░т╝ѓтИИ№╝їУ┐ћтЏъ 0 */
 588:modbus/RTUmodbus_slave.c **** 	}
 589:modbus/RTUmodbus_slave.c **** 
 590:modbus/RTUmodbus_slave.c **** 	return 1; /* тєЎтЁЦТѕљтіЪ */
  37              		.loc 1 590 9 is_stmt 0 view .LVU2
  38 0008 0120     		movs	r0, #1
ARM GAS  /tmp/cciZyHjk.s 			page 12


  39              	.LVL1:
  40              		.loc 1 590 9 view .LVU3
  41 000a 7047     		bx	lr
  42              	.LVL2:
  43              	.L3:
  44              		.loc 1 590 9 view .LVU4
  45 000c 0120     		movs	r0, #1
  46              	.LVL3:
  47              		.loc 1 590 9 view .LVU5
  48 000e 7047     		bx	lr
  49              	.LVL4:
  50              	.L4:
 569:modbus/RTUmodbus_slave.c **** 	switch (reg_addr) /* тѕцТќГт»ётГўтЎетю░тЮђ */
  51              		.loc 1 569 2 view .LVU6
  52 0010 0020     		movs	r0, #0
  53              	.LVL5:
 591:modbus/RTUmodbus_slave.c **** }
  54              		.loc 1 591 1 view .LVU7
  55 0012 7047     		bx	lr
  56              		.cfi_endproc
  57              	.LFE13:
  59              		.section	.text.MODS_SendWithCRC,"ax",%progbits
  60              		.align	1
  61              		.syntax unified
  62              		.thumb
  63              		.thumb_func
  64              		.fpu softvfp
  66              	MODS_SendWithCRC:
  67              	.LVL6:
  68              	.LFB6:
 158:modbus/RTUmodbus_slave.c **** 	uint16_t crc;
  69              		.loc 1 158 1 is_stmt 1 view -0
  70              		.cfi_startproc
  71              		@ args = 0, pretend = 0, frame = 128
  72              		@ frame_needed = 0, uses_anonymous_args = 0
 158:modbus/RTUmodbus_slave.c **** 	uint16_t crc;
  73              		.loc 1 158 1 is_stmt 0 view .LVU9
  74 0000 30B5     		push	{r4, r5, lr}
  75              	.LCFI0:
  76              		.cfi_def_cfa_offset 12
  77              		.cfi_offset 4, -12
  78              		.cfi_offset 5, -8
  79              		.cfi_offset 14, -4
  80 0002 A1B0     		sub	sp, sp, #132
  81              	.LCFI1:
  82              		.cfi_def_cfa_offset 144
  83 0004 0446     		mov	r4, r0
  84 0006 0D46     		mov	r5, r1
 159:modbus/RTUmodbus_slave.c **** 	uint8_t buf[S_TX_BUF_SIZE];
  85              		.loc 1 159 2 is_stmt 1 view .LVU10
 160:modbus/RTUmodbus_slave.c **** 
  86              		.loc 1 160 2 view .LVU11
 162:modbus/RTUmodbus_slave.c **** 	crc = CRC16_Modbus(_pBuf, _ucLen);
  87              		.loc 1 162 2 view .LVU12
  88 0008 0A46     		mov	r2, r1
  89 000a 0146     		mov	r1, r0
  90              	.LVL7:
ARM GAS  /tmp/cciZyHjk.s 			page 13


 162:modbus/RTUmodbus_slave.c **** 	crc = CRC16_Modbus(_pBuf, _ucLen);
  91              		.loc 1 162 2 is_stmt 0 view .LVU13
  92 000c 6846     		mov	r0, sp
  93              	.LVL8:
 162:modbus/RTUmodbus_slave.c **** 	crc = CRC16_Modbus(_pBuf, _ucLen);
  94              		.loc 1 162 2 view .LVU14
  95 000e FFF7FEFF 		bl	memcpy
  96              	.LVL9:
 163:modbus/RTUmodbus_slave.c **** 	buf[_ucLen++] = crc >> 8;
  97              		.loc 1 163 2 is_stmt 1 view .LVU15
 163:modbus/RTUmodbus_slave.c **** 	buf[_ucLen++] = crc >> 8;
  98              		.loc 1 163 8 is_stmt 0 view .LVU16
  99 0012 2946     		mov	r1, r5
 100 0014 2046     		mov	r0, r4
 101 0016 FFF7FEFF 		bl	CRC16_Modbus
 102              	.LVL10:
 164:modbus/RTUmodbus_slave.c **** 	buf[_ucLen++] = crc;
 103              		.loc 1 164 2 is_stmt 1 view .LVU17
 165:modbus/RTUmodbus_slave.c **** 	#warning У┐ЎжЄїжюђУдЂу╗ЎтЄ║СИђСИфтЈЉжђЂуџёТјЦтЈБ
 104              		.loc 1 165 2 view .LVU18
 169:modbus/RTUmodbus_slave.c **** 
 105              		.loc 1 169 1 is_stmt 0 view .LVU19
 106 001a 21B0     		add	sp, sp, #132
 107              	.LCFI2:
 108              		.cfi_def_cfa_offset 12
 109              		@ sp needed
 110 001c 30BD     		pop	{r4, r5, pc}
 169:modbus/RTUmodbus_slave.c **** 
 111              		.loc 1 169 1 view .LVU20
 112              		.cfi_endproc
 113              	.LFE6:
 115              		.section	.text.MODS_SendAckOk,"ax",%progbits
 116              		.align	1
 117              		.syntax unified
 118              		.thumb
 119              		.thumb_func
 120              		.fpu softvfp
 122              	MODS_SendAckOk:
 123              	.LFB8:
 199:modbus/RTUmodbus_slave.c **** 	uint8_t txbuf[6];
 124              		.loc 1 199 1 is_stmt 1 view -0
 125              		.cfi_startproc
 126              		@ args = 0, pretend = 0, frame = 8
 127              		@ frame_needed = 0, uses_anonymous_args = 0
 128 0000 00B5     		push	{lr}
 129              	.LCFI3:
 130              		.cfi_def_cfa_offset 4
 131              		.cfi_offset 14, -4
 132 0002 83B0     		sub	sp, sp, #12
 133              	.LCFI4:
 134              		.cfi_def_cfa_offset 16
 200:modbus/RTUmodbus_slave.c **** 	uint8_t i;
 135              		.loc 1 200 2 view .LVU22
 201:modbus/RTUmodbus_slave.c **** 
 136              		.loc 1 201 2 view .LVU23
 203:modbus/RTUmodbus_slave.c **** 	{
 137              		.loc 1 203 2 view .LVU24
ARM GAS  /tmp/cciZyHjk.s 			page 14


 138              	.LVL11:
 203:modbus/RTUmodbus_slave.c **** 	{
 139              		.loc 1 203 9 is_stmt 0 view .LVU25
 140 0004 0023     		movs	r3, #0
 141              	.LVL12:
 142              	.L8:
 203:modbus/RTUmodbus_slave.c **** 	{
 143              		.loc 1 203 14 is_stmt 1 discriminator 1 view .LVU26
 203:modbus/RTUmodbus_slave.c **** 	{
 144              		.loc 1 203 2 is_stmt 0 discriminator 1 view .LVU27
 145 0006 052B     		cmp	r3, #5
 146 0008 08D8     		bhi	.L11
 205:modbus/RTUmodbus_slave.c **** 	}
 147              		.loc 1 205 3 is_stmt 1 discriminator 3 view .LVU28
 205:modbus/RTUmodbus_slave.c **** 	}
 148              		.loc 1 205 27 is_stmt 0 discriminator 3 view .LVU29
 149 000a 084A     		ldr	r2, .L12
 150 000c D15C     		ldrb	r1, [r2, r3]	@ zero_extendqisi2
 205:modbus/RTUmodbus_slave.c **** 	}
 151              		.loc 1 205 12 discriminator 3 view .LVU30
 152 000e 02AA     		add	r2, sp, #8
 153 0010 1A44     		add	r2, r2, r3
 154 0012 02F8081C 		strb	r1, [r2, #-8]
 203:modbus/RTUmodbus_slave.c **** 	{
 155              		.loc 1 203 21 is_stmt 1 discriminator 3 view .LVU31
 203:modbus/RTUmodbus_slave.c **** 	{
 156              		.loc 1 203 22 is_stmt 0 discriminator 3 view .LVU32
 157 0016 0133     		adds	r3, r3, #1
 158              	.LVL13:
 203:modbus/RTUmodbus_slave.c **** 	{
 159              		.loc 1 203 22 discriminator 3 view .LVU33
 160 0018 DBB2     		uxtb	r3, r3
 161              	.LVL14:
 203:modbus/RTUmodbus_slave.c **** 	{
 162              		.loc 1 203 22 discriminator 3 view .LVU34
 163 001a F4E7     		b	.L8
 164              	.L11:
 207:modbus/RTUmodbus_slave.c **** }
 165              		.loc 1 207 2 is_stmt 1 view .LVU35
 166 001c 0621     		movs	r1, #6
 167 001e 6846     		mov	r0, sp
 168 0020 FFF7FEFF 		bl	MODS_SendWithCRC
 169              	.LVL15:
 208:modbus/RTUmodbus_slave.c **** 
 170              		.loc 1 208 1 is_stmt 0 view .LVU36
 171 0024 03B0     		add	sp, sp, #12
 172              	.LCFI5:
 173              		.cfi_def_cfa_offset 4
 174              		@ sp needed
 175 0026 5DF804FB 		ldr	pc, [sp], #4
 176              	.L13:
 177 002a 00BF     		.align	2
 178              	.L12:
 179 002c 00000000 		.word	g_tModS
 180              		.cfi_endproc
 181              	.LFE8:
 183              		.section	.text.MODS_SendAckErr,"ax",%progbits
ARM GAS  /tmp/cciZyHjk.s 			page 15


 184              		.align	1
 185              		.syntax unified
 186              		.thumb
 187              		.thumb_func
 188              		.fpu softvfp
 190              	MODS_SendAckErr:
 191              	.LVL16:
 192              	.LFB7:
 180:modbus/RTUmodbus_slave.c **** 	uint8_t txbuf[3];
 193              		.loc 1 180 1 is_stmt 1 view -0
 194              		.cfi_startproc
 195              		@ args = 0, pretend = 0, frame = 8
 196              		@ frame_needed = 0, uses_anonymous_args = 0
 180:modbus/RTUmodbus_slave.c **** 	uint8_t txbuf[3];
 197              		.loc 1 180 1 is_stmt 0 view .LVU38
 198 0000 00B5     		push	{lr}
 199              	.LCFI6:
 200              		.cfi_def_cfa_offset 4
 201              		.cfi_offset 14, -4
 202 0002 83B0     		sub	sp, sp, #12
 203              	.LCFI7:
 204              		.cfi_def_cfa_offset 16
 181:modbus/RTUmodbus_slave.c **** 
 205              		.loc 1 181 2 is_stmt 1 view .LVU39
 183:modbus/RTUmodbus_slave.c **** 	txbuf[1] = g_tModS.RxBuf[1] | 0x80; /* т╝ѓтИИуџётіЪУЃйуаЂ */
 206              		.loc 1 183 2 view .LVU40
 183:modbus/RTUmodbus_slave.c **** 	txbuf[1] = g_tModS.RxBuf[1] | 0x80; /* т╝ѓтИИуџётіЪУЃйуаЂ */
 207              		.loc 1 183 26 is_stmt 0 view .LVU41
 208 0004 084B     		ldr	r3, .L16
 209 0006 1A78     		ldrb	r2, [r3]	@ zero_extendqisi2
 183:modbus/RTUmodbus_slave.c **** 	txbuf[1] = g_tModS.RxBuf[1] | 0x80; /* т╝ѓтИИуџётіЪУЃйуаЂ */
 210              		.loc 1 183 11 view .LVU42
 211 0008 8DF80420 		strb	r2, [sp, #4]
 184:modbus/RTUmodbus_slave.c **** 	txbuf[2] = _ucErrCode;				/* жћЎУ»»С╗БуаЂ(01,02,03,04) */
 212              		.loc 1 184 2 is_stmt 1 view .LVU43
 184:modbus/RTUmodbus_slave.c **** 	txbuf[2] = _ucErrCode;				/* жћЎУ»»С╗БуаЂ(01,02,03,04) */
 213              		.loc 1 184 26 is_stmt 0 view .LVU44
 214 000c 5B78     		ldrb	r3, [r3, #1]	@ zero_extendqisi2
 184:modbus/RTUmodbus_slave.c **** 	txbuf[2] = _ucErrCode;				/* жћЎУ»»С╗БуаЂ(01,02,03,04) */
 215              		.loc 1 184 11 view .LVU45
 216 000e 63F07F03 		orn	r3, r3, #127
 217 0012 8DF80530 		strb	r3, [sp, #5]
 185:modbus/RTUmodbus_slave.c **** 
 218              		.loc 1 185 2 is_stmt 1 view .LVU46
 185:modbus/RTUmodbus_slave.c **** 
 219              		.loc 1 185 11 is_stmt 0 view .LVU47
 220 0016 8DF80600 		strb	r0, [sp, #6]
 187:modbus/RTUmodbus_slave.c **** }
 221              		.loc 1 187 2 is_stmt 1 view .LVU48
 222 001a 0321     		movs	r1, #3
 223 001c 01A8     		add	r0, sp, #4
 224              	.LVL17:
 187:modbus/RTUmodbus_slave.c **** }
 225              		.loc 1 187 2 is_stmt 0 view .LVU49
 226 001e FFF7FEFF 		bl	MODS_SendWithCRC
 227              	.LVL18:
 188:modbus/RTUmodbus_slave.c **** 
ARM GAS  /tmp/cciZyHjk.s 			page 16


 228              		.loc 1 188 1 view .LVU50
 229 0022 03B0     		add	sp, sp, #12
 230              	.LCFI8:
 231              		.cfi_def_cfa_offset 4
 232              		@ sp needed
 233 0024 5DF804FB 		ldr	pc, [sp], #4
 234              	.L17:
 235              		.align	2
 236              	.L16:
 237 0028 00000000 		.word	g_tModS
 238              		.cfi_endproc
 239              	.LFE7:
 241              		.section	.text.MODS_05H,"ax",%progbits
 242              		.align	1
 243              		.syntax unified
 244              		.thumb
 245              		.thumb_func
 246              		.fpu softvfp
 248              	MODS_05H:
 249              	.LFB16:
 592:modbus/RTUmodbus_slave.c **** 
 593:modbus/RTUmodbus_slave.c **** /*
 594:modbus/RTUmodbus_slave.c **** ***************************************************************************************************
 595:modbus/RTUmodbus_slave.c **** *	тЄй ТЋ░ тљЇ: MODS_03H
 596:modbus/RTUmodbus_slave.c **** *	тіЪУЃйУ»┤Тўј: У»╗тЈќС┐ЮТїЂт»ётГўтЎе тюеСИђСИфТѕќтцџСИфС┐ЮТїЂт»ётГўтЎеСИГтЈќтЙЌтйЊтЅЇуџёС║їУ┐ЏтѕХт
 597:modbus/RTUmodbus_slave.c **** *	тйб    тЈѓ: ТЌа
 598:modbus/RTUmodbus_slave.c **** *	У┐ћ тЏъ тђ╝: ТЌа
 599:modbus/RTUmodbus_slave.c **** ***************************************************************************************************
 600:modbus/RTUmodbus_slave.c **** */
 601:modbus/RTUmodbus_slave.c **** static void MODS_03H(void)
 602:modbus/RTUmodbus_slave.c **** {
 603:modbus/RTUmodbus_slave.c **** 	/*
 604:modbus/RTUmodbus_slave.c **** 		С╗јТю║тю░тЮђСИ║11HсђѓС┐ЮТїЂт»ётГўтЎеуџёУхитДІтю░тЮђСИ║006BH№╝їу╗ЊТЮЪтю░тЮђСИ║006DHсђѓУ»ЦТгАТЪЦУ»б
 605:modbus/RTUmodbus_slave.c **** 
 606:modbus/RTUmodbus_slave.c **** 		СИ╗Тю║тЈЉжђЂ:
 607:modbus/RTUmodbus_slave.c **** 			11 С╗јТю║тю░тЮђ
 608:modbus/RTUmodbus_slave.c **** 			03 тіЪУЃйуаЂ
 609:modbus/RTUmodbus_slave.c **** 			00 т»ётГўтЎетю░тЮђжФўтГЌУіѓ
 610:modbus/RTUmodbus_slave.c **** 			6B т»ётГўтЎетю░тЮђСйјтГЌУіѓ
 611:modbus/RTUmodbus_slave.c **** 			00 т»ётГўтЎеТЋ░жЄЈжФўтГЌУіѓ
 612:modbus/RTUmodbus_slave.c **** 			03 т»ётГўтЎеТЋ░жЄЈСйјтГЌУіѓ
 613:modbus/RTUmodbus_slave.c **** 			76 CRCжФўтГЌУіѓ
 614:modbus/RTUmodbus_slave.c **** 			87 CRCСйјтГЌУіѓ
 615:modbus/RTUmodbus_slave.c **** 
 616:modbus/RTUmodbus_slave.c **** 		С╗јТю║т║ћуГћ: 	С┐ЮТїЂт»ётГўтЎеуџёжЋ┐т║дСИ║2СИфтГЌУіѓсђѓт»╣С║јтЇЋСИфС┐ЮТїЂт»ётГўтЎеУђїУеђ№╝їт»ётГў
 617:modbus/RTUmodbus_slave.c **** 					СйјтГЌУіѓТЋ░ТЇ«тљјУбФС╝аУЙЊсђѓС┐ЮТїЂт»ётГўтЎеС╣ІжЌ┤№╝їСйјтю░тЮђт»ётГўтЎетЁѕУбФС╝аУЙЊ№╝їжФўтю░т
 618:modbus/RTUmodbus_slave.c **** 			11 С╗јТю║тю░тЮђ
 619:modbus/RTUmodbus_slave.c **** 			03 тіЪУЃйуаЂ
 620:modbus/RTUmodbus_slave.c **** 			06 тГЌУіѓТЋ░
 621:modbus/RTUmodbus_slave.c **** 			00 ТЋ░ТЇ«1жФўтГЌУіѓ(006BH)
 622:modbus/RTUmodbus_slave.c **** 			6B ТЋ░ТЇ«1СйјтГЌУіѓ(006BH)
 623:modbus/RTUmodbus_slave.c **** 			00 ТЋ░ТЇ«2жФўтГЌУіѓ(006CH)
 624:modbus/RTUmodbus_slave.c **** 			13 ТЋ░ТЇ«2 СйјтГЌУіѓ(006CH)
 625:modbus/RTUmodbus_slave.c **** 			00 ТЋ░ТЇ«3жФўтГЌУіѓ(006DH)
 626:modbus/RTUmodbus_slave.c **** 			00 ТЋ░ТЇ«3СйјтГЌУіѓ(006DH)
 627:modbus/RTUmodbus_slave.c **** 			38 CRCжФўтГЌУіѓ
 628:modbus/RTUmodbus_slave.c **** 			B9 CRCСйјтГЌУіѓ
ARM GAS  /tmp/cciZyHjk.s 			page 17


 629:modbus/RTUmodbus_slave.c **** 
 630:modbus/RTUmodbus_slave.c **** 		СЙІтГљ:
 631:modbus/RTUmodbus_slave.c **** 			01 03 30 06 00 01  6B0B      ---- У»╗ 3006H, УДдтЈЉућхТхЂ
 632:modbus/RTUmodbus_slave.c **** 			01 03 4000 0010 51C6         ---- У»╗ 4000H тђњТЋ░угг1ТЮАТхфТХїУ«░тйЋ 32тГЌУіѓ
 633:modbus/RTUmodbus_slave.c **** 			01 03 4001 0010 0006         ---- У»╗ 4001H тђњТЋ░угг1ТЮАТхфТХїУ«░тйЋ 32тГЌУіѓ
 634:modbus/RTUmodbus_slave.c **** 
 635:modbus/RTUmodbus_slave.c **** 			01 03 F000 0008 770C         ---- У»╗ F000H тђњТЋ░угг1ТЮАтЉіУГдУ«░тйЋ 16тГЌУіѓ
 636:modbus/RTUmodbus_slave.c **** 			01 03 F001 0008 26CC         ---- У»╗ F001H тђњТЋ░угг2ТЮАтЉіУГдУ«░тйЋ 16тГЌУіѓ
 637:modbus/RTUmodbus_slave.c **** 
 638:modbus/RTUmodbus_slave.c **** 			01 03 7000 0020 5ED2         ---- У»╗ 7000H тђњТЋ░угг1ТЮАТ│бтйбУ«░тйЋугг1Т«х 64тГЌУіѓ
 639:modbus/RTUmodbus_slave.c **** 			01 03 7001 0020 0F12         ---- У»╗ 7001H тђњТЋ░угг1ТЮАТ│бтйбУ«░тйЋугг2Т«х 64тГЌУіѓ
 640:modbus/RTUmodbus_slave.c **** 
 641:modbus/RTUmodbus_slave.c **** 			01 03 7040 0020 5F06         ---- У»╗ 7040H тђњТЋ░угг2ТЮАТ│бтйбУ«░тйЋугг1Т«х 64тГЌУіѓ
 642:modbus/RTUmodbus_slave.c **** 	*/
 643:modbus/RTUmodbus_slave.c **** 	uint16_t reg = 0x00;
 644:modbus/RTUmodbus_slave.c **** 	uint16_t num = 0x00;
 645:modbus/RTUmodbus_slave.c **** 	uint16_t i = 0x00;
 646:modbus/RTUmodbus_slave.c **** 	uint8_t reg_value[64];
 647:modbus/RTUmodbus_slave.c **** 
 648:modbus/RTUmodbus_slave.c **** 	g_tModS.RspCode = RSP_OK;
 649:modbus/RTUmodbus_slave.c **** 
 650:modbus/RTUmodbus_slave.c **** 	if (g_tModS.RxCount != 8) /* 03HтЉйС╗цт┐ЁжА╗Тў»8СИфтГЌУіѓ */
 651:modbus/RTUmodbus_slave.c **** 	{
 652:modbus/RTUmodbus_slave.c **** 		g_tModS.RspCode = RSP_ERR_VALUE; /* ТЋ░ТЇ«тђ╝тЪЪжћЎУ»» */
 653:modbus/RTUmodbus_slave.c **** 		goto err_ret;
 654:modbus/RTUmodbus_slave.c **** 	}
 655:modbus/RTUmodbus_slave.c **** 
 656:modbus/RTUmodbus_slave.c **** 	reg = BEBufToUint16(&g_tModS.RxBuf[2]); /* т»ётГўтЎетЈи */
 657:modbus/RTUmodbus_slave.c **** 	num = BEBufToUint16(&g_tModS.RxBuf[4]); /* т»ётГўтЎеСИфТЋ░ */
 658:modbus/RTUmodbus_slave.c **** 	if (num > sizeof(reg_value) / 2)
 659:modbus/RTUmodbus_slave.c **** 	{
 660:modbus/RTUmodbus_slave.c **** 		g_tModS.RspCode = RSP_ERR_VALUE; /* ТЋ░ТЇ«тђ╝тЪЪжћЎУ»» */
 661:modbus/RTUmodbus_slave.c **** 		goto err_ret;
 662:modbus/RTUmodbus_slave.c **** 	}
 663:modbus/RTUmodbus_slave.c **** 
 664:modbus/RTUmodbus_slave.c **** 	for (i = 0; i < num; i++)
 665:modbus/RTUmodbus_slave.c **** 	{
 666:modbus/RTUmodbus_slave.c **** 		if (MODS_ReadRegValue(reg, &reg_value[2 * i]) == 0) /* У»╗тЄ║т»ётГўтЎетђ╝ТћЙтЁЦreg_value */
 667:modbus/RTUmodbus_slave.c **** 		{
 668:modbus/RTUmodbus_slave.c **** 			g_tModS.RspCode = RSP_ERR_REG_ADDR; /* т»ётГўтЎетю░тЮђжћЎУ»» */
 669:modbus/RTUmodbus_slave.c **** 			break;
 670:modbus/RTUmodbus_slave.c **** 		}
 671:modbus/RTUmodbus_slave.c **** 		// NRF_LOG_INFO("reg_value = %x%x", reg_value[2*i],reg_value[2*i+1]);
 672:modbus/RTUmodbus_slave.c **** 		reg++;
 673:modbus/RTUmodbus_slave.c **** 	}
 674:modbus/RTUmodbus_slave.c **** 
 675:modbus/RTUmodbus_slave.c **** err_ret:
 676:modbus/RTUmodbus_slave.c **** 	if (g_tModS.RspCode == RSP_OK) /* ТГБуА«т║ћуГћ */
 677:modbus/RTUmodbus_slave.c **** 	{
 678:modbus/RTUmodbus_slave.c **** 		g_tModS.TxCount = 0;
 679:modbus/RTUmodbus_slave.c **** 		g_tModS.TxBuf[g_tModS.TxCount++] = g_tModS.RxBuf[0];
 680:modbus/RTUmodbus_slave.c **** 		g_tModS.TxBuf[g_tModS.TxCount++] = g_tModS.RxBuf[1];
 681:modbus/RTUmodbus_slave.c **** 		g_tModS.TxBuf[g_tModS.TxCount++] = num * 2; /* У┐ћтЏътГЌУіѓТЋ░ */
 682:modbus/RTUmodbus_slave.c **** 
 683:modbus/RTUmodbus_slave.c **** 		for (i = 0; i < num; i++)
 684:modbus/RTUmodbus_slave.c **** 		{
 685:modbus/RTUmodbus_slave.c **** 			g_tModS.TxBuf[g_tModS.TxCount++] = reg_value[2 * i];
ARM GAS  /tmp/cciZyHjk.s 			page 18


 686:modbus/RTUmodbus_slave.c **** 			g_tModS.TxBuf[g_tModS.TxCount++] = reg_value[2 * i + 1];
 687:modbus/RTUmodbus_slave.c **** 		}
 688:modbus/RTUmodbus_slave.c **** 		MODS_SendWithCRC(g_tModS.TxBuf, g_tModS.TxCount); /* тЈЉжђЂТГБуА«т║ћуГћ */
 689:modbus/RTUmodbus_slave.c **** 	}
 690:modbus/RTUmodbus_slave.c **** 	else
 691:modbus/RTUmodbus_slave.c **** 	{
 692:modbus/RTUmodbus_slave.c **** 		MODS_SendAckErr(g_tModS.RspCode); /* тЈЉжђЂжћЎУ»»т║ћуГћ */
 693:modbus/RTUmodbus_slave.c **** 	}
 694:modbus/RTUmodbus_slave.c **** }
 695:modbus/RTUmodbus_slave.c **** 
 696:modbus/RTUmodbus_slave.c **** /*
 697:modbus/RTUmodbus_slave.c **** ***************************************************************************************************
 698:modbus/RTUmodbus_slave.c **** *	тЄй ТЋ░ тљЇ: MODS_04H
 699:modbus/RTUmodbus_slave.c **** *	тіЪУЃйУ»┤Тўј: У»╗тЈќУЙЊтЁЦт»ётГўтЎе№╝ѕт»╣т║ћA01/A02№╝Ѕ SMA
 700:modbus/RTUmodbus_slave.c **** *	тйб    тЈѓ: ТЌа
 701:modbus/RTUmodbus_slave.c **** *	У┐ћ тЏъ тђ╝: ТЌа
 702:modbus/RTUmodbus_slave.c **** ***************************************************************************************************
 703:modbus/RTUmodbus_slave.c **** */
 704:modbus/RTUmodbus_slave.c **** static void MODS_04H(void)
 705:modbus/RTUmodbus_slave.c **** {
 706:modbus/RTUmodbus_slave.c **** 	/*
 707:modbus/RTUmodbus_slave.c **** 		СИ╗Тю║тЈЉжђЂ:
 708:modbus/RTUmodbus_slave.c **** 			11 С╗јТю║тю░тЮђ
 709:modbus/RTUmodbus_slave.c **** 			04 тіЪУЃйуаЂ
 710:modbus/RTUmodbus_slave.c **** 			00 т»ётГўтЎеУхитДІтю░тЮђжФўтГЌУіѓ
 711:modbus/RTUmodbus_slave.c **** 			08 т»ётГўтЎеУхитДІтю░тЮђСйјтГЌУіѓ
 712:modbus/RTUmodbus_slave.c **** 			00 т»ётГўтЎеСИфТЋ░жФўтГЌУіѓ
 713:modbus/RTUmodbus_slave.c **** 			02 т»ётГўтЎеСИфТЋ░СйјтГЌУіѓ
 714:modbus/RTUmodbus_slave.c **** 			F2 CRCжФўтГЌУіѓ
 715:modbus/RTUmodbus_slave.c **** 			99 CRCСйјтГЌУіѓ
 716:modbus/RTUmodbus_slave.c **** 
 717:modbus/RTUmodbus_slave.c **** 		С╗јТю║т║ћуГћ:  УЙЊтЁЦт»ётГўтЎежЋ┐т║дСИ║2СИфтГЌУіѓсђѓт»╣С║јтЇЋСИфУЙЊтЁЦт»ётГўтЎеУђїУеђ№╝їт»ётГўтЎе
 718:modbus/RTUmodbus_slave.c **** 				СйјтГЌУіѓТЋ░ТЇ«тљјУбФС╝аУЙЊсђѓУЙЊтЁЦт»ётГўтЎеС╣ІжЌ┤№╝їСйјтю░тЮђт»ётГўтЎетЁѕУбФС╝аУЙЊ№╝їжФўтю░тЮ
 719:modbus/RTUmodbus_slave.c **** 			11 С╗јТю║тю░тЮђ
 720:modbus/RTUmodbus_slave.c **** 			04 тіЪУЃйуаЂ
 721:modbus/RTUmodbus_slave.c **** 			04 тГЌУіѓТЋ░
 722:modbus/RTUmodbus_slave.c **** 			00 ТЋ░ТЇ«1жФўтГЌУіѓ(0008H)
 723:modbus/RTUmodbus_slave.c **** 			0A ТЋ░ТЇ«1СйјтГЌУіѓ(0008H)
 724:modbus/RTUmodbus_slave.c **** 			00 ТЋ░ТЇ«2жФўтГЌУіѓ(0009H)
 725:modbus/RTUmodbus_slave.c **** 			0B ТЋ░ТЇ«2СйјтГЌУіѓ(0009H)
 726:modbus/RTUmodbus_slave.c **** 			8B CRCжФўтГЌУіѓ
 727:modbus/RTUmodbus_slave.c **** 			80 CRCСйјтГЌУіѓ
 728:modbus/RTUmodbus_slave.c **** 
 729:modbus/RTUmodbus_slave.c **** 		СЙІтГљ:
 730:modbus/RTUmodbus_slave.c **** 
 731:modbus/RTUmodbus_slave.c **** 			01 04 2201 0006 2BB0  --- У»╗ 2201H A01жђџжЂЊТеАТІЪжЄЈ т╝ђтДІуџё6СИфТЋ░ТЇ«
 732:modbus/RTUmodbus_slave.c **** 			01 04 2201 0001 6A72  --- У»╗ 2201H
 733:modbus/RTUmodbus_slave.c **** 
 734:modbus/RTUmodbus_slave.c **** 	*/
 735:modbus/RTUmodbus_slave.c **** 	uint16_t reg;
 736:modbus/RTUmodbus_slave.c **** 	uint16_t num;
 737:modbus/RTUmodbus_slave.c **** 	uint16_t i;
 738:modbus/RTUmodbus_slave.c **** 	uint16_t status[10];
 739:modbus/RTUmodbus_slave.c **** 
 740:modbus/RTUmodbus_slave.c **** 	memset(status, 0, 10);
 741:modbus/RTUmodbus_slave.c **** 
 742:modbus/RTUmodbus_slave.c **** 	g_tModS.RspCode = RSP_OK;
ARM GAS  /tmp/cciZyHjk.s 			page 19


 743:modbus/RTUmodbus_slave.c **** 
 744:modbus/RTUmodbus_slave.c **** 	if (g_tModS.RxCount != 8)
 745:modbus/RTUmodbus_slave.c **** 	{
 746:modbus/RTUmodbus_slave.c **** 		g_tModS.RspCode = RSP_ERR_VALUE; /* ТЋ░ТЇ«тђ╝тЪЪжћЎУ»» */
 747:modbus/RTUmodbus_slave.c **** 		goto err_ret;
 748:modbus/RTUmodbus_slave.c **** 	}
 749:modbus/RTUmodbus_slave.c **** 
 750:modbus/RTUmodbus_slave.c **** 	reg = BEBufToUint16(&g_tModS.RxBuf[2]); /* т»ётГўтЎетЈи */
 751:modbus/RTUmodbus_slave.c **** 	num = BEBufToUint16(&g_tModS.RxBuf[4]); /* т»ётГўтЎеСИфТЋ░ */
 752:modbus/RTUmodbus_slave.c **** 
 753:modbus/RTUmodbus_slave.c **** 	if ((reg >= REG_A01) && (num > 0) && (reg + num <= REG_AXX + 1))
 754:modbus/RTUmodbus_slave.c **** 	{
 755:modbus/RTUmodbus_slave.c **** 		for (i = 0; i < num; i++)
 756:modbus/RTUmodbus_slave.c **** 		{
 757:modbus/RTUmodbus_slave.c **** 			switch (reg)
 758:modbus/RTUmodbus_slave.c **** 			{
 759:modbus/RTUmodbus_slave.c **** 			/* ТхІУ»ЋтЈѓТЋ░ */
 760:modbus/RTUmodbus_slave.c **** 			case REG_A01:
 761:modbus/RTUmodbus_slave.c **** 				break;
 762:modbus/RTUmodbus_slave.c **** 
 763:modbus/RTUmodbus_slave.c **** 			default:
 764:modbus/RTUmodbus_slave.c **** 				status[i] = 0;
 765:modbus/RTUmodbus_slave.c **** 				break;
 766:modbus/RTUmodbus_slave.c **** 			}
 767:modbus/RTUmodbus_slave.c **** 			reg++;
 768:modbus/RTUmodbus_slave.c **** 		}
 769:modbus/RTUmodbus_slave.c **** 	}
 770:modbus/RTUmodbus_slave.c **** 	else
 771:modbus/RTUmodbus_slave.c **** 	{
 772:modbus/RTUmodbus_slave.c **** 		g_tModS.RspCode = RSP_ERR_REG_ADDR; /* т»ётГўтЎетю░тЮђжћЎУ»» */
 773:modbus/RTUmodbus_slave.c **** 	}
 774:modbus/RTUmodbus_slave.c **** 
 775:modbus/RTUmodbus_slave.c **** err_ret:
 776:modbus/RTUmodbus_slave.c **** 	if (g_tModS.RspCode == RSP_OK) /* ТГБуА«т║ћуГћ */
 777:modbus/RTUmodbus_slave.c **** 	{
 778:modbus/RTUmodbus_slave.c **** 		g_tModS.TxCount = 0;
 779:modbus/RTUmodbus_slave.c **** 		g_tModS.TxBuf[g_tModS.TxCount++] = g_tModS.RxBuf[0];
 780:modbus/RTUmodbus_slave.c **** 		g_tModS.TxBuf[g_tModS.TxCount++] = g_tModS.RxBuf[1];
 781:modbus/RTUmodbus_slave.c **** 		g_tModS.TxBuf[g_tModS.TxCount++] = num * 2; /* У┐ћтЏътГЌУіѓТЋ░ */
 782:modbus/RTUmodbus_slave.c **** 
 783:modbus/RTUmodbus_slave.c **** 		for (i = 0; i < num; i++)
 784:modbus/RTUmodbus_slave.c **** 		{
 785:modbus/RTUmodbus_slave.c **** 			g_tModS.TxBuf[g_tModS.TxCount++] = status[i] >> 8;
 786:modbus/RTUmodbus_slave.c **** 			g_tModS.TxBuf[g_tModS.TxCount++] = status[i] & 0xFF;
 787:modbus/RTUmodbus_slave.c **** 		}
 788:modbus/RTUmodbus_slave.c **** 		MODS_SendWithCRC(g_tModS.TxBuf, g_tModS.TxCount);
 789:modbus/RTUmodbus_slave.c **** 	}
 790:modbus/RTUmodbus_slave.c **** 	else
 791:modbus/RTUmodbus_slave.c **** 	{
 792:modbus/RTUmodbus_slave.c **** 		MODS_SendAckErr(g_tModS.RspCode); /* тЉіУ»ЅСИ╗Тю║тЉйС╗цжћЎУ»» */
 793:modbus/RTUmodbus_slave.c **** 	}
 794:modbus/RTUmodbus_slave.c **** }
 795:modbus/RTUmodbus_slave.c **** 
 796:modbus/RTUmodbus_slave.c **** /*
 797:modbus/RTUmodbus_slave.c **** ***************************************************************************************************
 798:modbus/RTUmodbus_slave.c **** *	тЄй ТЋ░ тљЇ: MODS_05H
 799:modbus/RTUmodbus_slave.c **** *	тіЪУЃйУ»┤Тўј: т╝║тѕХтЇЋу║┐тюѕ№╝ѕт»╣т║ћD01/D02/D03№╝Ѕ
ARM GAS  /tmp/cciZyHjk.s 			page 20


 800:modbus/RTUmodbus_slave.c **** *	тйб    тЈѓ: ТЌа
 801:modbus/RTUmodbus_slave.c **** *	У┐ћ тЏъ тђ╝: ТЌа
 802:modbus/RTUmodbus_slave.c **** ***************************************************************************************************
 803:modbus/RTUmodbus_slave.c **** */
 804:modbus/RTUmodbus_slave.c **** static void MODS_05H(void)
 805:modbus/RTUmodbus_slave.c **** {
 250              		.loc 1 805 1 is_stmt 1 view -0
 251              		.cfi_startproc
 252              		@ args = 0, pretend = 0, frame = 0
 253              		@ frame_needed = 0, uses_anonymous_args = 0
 254 0000 38B5     		push	{r3, r4, r5, lr}
 255              	.LCFI9:
 256              		.cfi_def_cfa_offset 16
 257              		.cfi_offset 3, -16
 258              		.cfi_offset 4, -12
 259              		.cfi_offset 5, -8
 260              		.cfi_offset 14, -4
 806:modbus/RTUmodbus_slave.c **** 	/*
 807:modbus/RTUmodbus_slave.c **** 		СИ╗Тю║тЈЉжђЂ: тєЎтЇЋСИфу║┐тюѕт»ётГўтЎесђѓFF00Hтђ╝У»иТ▒ѓу║┐тюѕтцёС║јONуіХТђЂ№╝ї0000Hтђ╝У»иТ▒ѓу║┐тю
 808:modbus/RTUmodbus_slave.c **** 		сђѓ05HТїЄС╗цУ«Йуй«тЇЋСИфу║┐тюѕуџёуіХТђЂ№╝ї15HТїЄС╗цтЈ»С╗ЦУ«Йуй«тцџСИфу║┐тюѕуџёуіХТђЂсђѓ
 809:modbus/RTUmodbus_slave.c **** 			11 С╗јТю║тю░тЮђ
 810:modbus/RTUmodbus_slave.c **** 			05 тіЪУЃйуаЂ
 811:modbus/RTUmodbus_slave.c **** 			00 т»ётГўтЎетю░тЮђжФўтГЌУіѓ
 812:modbus/RTUmodbus_slave.c **** 			AC т»ётГўтЎетю░тЮђСйјтГЌУіѓ
 813:modbus/RTUmodbus_slave.c **** 			FF ТЋ░ТЇ«1жФўтГЌУіѓ
 814:modbus/RTUmodbus_slave.c **** 			00 ТЋ░ТЇ«2СйјтГЌУіѓ
 815:modbus/RTUmodbus_slave.c **** 			4E CRCТаАжфїжФўтГЌУіѓ
 816:modbus/RTUmodbus_slave.c **** 			8B CRCТаАжфїСйјтГЌУіѓ
 817:modbus/RTUmodbus_slave.c **** 
 818:modbus/RTUmodbus_slave.c **** 		С╗јТю║т║ћуГћ:
 819:modbus/RTUmodbus_slave.c **** 			11 С╗јТю║тю░тЮђ
 820:modbus/RTUmodbus_slave.c **** 			05 тіЪУЃйуаЂ
 821:modbus/RTUmodbus_slave.c **** 			00 т»ётГўтЎетю░тЮђжФўтГЌУіѓ
 822:modbus/RTUmodbus_slave.c **** 			AC т»ётГўтЎетю░тЮђСйјтГЌУіѓ
 823:modbus/RTUmodbus_slave.c **** 			FF т»ётГўтЎе1жФўтГЌУіѓ
 824:modbus/RTUmodbus_slave.c **** 			00 т»ётГўтЎе1СйјтГЌУіѓ
 825:modbus/RTUmodbus_slave.c **** 			4E CRCТаАжфїжФўтГЌУіѓ
 826:modbus/RTUmodbus_slave.c **** 			8B CRCТаАжфїСйјтГЌУіѓ
 827:modbus/RTUmodbus_slave.c **** 
 828:modbus/RTUmodbus_slave.c **** 		СЙІтГљ:
 829:modbus/RTUmodbus_slave.c **** 		01 05 10 01 FF 00   D93A   -- D01ТЅЊт╝ђ
 830:modbus/RTUmodbus_slave.c **** 		01 05 10 01 00 00   98CA   -- D01тЁ│жЌГ
 831:modbus/RTUmodbus_slave.c **** 
 832:modbus/RTUmodbus_slave.c **** 		01 05 10 02 FF 00   293A   -- D02ТЅЊт╝ђ
 833:modbus/RTUmodbus_slave.c **** 		01 05 10 02 00 00   68CA   -- D02тЁ│жЌГ
 834:modbus/RTUmodbus_slave.c **** 
 835:modbus/RTUmodbus_slave.c **** 		01 05 10 03 FF 00   78FA   -- D03ТЅЊт╝ђ
 836:modbus/RTUmodbus_slave.c **** 		01 05 10 03 00 00   390A   -- D03тЁ│жЌГ
 837:modbus/RTUmodbus_slave.c **** 	*/
 838:modbus/RTUmodbus_slave.c **** 	uint16_t reg;
 261              		.loc 1 838 2 view .LVU52
 839:modbus/RTUmodbus_slave.c **** 	uint16_t value;
 262              		.loc 1 839 2 view .LVU53
 840:modbus/RTUmodbus_slave.c **** 
 841:modbus/RTUmodbus_slave.c **** 	g_tModS.RspCode = RSP_OK;
 263              		.loc 1 841 2 view .LVU54
 264              		.loc 1 841 18 is_stmt 0 view .LVU55
ARM GAS  /tmp/cciZyHjk.s 			page 21


 265 0002 1B4B     		ldr	r3, .L26
 266 0004 0022     		movs	r2, #0
 267 0006 83F82120 		strb	r2, [r3, #33]
 842:modbus/RTUmodbus_slave.c **** 
 843:modbus/RTUmodbus_slave.c **** 	if (g_tModS.RxCount != 8)
 268              		.loc 1 843 2 is_stmt 1 view .LVU56
 269              		.loc 1 843 13 is_stmt 0 view .LVU57
 270 000a 9B7F     		ldrb	r3, [r3, #30]	@ zero_extendqisi2
 271              		.loc 1 843 5 view .LVU58
 272 000c 082B     		cmp	r3, #8
 273 000e 0AD0     		beq	.L19
 844:modbus/RTUmodbus_slave.c **** 	{
 845:modbus/RTUmodbus_slave.c **** 		g_tModS.RspCode = RSP_ERR_VALUE; /* ТЋ░ТЇ«тђ╝тЪЪжћЎУ»» */
 274              		.loc 1 845 3 is_stmt 1 view .LVU59
 275              		.loc 1 845 19 is_stmt 0 view .LVU60
 276 0010 174B     		ldr	r3, .L26
 277 0012 0322     		movs	r2, #3
 278 0014 83F82120 		strb	r2, [r3, #33]
 846:modbus/RTUmodbus_slave.c **** 		goto err_ret;
 279              		.loc 1 846 3 is_stmt 1 view .LVU61
 280              	.L20:
 847:modbus/RTUmodbus_slave.c **** 	}
 848:modbus/RTUmodbus_slave.c **** 
 849:modbus/RTUmodbus_slave.c **** 	reg = BEBufToUint16(&g_tModS.RxBuf[2]);	  /* т»ётГўтЎетЈи */
 850:modbus/RTUmodbus_slave.c **** 	value = BEBufToUint16(&g_tModS.RxBuf[4]); /* ТЋ░ТЇ« */
 851:modbus/RTUmodbus_slave.c **** 
 852:modbus/RTUmodbus_slave.c **** 	if (value != 0 && value != 1)
 853:modbus/RTUmodbus_slave.c **** 	{
 854:modbus/RTUmodbus_slave.c **** 		g_tModS.RspCode = RSP_ERR_VALUE; /* ТЋ░ТЇ«тђ╝тЪЪжћЎУ»» */
 855:modbus/RTUmodbus_slave.c **** 		goto err_ret;
 856:modbus/RTUmodbus_slave.c **** 	}
 857:modbus/RTUmodbus_slave.c **** 
 858:modbus/RTUmodbus_slave.c **** 	if (reg == REG_D01)
 859:modbus/RTUmodbus_slave.c **** 	{
 860:modbus/RTUmodbus_slave.c **** 	}
 861:modbus/RTUmodbus_slave.c **** 	else if (reg == REG_D02)
 862:modbus/RTUmodbus_slave.c **** 	{
 863:modbus/RTUmodbus_slave.c **** 	}
 864:modbus/RTUmodbus_slave.c **** 	else if (reg == REG_D03)
 865:modbus/RTUmodbus_slave.c **** 	{
 866:modbus/RTUmodbus_slave.c **** 	}
 867:modbus/RTUmodbus_slave.c **** 	else if (reg == REG_D04)
 868:modbus/RTUmodbus_slave.c **** 	{
 869:modbus/RTUmodbus_slave.c **** 	}
 870:modbus/RTUmodbus_slave.c **** 	else
 871:modbus/RTUmodbus_slave.c **** 	{
 872:modbus/RTUmodbus_slave.c **** 		g_tModS.RspCode = RSP_ERR_REG_ADDR; /* т»ётГўтЎетю░тЮђжћЎУ»» */
 873:modbus/RTUmodbus_slave.c **** 	}
 874:modbus/RTUmodbus_slave.c **** err_ret:
 875:modbus/RTUmodbus_slave.c **** 	if (g_tModS.RspCode == RSP_OK) /* ТГБуА«т║ћуГћ */
 281              		.loc 1 875 2 view .LVU62
 282              		.loc 1 875 13 is_stmt 0 view .LVU63
 283 0018 154B     		ldr	r3, .L26
 284 001a 93F82100 		ldrb	r0, [r3, #33]	@ zero_extendqisi2
 285              		.loc 1 875 5 view .LVU64
 286 001e 20BB     		cbnz	r0, .L22
 876:modbus/RTUmodbus_slave.c **** 	{
ARM GAS  /tmp/cciZyHjk.s 			page 22


 877:modbus/RTUmodbus_slave.c **** 		MODS_SendAckOk();
 287              		.loc 1 877 3 is_stmt 1 view .LVU65
 288 0020 FFF7FEFF 		bl	MODS_SendAckOk
 289              	.LVL19:
 290              	.L18:
 878:modbus/RTUmodbus_slave.c **** 	}
 879:modbus/RTUmodbus_slave.c **** 	else
 880:modbus/RTUmodbus_slave.c **** 	{
 881:modbus/RTUmodbus_slave.c **** 		MODS_SendAckErr(g_tModS.RspCode); /* тЉіУ»ЅСИ╗Тю║тЉйС╗цжћЎУ»» */
 882:modbus/RTUmodbus_slave.c **** 	}
 883:modbus/RTUmodbus_slave.c **** }
 291              		.loc 1 883 1 is_stmt 0 view .LVU66
 292 0024 38BD     		pop	{r3, r4, r5, pc}
 293              	.L19:
 849:modbus/RTUmodbus_slave.c **** 	value = BEBufToUint16(&g_tModS.RxBuf[4]); /* ТЋ░ТЇ« */
 294              		.loc 1 849 2 is_stmt 1 view .LVU67
 849:modbus/RTUmodbus_slave.c **** 	value = BEBufToUint16(&g_tModS.RxBuf[4]); /* ТЋ░ТЇ« */
 295              		.loc 1 849 8 is_stmt 0 view .LVU68
 296 0026 134D     		ldr	r5, .L26+4
 297 0028 2846     		mov	r0, r5
 298 002a FFF7FEFF 		bl	BEBufToUint16
 299              	.LVL20:
 300 002e 0446     		mov	r4, r0
 301              	.LVL21:
 850:modbus/RTUmodbus_slave.c **** 
 302              		.loc 1 850 2 is_stmt 1 view .LVU69
 850:modbus/RTUmodbus_slave.c **** 
 303              		.loc 1 850 10 is_stmt 0 view .LVU70
 304 0030 A81C     		adds	r0, r5, #2
 305 0032 FFF7FEFF 		bl	BEBufToUint16
 306              	.LVL22:
 852:modbus/RTUmodbus_slave.c **** 	{
 307              		.loc 1 852 2 is_stmt 1 view .LVU71
 852:modbus/RTUmodbus_slave.c **** 	{
 308              		.loc 1 852 5 is_stmt 0 view .LVU72
 309 0036 0128     		cmp	r0, #1
 310 0038 12D8     		bhi	.L25
 858:modbus/RTUmodbus_slave.c **** 	{
 311              		.loc 1 858 2 is_stmt 1 view .LVU73
 858:modbus/RTUmodbus_slave.c **** 	{
 312              		.loc 1 858 5 is_stmt 0 view .LVU74
 313 003a 40F20113 		movw	r3, #257
 314 003e 9C42     		cmp	r4, r3
 315 0040 EAD0     		beq	.L20
 861:modbus/RTUmodbus_slave.c **** 	{
 316              		.loc 1 861 7 is_stmt 1 view .LVU75
 861:modbus/RTUmodbus_slave.c **** 	{
 317              		.loc 1 861 10 is_stmt 0 view .LVU76
 318 0042 B4F5817F 		cmp	r4, #258
 319 0046 E7D0     		beq	.L20
 864:modbus/RTUmodbus_slave.c **** 	{
 320              		.loc 1 864 7 is_stmt 1 view .LVU77
 864:modbus/RTUmodbus_slave.c **** 	{
 321              		.loc 1 864 10 is_stmt 0 view .LVU78
 322 0048 40F20313 		movw	r3, #259
 323 004c 9C42     		cmp	r4, r3
 324 004e E3D0     		beq	.L20
ARM GAS  /tmp/cciZyHjk.s 			page 23


 867:modbus/RTUmodbus_slave.c **** 	{
 325              		.loc 1 867 7 is_stmt 1 view .LVU79
 867:modbus/RTUmodbus_slave.c **** 	{
 326              		.loc 1 867 10 is_stmt 0 view .LVU80
 327 0050 B4F5827F 		cmp	r4, #260
 328 0054 E0D0     		beq	.L20
 872:modbus/RTUmodbus_slave.c **** 	}
 329              		.loc 1 872 3 is_stmt 1 view .LVU81
 872:modbus/RTUmodbus_slave.c **** 	}
 330              		.loc 1 872 19 is_stmt 0 view .LVU82
 331 0056 064B     		ldr	r3, .L26
 332 0058 0222     		movs	r2, #2
 333 005a 83F82120 		strb	r2, [r3, #33]
 334 005e DBE7     		b	.L20
 335              	.L25:
 854:modbus/RTUmodbus_slave.c **** 		goto err_ret;
 336              		.loc 1 854 3 is_stmt 1 view .LVU83
 854:modbus/RTUmodbus_slave.c **** 		goto err_ret;
 337              		.loc 1 854 19 is_stmt 0 view .LVU84
 338 0060 AB1E     		subs	r3, r5, #2
 339 0062 0322     		movs	r2, #3
 340 0064 83F82120 		strb	r2, [r3, #33]
 855:modbus/RTUmodbus_slave.c **** 	}
 341              		.loc 1 855 3 is_stmt 1 view .LVU85
 342 0068 D6E7     		b	.L20
 343              	.LVL23:
 344              	.L22:
 881:modbus/RTUmodbus_slave.c **** 	}
 345              		.loc 1 881 3 view .LVU86
 346 006a FFF7FEFF 		bl	MODS_SendAckErr
 347              	.LVL24:
 348              		.loc 1 883 1 is_stmt 0 view .LVU87
 349 006e D9E7     		b	.L18
 350              	.L27:
 351              		.align	2
 352              	.L26:
 353 0070 00000000 		.word	g_tModS
 354 0074 02000000 		.word	g_tModS+2
 355              		.cfi_endproc
 356              	.LFE16:
 358              		.section	.text.MODS_06H,"ax",%progbits
 359              		.align	1
 360              		.syntax unified
 361              		.thumb
 362              		.thumb_func
 363              		.fpu softvfp
 365              	MODS_06H:
 366              	.LFB17:
 884:modbus/RTUmodbus_slave.c **** 
 885:modbus/RTUmodbus_slave.c **** /*
 886:modbus/RTUmodbus_slave.c **** ***************************************************************************************************
 887:modbus/RTUmodbus_slave.c **** *	тЄй ТЋ░ тљЇ: MODS_06H
 888:modbus/RTUmodbus_slave.c **** *	тіЪУЃйУ»┤Тўј: тєЎтЇЋСИфт»ётГўтЎе
 889:modbus/RTUmodbus_slave.c **** *	тйб    тЈѓ: ТЌа
 890:modbus/RTUmodbus_slave.c **** *	У┐ћ тЏъ тђ╝: ТЌа
 891:modbus/RTUmodbus_slave.c **** ***************************************************************************************************
 892:modbus/RTUmodbus_slave.c **** */
ARM GAS  /tmp/cciZyHjk.s 			page 24


 893:modbus/RTUmodbus_slave.c **** static void MODS_06H(void)
 894:modbus/RTUmodbus_slave.c **** {
 367              		.loc 1 894 1 is_stmt 1 view -0
 368              		.cfi_startproc
 369              		@ args = 0, pretend = 0, frame = 0
 370              		@ frame_needed = 0, uses_anonymous_args = 0
 371 0000 38B5     		push	{r3, r4, r5, lr}
 372              	.LCFI10:
 373              		.cfi_def_cfa_offset 16
 374              		.cfi_offset 3, -16
 375              		.cfi_offset 4, -12
 376              		.cfi_offset 5, -8
 377              		.cfi_offset 14, -4
 895:modbus/RTUmodbus_slave.c **** 
 896:modbus/RTUmodbus_slave.c **** 	/*
 897:modbus/RTUmodbus_slave.c **** 		тєЎС┐ЮТїЂт»ётГўтЎесђѓТ│еТёЈ06ТїЄС╗цтЈфУЃйТЊЇСйютЇЋСИфС┐ЮТїЂт»ётГўтЎе№╝ї16ТїЄС╗цтЈ»С╗ЦУ«Йуй«тЇЋСИф
 898:modbus/RTUmodbus_slave.c **** 
 899:modbus/RTUmodbus_slave.c **** 		СИ╗Тю║тЈЉжђЂ:
 900:modbus/RTUmodbus_slave.c **** 			11 С╗јТю║тю░тЮђ
 901:modbus/RTUmodbus_slave.c **** 			06 тіЪУЃйуаЂ
 902:modbus/RTUmodbus_slave.c **** 			00 т»ётГўтЎетю░тЮђжФўтГЌУіѓ
 903:modbus/RTUmodbus_slave.c **** 			01 т»ётГўтЎетю░тЮђСйјтГЌУіѓ
 904:modbus/RTUmodbus_slave.c **** 			00 ТЋ░ТЇ«1жФўтГЌУіѓ
 905:modbus/RTUmodbus_slave.c **** 			01 ТЋ░ТЇ«1СйјтГЌУіѓ
 906:modbus/RTUmodbus_slave.c **** 			9A CRCТаАжфїжФўтГЌУіѓ
 907:modbus/RTUmodbus_slave.c **** 			9B CRCТаАжфїСйјтГЌУіѓ
 908:modbus/RTUmodbus_slave.c **** 
 909:modbus/RTUmodbus_slave.c **** 		С╗јТю║тЊЇт║ћ:
 910:modbus/RTUmodbus_slave.c **** 			11 С╗јТю║тю░тЮђ
 911:modbus/RTUmodbus_slave.c **** 			06 тіЪУЃйуаЂ
 912:modbus/RTUmodbus_slave.c **** 			00 т»ётГўтЎетю░тЮђжФўтГЌУіѓ
 913:modbus/RTUmodbus_slave.c **** 			01 т»ётГўтЎетю░тЮђСйјтГЌУіѓ
 914:modbus/RTUmodbus_slave.c **** 			00 ТЋ░ТЇ«1жФўтГЌУіѓ
 915:modbus/RTUmodbus_slave.c **** 			01 ТЋ░ТЇ«1СйјтГЌУіѓ
 916:modbus/RTUmodbus_slave.c **** 			1B CRCТаАжфїжФўтГЌУіѓ
 917:modbus/RTUmodbus_slave.c **** 			5A	CRCТаАжфїСйјтГЌУіѓ
 918:modbus/RTUmodbus_slave.c **** 
 919:modbus/RTUmodbus_slave.c **** 		СЙІтГљ:
 920:modbus/RTUmodbus_slave.c **** 			01 06 30 06 00 25  A710    ---- УДдтЈЉућхТхЂУ«Йуй«СИ║ 2.5
 921:modbus/RTUmodbus_slave.c **** 			01 06 30 06 00 10  6707    ---- УДдтЈЉућхТхЂУ«Йуй«СИ║ 1.0
 922:modbus/RTUmodbus_slave.c **** 
 923:modbus/RTUmodbus_slave.c **** 
 924:modbus/RTUmodbus_slave.c **** 			01 06 30 1B 00 00  F6CD    ---- SMA Т╗цТ│бу│╗ТЋ░ = 0 тЁ│жЌГТ╗цТ│б
 925:modbus/RTUmodbus_slave.c **** 			01 06 30 1B 00 01  370D    ---- SMA Т╗цТ│бу│╗ТЋ░ = 1
 926:modbus/RTUmodbus_slave.c **** 			01 06 30 1B 00 02  770C    ---- SMA Т╗цТ│бу│╗ТЋ░ = 2
 927:modbus/RTUmodbus_slave.c **** 			01 06 30 1B 00 05  36CE    ---- SMA Т╗цТ│бу│╗ТЋ░ = 5
 928:modbus/RTUmodbus_slave.c **** 
 929:modbus/RTUmodbus_slave.c **** 			01 06 30 07 00 01  F6CB    ---- ТхІУ»ЋТеАт╝ЈС┐«Тћ╣СИ║ T1
 930:modbus/RTUmodbus_slave.c **** 			01 06 30 07 00 02  B6CA    ---- ТхІУ»ЋТеАт╝ЈС┐«Тћ╣СИ║ T2
 931:modbus/RTUmodbus_slave.c **** 
 932:modbus/RTUmodbus_slave.c **** 			01 06 31 00 00 00  8736    ---- ТЊджЎцТхфТХїУ«░тйЋтї║
 933:modbus/RTUmodbus_slave.c **** 			01 06 31 01 00 00  D6F6    ---- ТЊджЎцтЉіУГдУ«░тйЋтї║
 934:modbus/RTUmodbus_slave.c **** 
 935:modbus/RTUmodbus_slave.c **** */
 936:modbus/RTUmodbus_slave.c **** 
 937:modbus/RTUmodbus_slave.c **** 	uint16_t reg;
 378              		.loc 1 937 2 view .LVU89
ARM GAS  /tmp/cciZyHjk.s 			page 25


 938:modbus/RTUmodbus_slave.c **** 	uint16_t value;
 379              		.loc 1 938 2 view .LVU90
 939:modbus/RTUmodbus_slave.c **** 
 940:modbus/RTUmodbus_slave.c **** 	g_tModS.RspCode = RSP_OK;
 380              		.loc 1 940 2 view .LVU91
 381              		.loc 1 940 18 is_stmt 0 view .LVU92
 382 0002 144B     		ldr	r3, .L34
 383 0004 0022     		movs	r2, #0
 384 0006 83F82120 		strb	r2, [r3, #33]
 941:modbus/RTUmodbus_slave.c **** 
 942:modbus/RTUmodbus_slave.c **** 	if (g_tModS.RxCount != 8)
 385              		.loc 1 942 2 is_stmt 1 view .LVU93
 386              		.loc 1 942 13 is_stmt 0 view .LVU94
 387 000a 9B7F     		ldrb	r3, [r3, #30]	@ zero_extendqisi2
 388              		.loc 1 942 5 view .LVU95
 389 000c 082B     		cmp	r3, #8
 390 000e 0AD0     		beq	.L29
 943:modbus/RTUmodbus_slave.c **** 	{
 944:modbus/RTUmodbus_slave.c **** 		g_tModS.RspCode = RSP_ERR_VALUE; /* ТЋ░ТЇ«тђ╝тЪЪжћЎУ»» */
 391              		.loc 1 944 3 is_stmt 1 view .LVU96
 392              		.loc 1 944 19 is_stmt 0 view .LVU97
 393 0010 104B     		ldr	r3, .L34
 394 0012 0322     		movs	r2, #3
 395 0014 83F82120 		strb	r2, [r3, #33]
 945:modbus/RTUmodbus_slave.c **** 		goto err_ret;
 396              		.loc 1 945 3 is_stmt 1 view .LVU98
 397              	.L30:
 946:modbus/RTUmodbus_slave.c **** 	}
 947:modbus/RTUmodbus_slave.c **** 
 948:modbus/RTUmodbus_slave.c **** 	reg = BEBufToUint16(&g_tModS.RxBuf[2]);	  /* т»ётГўтЎетЈи */
 949:modbus/RTUmodbus_slave.c **** 	value = BEBufToUint16(&g_tModS.RxBuf[4]); /* т»ётГўтЎетђ╝ */
 950:modbus/RTUmodbus_slave.c **** 
 951:modbus/RTUmodbus_slave.c **** 	if (MODS_WriteRegValue(reg, value) == 1) /* У»ЦтЄйТЋ░С╝џТіітєЎтЁЦуџётђ╝тГўтЁЦт»ётГўтЎе */
 952:modbus/RTUmodbus_slave.c **** 	{
 953:modbus/RTUmodbus_slave.c **** 		;
 954:modbus/RTUmodbus_slave.c **** 	}
 955:modbus/RTUmodbus_slave.c **** 	else
 956:modbus/RTUmodbus_slave.c **** 	{
 957:modbus/RTUmodbus_slave.c **** 		g_tModS.RspCode = RSP_ERR_REG_ADDR; /* т»ётГўтЎетю░тЮђжћЎУ»» */
 958:modbus/RTUmodbus_slave.c **** 	}
 959:modbus/RTUmodbus_slave.c **** 
 960:modbus/RTUmodbus_slave.c **** err_ret:
 961:modbus/RTUmodbus_slave.c **** 	if (g_tModS.RspCode == RSP_OK) /* ТГБуА«т║ћуГћ */
 398              		.loc 1 961 2 view .LVU99
 399              		.loc 1 961 13 is_stmt 0 view .LVU100
 400 0018 0E4B     		ldr	r3, .L34
 401 001a 93F82100 		ldrb	r0, [r3, #33]	@ zero_extendqisi2
 402              		.loc 1 961 5 view .LVU101
 403 001e A8B9     		cbnz	r0, .L31
 962:modbus/RTUmodbus_slave.c **** 	{
 963:modbus/RTUmodbus_slave.c **** 		MODS_SendAckOk();
 404              		.loc 1 963 3 is_stmt 1 view .LVU102
 405 0020 FFF7FEFF 		bl	MODS_SendAckOk
 406              	.LVL25:
 407              	.L28:
 964:modbus/RTUmodbus_slave.c **** 	}
 965:modbus/RTUmodbus_slave.c **** 	else
ARM GAS  /tmp/cciZyHjk.s 			page 26


 966:modbus/RTUmodbus_slave.c **** 	{
 967:modbus/RTUmodbus_slave.c **** 		MODS_SendAckErr(g_tModS.RspCode); /* тЉіУ»ЅСИ╗Тю║тЉйС╗цжћЎУ»» */
 968:modbus/RTUmodbus_slave.c **** 	}
 969:modbus/RTUmodbus_slave.c **** }
 408              		.loc 1 969 1 is_stmt 0 view .LVU103
 409 0024 38BD     		pop	{r3, r4, r5, pc}
 410              	.L29:
 948:modbus/RTUmodbus_slave.c **** 	value = BEBufToUint16(&g_tModS.RxBuf[4]); /* т»ётГўтЎетђ╝ */
 411              		.loc 1 948 2 is_stmt 1 view .LVU104
 948:modbus/RTUmodbus_slave.c **** 	value = BEBufToUint16(&g_tModS.RxBuf[4]); /* т»ётГўтЎетђ╝ */
 412              		.loc 1 948 8 is_stmt 0 view .LVU105
 413 0026 0C4D     		ldr	r5, .L34+4
 414 0028 2846     		mov	r0, r5
 415 002a FFF7FEFF 		bl	BEBufToUint16
 416              	.LVL26:
 417 002e 0446     		mov	r4, r0
 418              	.LVL27:
 949:modbus/RTUmodbus_slave.c **** 
 419              		.loc 1 949 2 is_stmt 1 view .LVU106
 949:modbus/RTUmodbus_slave.c **** 
 420              		.loc 1 949 10 is_stmt 0 view .LVU107
 421 0030 A81C     		adds	r0, r5, #2
 422 0032 FFF7FEFF 		bl	BEBufToUint16
 423              	.LVL28:
 424 0036 0146     		mov	r1, r0
 425              	.LVL29:
 951:modbus/RTUmodbus_slave.c **** 	{
 426              		.loc 1 951 2 is_stmt 1 view .LVU108
 951:modbus/RTUmodbus_slave.c **** 	{
 427              		.loc 1 951 6 is_stmt 0 view .LVU109
 428 0038 2046     		mov	r0, r4
 429 003a FFF7FEFF 		bl	MODS_WriteRegValue
 430              	.LVL30:
 951:modbus/RTUmodbus_slave.c **** 	{
 431              		.loc 1 951 5 view .LVU110
 432 003e 0128     		cmp	r0, #1
 433 0040 EAD0     		beq	.L30
 957:modbus/RTUmodbus_slave.c **** 	}
 434              		.loc 1 957 3 is_stmt 1 view .LVU111
 957:modbus/RTUmodbus_slave.c **** 	}
 435              		.loc 1 957 19 is_stmt 0 view .LVU112
 436 0042 AB1E     		subs	r3, r5, #2
 437 0044 0222     		movs	r2, #2
 438 0046 83F82120 		strb	r2, [r3, #33]
 439 004a E5E7     		b	.L30
 440              	.LVL31:
 441              	.L31:
 967:modbus/RTUmodbus_slave.c **** 	}
 442              		.loc 1 967 3 is_stmt 1 view .LVU113
 443 004c FFF7FEFF 		bl	MODS_SendAckErr
 444              	.LVL32:
 445              		.loc 1 969 1 is_stmt 0 view .LVU114
 446 0050 E8E7     		b	.L28
 447              	.L35:
 448 0052 00BF     		.align	2
 449              	.L34:
 450 0054 00000000 		.word	g_tModS
ARM GAS  /tmp/cciZyHjk.s 			page 27


 451 0058 02000000 		.word	g_tModS+2
 452              		.cfi_endproc
 453              	.LFE17:
 455              		.section	.text.MODS_10H,"ax",%progbits
 456              		.align	1
 457              		.syntax unified
 458              		.thumb
 459              		.thumb_func
 460              		.fpu softvfp
 462              	MODS_10H:
 463              	.LFB18:
 970:modbus/RTUmodbus_slave.c **** 
 971:modbus/RTUmodbus_slave.c **** /*
 972:modbus/RTUmodbus_slave.c **** ***************************************************************************************************
 973:modbus/RTUmodbus_slave.c **** *	тЄй ТЋ░ тљЇ: MODS_10H
 974:modbus/RTUmodbus_slave.c **** *	тіЪУЃйУ»┤Тўј: У┐ъу╗ГтєЎтцџСИфт»ётГўтЎе.  У┐ЏућеС║јТћ╣тєЎТЌХжњЪ
 975:modbus/RTUmodbus_slave.c **** *	тйб    тЈѓ: ТЌа
 976:modbus/RTUmodbus_slave.c **** *	У┐ћ тЏъ тђ╝: ТЌа
 977:modbus/RTUmodbus_slave.c **** ***************************************************************************************************
 978:modbus/RTUmodbus_slave.c **** */
 979:modbus/RTUmodbus_slave.c **** static void MODS_10H(void)
 980:modbus/RTUmodbus_slave.c **** {
 464              		.loc 1 980 1 is_stmt 1 view -0
 465              		.cfi_startproc
 466              		@ args = 0, pretend = 0, frame = 0
 467              		@ frame_needed = 0, uses_anonymous_args = 0
 468 0000 F8B5     		push	{r3, r4, r5, r6, r7, lr}
 469              	.LCFI11:
 470              		.cfi_def_cfa_offset 24
 471              		.cfi_offset 3, -24
 472              		.cfi_offset 4, -20
 473              		.cfi_offset 5, -16
 474              		.cfi_offset 6, -12
 475              		.cfi_offset 7, -8
 476              		.cfi_offset 14, -4
 981:modbus/RTUmodbus_slave.c **** 	/*
 982:modbus/RTUmodbus_slave.c **** 		С╗јТю║тю░тЮђСИ║11HсђѓС┐ЮТїЂт»ётГўтЎеуџётЁХт«ътю░тЮђСИ║0001H№╝їт»ётГўтЎеуџёу╗ЊТЮЪтю░тЮђСИ║0002Hсђѓ
 983:modbus/RTUmodbus_slave.c **** 		С┐ЮТїЂт»ётГўтЎе0001HуџётєЁт«╣СИ║000AH№╝їС┐ЮТїЂт»ётГўтЎе0002HуџётєЁт«╣СИ║0102Hсђѓ
 984:modbus/RTUmodbus_slave.c **** 
 985:modbus/RTUmodbus_slave.c **** 		СИ╗Тю║тЈЉжђЂ:
 986:modbus/RTUmodbus_slave.c **** 			11 С╗јТю║тю░тЮђ
 987:modbus/RTUmodbus_slave.c **** 			10 тіЪУЃйуаЂ
 988:modbus/RTUmodbus_slave.c **** 			00 т»ётГўтЎеУхитДІтю░тЮђжФўтГЌУіѓ
 989:modbus/RTUmodbus_slave.c **** 			01 т»ётГўтЎеУхитДІтю░тЮђСйјтГЌУіѓ
 990:modbus/RTUmodbus_slave.c **** 			00 т»ётГўтЎеТЋ░жЄЈжФўтГЌУіѓ
 991:modbus/RTUmodbus_slave.c **** 			02 т»ётГўтЎеТЋ░жЄЈСйјтГЌУіѓ
 992:modbus/RTUmodbus_slave.c **** 			04 тГЌУіѓТЋ░
 993:modbus/RTUmodbus_slave.c **** 			00 ТЋ░ТЇ«1жФўтГЌУіѓ
 994:modbus/RTUmodbus_slave.c **** 			0A ТЋ░ТЇ«1СйјтГЌУіѓ
 995:modbus/RTUmodbus_slave.c **** 			01 ТЋ░ТЇ«2жФўтГЌУіѓ
 996:modbus/RTUmodbus_slave.c **** 			02 ТЋ░ТЇ«2СйјтГЌУіѓ
 997:modbus/RTUmodbus_slave.c **** 			C6 CRCТаАжфїжФўтГЌУіѓ
 998:modbus/RTUmodbus_slave.c **** 			F0 CRCТаАжфїСйјтГЌУіѓ
 999:modbus/RTUmodbus_slave.c **** 
1000:modbus/RTUmodbus_slave.c **** 		С╗јТю║тЊЇт║ћ:
1001:modbus/RTUmodbus_slave.c **** 			11 С╗јТю║тю░тЮђ
1002:modbus/RTUmodbus_slave.c **** 			06 тіЪУЃйуаЂ
ARM GAS  /tmp/cciZyHjk.s 			page 28


1003:modbus/RTUmodbus_slave.c **** 			00 т»ётГўтЎетю░тЮђжФўтГЌУіѓ
1004:modbus/RTUmodbus_slave.c **** 			01 т»ётГўтЎетю░тЮђСйјтГЌУіѓ
1005:modbus/RTUmodbus_slave.c **** 			00 ТЋ░ТЇ«1жФўтГЌУіѓ
1006:modbus/RTUmodbus_slave.c **** 			01 ТЋ░ТЇ«1СйјтГЌУіѓ
1007:modbus/RTUmodbus_slave.c **** 			1B CRCТаАжфїжФўтГЌУіѓ
1008:modbus/RTUmodbus_slave.c **** 			5A	CRCТаАжфїСйјтГЌУіѓ
1009:modbus/RTUmodbus_slave.c **** 
1010:modbus/RTUmodbus_slave.c **** 		СЙІтГљ:
1011:modbus/RTUmodbus_slave.c **** 			01 10 30 00 00 06 0C  07 DE  00 0A  00 01  00 08  00 0C  00 00     389A    ---- тєЎТЌХжњЪ 2014-1
1012:modbus/RTUmodbus_slave.c **** 			01 10 30 00 00 06 0C  07 DF  00 01  00 1F  00 17  00 3B  00 39     5549    ---- тєЎТЌХжњЪ 2015-0
1013:modbus/RTUmodbus_slave.c **** 
1014:modbus/RTUmodbus_slave.c **** 	*/
1015:modbus/RTUmodbus_slave.c **** 	uint16_t reg_addr;
 477              		.loc 1 1015 2 view .LVU116
1016:modbus/RTUmodbus_slave.c **** 	uint16_t reg_num;
 478              		.loc 1 1016 2 view .LVU117
1017:modbus/RTUmodbus_slave.c **** 	uint8_t byte_num;
 479              		.loc 1 1017 2 view .LVU118
1018:modbus/RTUmodbus_slave.c **** 	uint8_t i;
 480              		.loc 1 1018 2 view .LVU119
1019:modbus/RTUmodbus_slave.c **** 	uint16_t value;
 481              		.loc 1 1019 2 view .LVU120
1020:modbus/RTUmodbus_slave.c **** 
1021:modbus/RTUmodbus_slave.c **** 	g_tModS.RspCode = RSP_OK;
 482              		.loc 1 1021 2 view .LVU121
 483              		.loc 1 1021 18 is_stmt 0 view .LVU122
 484 0002 1B4B     		ldr	r3, .L45
 485 0004 0022     		movs	r2, #0
 486 0006 83F82120 		strb	r2, [r3, #33]
1022:modbus/RTUmodbus_slave.c **** 
1023:modbus/RTUmodbus_slave.c **** 	if (g_tModS.RxCount < 11)
 487              		.loc 1 1023 2 is_stmt 1 view .LVU123
 488              		.loc 1 1023 13 is_stmt 0 view .LVU124
 489 000a 9B7F     		ldrb	r3, [r3, #30]	@ zero_extendqisi2
 490              		.loc 1 1023 5 view .LVU125
 491 000c 0A2B     		cmp	r3, #10
 492 000e 0AD8     		bhi	.L37
1024:modbus/RTUmodbus_slave.c **** 	{
1025:modbus/RTUmodbus_slave.c **** 		g_tModS.RspCode = RSP_ERR_VALUE; /* ТЋ░ТЇ«тђ╝тЪЪжћЎУ»» */
 493              		.loc 1 1025 3 is_stmt 1 view .LVU126
 494              		.loc 1 1025 19 is_stmt 0 view .LVU127
 495 0010 174B     		ldr	r3, .L45
 496 0012 0322     		movs	r2, #3
 497 0014 83F82120 		strb	r2, [r3, #33]
1026:modbus/RTUmodbus_slave.c **** 		goto err_ret;
 498              		.loc 1 1026 3 is_stmt 1 view .LVU128
 499              	.L38:
1027:modbus/RTUmodbus_slave.c **** 	}
1028:modbus/RTUmodbus_slave.c **** 
1029:modbus/RTUmodbus_slave.c **** 	reg_addr = BEBufToUint16(&g_tModS.RxBuf[2]); /* т»ётГўтЎетЈи */
1030:modbus/RTUmodbus_slave.c **** 	reg_num = BEBufToUint16(&g_tModS.RxBuf[4]);	 /* т»ётГўтЎеСИфТЋ░ */
1031:modbus/RTUmodbus_slave.c **** 	byte_num = g_tModS.RxBuf[6];				 /* тљјжЮбуџёТЋ░ТЇ«СйЊтГЌУіѓТЋ░ */
1032:modbus/RTUmodbus_slave.c **** 
1033:modbus/RTUmodbus_slave.c **** 	if (byte_num != 2 * reg_num)
1034:modbus/RTUmodbus_slave.c **** 	{
1035:modbus/RTUmodbus_slave.c **** 		;
1036:modbus/RTUmodbus_slave.c **** 	}
ARM GAS  /tmp/cciZyHjk.s 			page 29


1037:modbus/RTUmodbus_slave.c **** 
1038:modbus/RTUmodbus_slave.c **** 	for (i = 0; i < reg_num; i++)
1039:modbus/RTUmodbus_slave.c **** 	{
1040:modbus/RTUmodbus_slave.c **** 		value = BEBufToUint16(&g_tModS.RxBuf[7 + 2 * i]); /* т»ётГўтЎетђ╝ */
1041:modbus/RTUmodbus_slave.c **** 
1042:modbus/RTUmodbus_slave.c **** 		if (MODS_WriteRegValue(reg_addr + i, value) == 1)
1043:modbus/RTUmodbus_slave.c **** 		{
1044:modbus/RTUmodbus_slave.c **** 			;
1045:modbus/RTUmodbus_slave.c **** 		}
1046:modbus/RTUmodbus_slave.c **** 		else
1047:modbus/RTUmodbus_slave.c **** 		{
1048:modbus/RTUmodbus_slave.c **** 			g_tModS.RspCode = RSP_ERR_REG_ADDR; /* т»ётГўтЎетю░тЮђжћЎУ»» */
1049:modbus/RTUmodbus_slave.c **** 			break;
1050:modbus/RTUmodbus_slave.c **** 		}
1051:modbus/RTUmodbus_slave.c **** 	}
1052:modbus/RTUmodbus_slave.c **** 
1053:modbus/RTUmodbus_slave.c **** err_ret:
1054:modbus/RTUmodbus_slave.c **** 	if (g_tModS.RspCode == RSP_OK) /* ТГБуА«т║ћуГћ */
 500              		.loc 1 1054 2 view .LVU129
 501              		.loc 1 1054 13 is_stmt 0 view .LVU130
 502 0018 154B     		ldr	r3, .L45
 503 001a 93F82100 		ldrb	r0, [r3, #33]	@ zero_extendqisi2
 504              		.loc 1 1054 5 view .LVU131
 505 001e 20BB     		cbnz	r0, .L42
1055:modbus/RTUmodbus_slave.c **** 	{
1056:modbus/RTUmodbus_slave.c **** 		MODS_SendAckOk();
 506              		.loc 1 1056 3 is_stmt 1 view .LVU132
 507 0020 FFF7FEFF 		bl	MODS_SendAckOk
 508              	.LVL33:
 509              	.L36:
1057:modbus/RTUmodbus_slave.c **** 	}
1058:modbus/RTUmodbus_slave.c **** 	else
1059:modbus/RTUmodbus_slave.c **** 	{
1060:modbus/RTUmodbus_slave.c **** 		MODS_SendAckErr(g_tModS.RspCode); /* тЉіУ»ЅСИ╗Тю║тЉйС╗цжћЎУ»» */
1061:modbus/RTUmodbus_slave.c **** 	}
1062:modbus/RTUmodbus_slave.c **** }
 510              		.loc 1 1062 1 is_stmt 0 view .LVU133
 511 0024 F8BD     		pop	{r3, r4, r5, r6, r7, pc}
 512              	.L37:
1029:modbus/RTUmodbus_slave.c **** 	reg_num = BEBufToUint16(&g_tModS.RxBuf[4]);	 /* т»ётГўтЎеСИфТЋ░ */
 513              		.loc 1 1029 2 is_stmt 1 view .LVU134
1029:modbus/RTUmodbus_slave.c **** 	reg_num = BEBufToUint16(&g_tModS.RxBuf[4]);	 /* т»ётГўтЎеСИфТЋ░ */
 514              		.loc 1 1029 13 is_stmt 0 view .LVU135
 515 0026 134C     		ldr	r4, .L45+4
 516 0028 2046     		mov	r0, r4
 517 002a FFF7FEFF 		bl	BEBufToUint16
 518              	.LVL34:
 519 002e 0746     		mov	r7, r0
 520              	.LVL35:
1030:modbus/RTUmodbus_slave.c **** 	byte_num = g_tModS.RxBuf[6];				 /* тљјжЮбуџёТЋ░ТЇ«СйЊтГЌУіѓТЋ░ */
 521              		.loc 1 1030 2 is_stmt 1 view .LVU136
1030:modbus/RTUmodbus_slave.c **** 	byte_num = g_tModS.RxBuf[6];				 /* тљјжЮбуџёТЋ░ТЇ«СйЊтГЌУіѓТЋ░ */
 522              		.loc 1 1030 12 is_stmt 0 view .LVU137
 523 0030 A01C     		adds	r0, r4, #2
 524 0032 FFF7FEFF 		bl	BEBufToUint16
 525              	.LVL36:
 526 0036 0646     		mov	r6, r0
ARM GAS  /tmp/cciZyHjk.s 			page 30


 527              	.LVL37:
1031:modbus/RTUmodbus_slave.c **** 
 528              		.loc 1 1031 2 is_stmt 1 view .LVU138
1033:modbus/RTUmodbus_slave.c **** 	{
 529              		.loc 1 1033 2 view .LVU139
1035:modbus/RTUmodbus_slave.c **** 	}
 530              		.loc 1 1035 3 view .LVU140
1038:modbus/RTUmodbus_slave.c **** 	{
 531              		.loc 1 1038 2 view .LVU141
1038:modbus/RTUmodbus_slave.c **** 	{
 532              		.loc 1 1038 9 is_stmt 0 view .LVU142
 533 0038 0024     		movs	r4, #0
1038:modbus/RTUmodbus_slave.c **** 	{
 534              		.loc 1 1038 2 view .LVU143
 535 003a 01E0     		b	.L39
 536              	.LVL38:
 537              	.L40:
1044:modbus/RTUmodbus_slave.c **** 		}
 538              		.loc 1 1044 4 is_stmt 1 discriminator 2 view .LVU144
1038:modbus/RTUmodbus_slave.c **** 	{
 539              		.loc 1 1038 27 discriminator 2 view .LVU145
1038:modbus/RTUmodbus_slave.c **** 	{
 540              		.loc 1 1038 28 is_stmt 0 discriminator 2 view .LVU146
 541 003c 0134     		adds	r4, r4, #1
 542              	.LVL39:
1038:modbus/RTUmodbus_slave.c **** 	{
 543              		.loc 1 1038 28 discriminator 2 view .LVU147
 544 003e E4B2     		uxtb	r4, r4
 545              	.LVL40:
 546              	.L39:
1038:modbus/RTUmodbus_slave.c **** 	{
 547              		.loc 1 1038 14 is_stmt 1 discriminator 1 view .LVU148
1038:modbus/RTUmodbus_slave.c **** 	{
 548              		.loc 1 1038 16 is_stmt 0 discriminator 1 view .LVU149
 549 0040 A5B2     		uxth	r5, r4
1038:modbus/RTUmodbus_slave.c **** 	{
 550              		.loc 1 1038 2 discriminator 1 view .LVU150
 551 0042 B542     		cmp	r5, r6
 552 0044 E8D2     		bcs	.L38
1040:modbus/RTUmodbus_slave.c **** 
 553              		.loc 1 1040 3 is_stmt 1 view .LVU151
1040:modbus/RTUmodbus_slave.c **** 
 554              		.loc 1 1040 46 is_stmt 0 view .LVU152
 555 0046 6300     		lsls	r3, r4, #1
1040:modbus/RTUmodbus_slave.c **** 
 556              		.loc 1 1040 42 view .LVU153
 557 0048 0733     		adds	r3, r3, #7
1040:modbus/RTUmodbus_slave.c **** 
 558              		.loc 1 1040 11 view .LVU154
 559 004a 0948     		ldr	r0, .L45
 560 004c 1844     		add	r0, r0, r3
 561 004e FFF7FEFF 		bl	BEBufToUint16
 562              	.LVL41:
 563 0052 0146     		mov	r1, r0
 564              	.LVL42:
1042:modbus/RTUmodbus_slave.c **** 		{
 565              		.loc 1 1042 3 is_stmt 1 view .LVU155
ARM GAS  /tmp/cciZyHjk.s 			page 31


1042:modbus/RTUmodbus_slave.c **** 		{
 566              		.loc 1 1042 7 is_stmt 0 view .LVU156
 567 0054 3D44     		add	r5, r5, r7
 568 0056 A8B2     		uxth	r0, r5
 569 0058 FFF7FEFF 		bl	MODS_WriteRegValue
 570              	.LVL43:
1042:modbus/RTUmodbus_slave.c **** 		{
 571              		.loc 1 1042 6 view .LVU157
 572 005c 0128     		cmp	r0, #1
 573 005e EDD0     		beq	.L40
1048:modbus/RTUmodbus_slave.c **** 			break;
 574              		.loc 1 1048 4 is_stmt 1 view .LVU158
1048:modbus/RTUmodbus_slave.c **** 			break;
 575              		.loc 1 1048 20 is_stmt 0 view .LVU159
 576 0060 034B     		ldr	r3, .L45
 577 0062 0222     		movs	r2, #2
 578 0064 83F82120 		strb	r2, [r3, #33]
1049:modbus/RTUmodbus_slave.c **** 		}
 579              		.loc 1 1049 4 is_stmt 1 view .LVU160
 580 0068 D6E7     		b	.L38
 581              	.LVL44:
 582              	.L42:
1060:modbus/RTUmodbus_slave.c **** 	}
 583              		.loc 1 1060 3 view .LVU161
 584 006a FFF7FEFF 		bl	MODS_SendAckErr
 585              	.LVL45:
 586              		.loc 1 1062 1 is_stmt 0 view .LVU162
 587 006e D9E7     		b	.L36
 588              	.L46:
 589              		.align	2
 590              	.L45:
 591 0070 00000000 		.word	g_tModS
 592 0074 02000000 		.word	g_tModS+2
 593              		.cfi_endproc
 594              	.LFE18:
 596              		.section	.text.MODS_01H,"ax",%progbits
 597              		.align	1
 598              		.syntax unified
 599              		.thumb
 600              		.thumb_func
 601              		.fpu softvfp
 603              	MODS_01H:
 604              	.LFB10:
 274:modbus/RTUmodbus_slave.c **** 	/*
 605              		.loc 1 274 1 is_stmt 1 view -0
 606              		.cfi_startproc
 607              		@ args = 0, pretend = 0, frame = 16
 608              		@ frame_needed = 0, uses_anonymous_args = 0
 303:modbus/RTUmodbus_slave.c **** 	uint16_t num;
 609              		.loc 1 303 2 view .LVU164
 304:modbus/RTUmodbus_slave.c **** 	uint16_t i;
 610              		.loc 1 304 2 view .LVU165
 305:modbus/RTUmodbus_slave.c **** 	uint16_t m;
 611              		.loc 1 305 2 view .LVU166
 306:modbus/RTUmodbus_slave.c **** 	uint8_t status[10];
 612              		.loc 1 306 2 view .LVU167
 307:modbus/RTUmodbus_slave.c **** 
ARM GAS  /tmp/cciZyHjk.s 			page 32


 613              		.loc 1 307 2 view .LVU168
 309:modbus/RTUmodbus_slave.c **** 
 614              		.loc 1 309 2 view .LVU169
 309:modbus/RTUmodbus_slave.c **** 
 615              		.loc 1 309 18 is_stmt 0 view .LVU170
 616 0000 344B     		ldr	r3, .L67
 617 0002 0022     		movs	r2, #0
 618 0004 83F82120 		strb	r2, [r3, #33]
 312:modbus/RTUmodbus_slave.c **** 	{
 619              		.loc 1 312 2 is_stmt 1 view .LVU171
 312:modbus/RTUmodbus_slave.c **** 	{
 620              		.loc 1 312 13 is_stmt 0 view .LVU172
 621 0008 9B7F     		ldrb	r3, [r3, #30]	@ zero_extendqisi2
 312:modbus/RTUmodbus_slave.c **** 	{
 622              		.loc 1 312 5 view .LVU173
 623 000a 082B     		cmp	r3, #8
 624 000c 04D0     		beq	.L48
 314:modbus/RTUmodbus_slave.c **** 		return;
 625              		.loc 1 314 3 is_stmt 1 view .LVU174
 314:modbus/RTUmodbus_slave.c **** 		return;
 626              		.loc 1 314 19 is_stmt 0 view .LVU175
 627 000e 314B     		ldr	r3, .L67
 628 0010 0322     		movs	r2, #3
 629 0012 83F82120 		strb	r2, [r3, #33]
 315:modbus/RTUmodbus_slave.c **** 	}
 630              		.loc 1 315 3 is_stmt 1 view .LVU176
 631 0016 7047     		bx	lr
 632              	.L48:
 274:modbus/RTUmodbus_slave.c **** 	/*
 633              		.loc 1 274 1 is_stmt 0 view .LVU177
 634 0018 70B5     		push	{r4, r5, r6, lr}
 635              	.LCFI12:
 636              		.cfi_def_cfa_offset 16
 637              		.cfi_offset 4, -16
 638              		.cfi_offset 5, -12
 639              		.cfi_offset 6, -8
 640              		.cfi_offset 14, -4
 641 001a 84B0     		sub	sp, sp, #16
 642              	.LCFI13:
 643              		.cfi_def_cfa_offset 32
 318:modbus/RTUmodbus_slave.c **** 	num = BEBufToUint16(&g_tModS.RxBuf[4]); /* т»ётГўтЎеСИфТЋ░ */
 644              		.loc 1 318 2 is_stmt 1 view .LVU178
 318:modbus/RTUmodbus_slave.c **** 	num = BEBufToUint16(&g_tModS.RxBuf[4]); /* т»ётГўтЎеСИфТЋ░ */
 645              		.loc 1 318 8 is_stmt 0 view .LVU179
 646 001c 2E4C     		ldr	r4, .L67+4
 647 001e 2046     		mov	r0, r4
 648 0020 FFF7FEFF 		bl	BEBufToUint16
 649              	.LVL46:
 650 0024 0546     		mov	r5, r0
 651              	.LVL47:
 319:modbus/RTUmodbus_slave.c **** 
 652              		.loc 1 319 2 is_stmt 1 view .LVU180
 319:modbus/RTUmodbus_slave.c **** 
 653              		.loc 1 319 8 is_stmt 0 view .LVU181
 654 0026 A01C     		adds	r0, r4, #2
 655 0028 FFF7FEFF 		bl	BEBufToUint16
 656              	.LVL48:
ARM GAS  /tmp/cciZyHjk.s 			page 33


 321:modbus/RTUmodbus_slave.c **** 
 657              		.loc 1 321 2 is_stmt 1 view .LVU182
 321:modbus/RTUmodbus_slave.c **** 
 658              		.loc 1 321 16 is_stmt 0 view .LVU183
 659 002c C41D     		adds	r4, r0, #7
 660 002e 20D4     		bmi	.L65
 661              	.L50:
 662 0030 E610     		asrs	r6, r4, #3
 321:modbus/RTUmodbus_slave.c **** 
 663              		.loc 1 321 4 view .LVU184
 664 0032 C4F3CF04 		ubfx	r4, r4, #3, #16
 665              	.LVL49:
 323:modbus/RTUmodbus_slave.c **** 	{
 666              		.loc 1 323 2 is_stmt 1 view .LVU185
 323:modbus/RTUmodbus_slave.c **** 	{
 667              		.loc 1 323 5 is_stmt 0 view .LVU186
 668 0036 B5F5807F 		cmp	r5, #256
 669 003a 04D9     		bls	.L51
 323:modbus/RTUmodbus_slave.c **** 	{
 670              		.loc 1 323 23 discriminator 1 view .LVU187
 671 003c 18B1     		cbz	r0, .L51
 323:modbus/RTUmodbus_slave.c **** 	{
 672              		.loc 1 323 44 discriminator 2 view .LVU188
 673 003e 0544     		add	r5, r5, r0
 674              	.LVL50:
 323:modbus/RTUmodbus_slave.c **** 	{
 675              		.loc 1 323 36 discriminator 2 view .LVU189
 676 0040 B5F5837F 		cmp	r5, #262
 677 0044 17DB     		blt	.L61
 678              	.L51:
 339:modbus/RTUmodbus_slave.c **** 	}
 679              		.loc 1 339 3 is_stmt 1 view .LVU190
 339:modbus/RTUmodbus_slave.c **** 	}
 680              		.loc 1 339 19 is_stmt 0 view .LVU191
 681 0046 234B     		ldr	r3, .L67
 682 0048 0222     		movs	r2, #2
 683 004a 83F82120 		strb	r2, [r3, #33]
 684              	.L56:
 342:modbus/RTUmodbus_slave.c **** 	{
 685              		.loc 1 342 2 is_stmt 1 view .LVU192
 342:modbus/RTUmodbus_slave.c **** 	{
 686              		.loc 1 342 13 is_stmt 0 view .LVU193
 687 004e 214B     		ldr	r3, .L67
 688 0050 93F82100 		ldrb	r0, [r3, #33]	@ zero_extendqisi2
 689              	.LVL51:
 342:modbus/RTUmodbus_slave.c **** 	{
 690              		.loc 1 342 5 view .LVU194
 691 0054 0028     		cmp	r0, #0
 692 0056 39D1     		bne	.L57
 344:modbus/RTUmodbus_slave.c **** 		g_tModS.TxBuf[g_tModS.TxCount++] = g_tModS.RxBuf[0];
 693              		.loc 1 344 3 is_stmt 1 view .LVU195
 345:modbus/RTUmodbus_slave.c **** 		g_tModS.TxBuf[g_tModS.TxCount++] = g_tModS.RxBuf[1];
 694              		.loc 1 345 3 view .LVU196
 345:modbus/RTUmodbus_slave.c **** 		g_tModS.TxBuf[g_tModS.TxCount++] = g_tModS.RxBuf[1];
 695              		.loc 1 345 51 is_stmt 0 view .LVU197
 696 0058 1A78     		ldrb	r2, [r3]	@ zero_extendqisi2
 345:modbus/RTUmodbus_slave.c **** 		g_tModS.TxBuf[g_tModS.TxCount++] = g_tModS.RxBuf[1];
ARM GAS  /tmp/cciZyHjk.s 			page 34


 697              		.loc 1 345 36 view .LVU198
 698 005a 83F82220 		strb	r2, [r3, #34]
 346:modbus/RTUmodbus_slave.c **** 		g_tModS.TxBuf[g_tModS.TxCount++] = m; /* У┐ћтЏътГЌУіѓТЋ░ */
 699              		.loc 1 346 3 is_stmt 1 view .LVU199
 346:modbus/RTUmodbus_slave.c **** 		g_tModS.TxBuf[g_tModS.TxCount++] = m; /* У┐ћтЏътГЌУіѓТЋ░ */
 700              		.loc 1 346 51 is_stmt 0 view .LVU200
 701 005e 5A78     		ldrb	r2, [r3, #1]	@ zero_extendqisi2
 346:modbus/RTUmodbus_slave.c **** 		g_tModS.TxBuf[g_tModS.TxCount++] = m; /* У┐ћтЏътГЌУіѓТЋ░ */
 702              		.loc 1 346 36 view .LVU201
 703 0060 83F82320 		strb	r2, [r3, #35]
 347:modbus/RTUmodbus_slave.c **** 
 704              		.loc 1 347 3 is_stmt 1 view .LVU202
 347:modbus/RTUmodbus_slave.c **** 
 705              		.loc 1 347 32 is_stmt 0 view .LVU203
 706 0064 0322     		movs	r2, #3
 707 0066 83F8A220 		strb	r2, [r3, #162]
 347:modbus/RTUmodbus_slave.c **** 
 708              		.loc 1 347 36 view .LVU204
 709 006a 83F82460 		strb	r6, [r3, #36]
 349:modbus/RTUmodbus_slave.c **** 		{
 710              		.loc 1 349 3 is_stmt 1 view .LVU205
 711              	.LVL52:
 349:modbus/RTUmodbus_slave.c **** 		{
 712              		.loc 1 349 10 is_stmt 0 view .LVU206
 713 006e 0023     		movs	r3, #0
 349:modbus/RTUmodbus_slave.c **** 		{
 714              		.loc 1 349 3 view .LVU207
 715 0070 22E0     		b	.L58
 716              	.LVL53:
 717              	.L65:
 321:modbus/RTUmodbus_slave.c **** 
 718              		.loc 1 321 16 view .LVU208
 719 0072 0734     		adds	r4, r4, #7
 720 0074 DCE7     		b	.L50
 721              	.LVL54:
 722              	.L61:
 325:modbus/RTUmodbus_slave.c **** 		{
 723              		.loc 1 325 10 view .LVU209
 724 0076 0023     		movs	r3, #0
 725              	.L52:
 726              	.LVL55:
 325:modbus/RTUmodbus_slave.c **** 		{
 727              		.loc 1 325 15 is_stmt 1 discriminator 1 view .LVU210
 325:modbus/RTUmodbus_slave.c **** 		{
 728              		.loc 1 325 3 is_stmt 0 discriminator 1 view .LVU211
 729 0078 A342     		cmp	r3, r4
 730 007a 07D2     		bcs	.L66
 327:modbus/RTUmodbus_slave.c **** 		}
 731              		.loc 1 327 4 is_stmt 1 discriminator 3 view .LVU212
 327:modbus/RTUmodbus_slave.c **** 		}
 732              		.loc 1 327 14 is_stmt 0 discriminator 3 view .LVU213
 733 007c 04AA     		add	r2, sp, #16
 734 007e 1A44     		add	r2, r2, r3
 735 0080 0021     		movs	r1, #0
 736 0082 02F80C1C 		strb	r1, [r2, #-12]
 325:modbus/RTUmodbus_slave.c **** 		{
 737              		.loc 1 325 22 is_stmt 1 discriminator 3 view .LVU214
ARM GAS  /tmp/cciZyHjk.s 			page 35


 325:modbus/RTUmodbus_slave.c **** 		{
 738              		.loc 1 325 23 is_stmt 0 discriminator 3 view .LVU215
 739 0086 0133     		adds	r3, r3, #1
 740              	.LVL56:
 325:modbus/RTUmodbus_slave.c **** 		{
 741              		.loc 1 325 23 discriminator 3 view .LVU216
 742 0088 9BB2     		uxth	r3, r3
 743              	.LVL57:
 325:modbus/RTUmodbus_slave.c **** 		{
 744              		.loc 1 325 23 discriminator 3 view .LVU217
 745 008a F5E7     		b	.L52
 746              	.L66:
 329:modbus/RTUmodbus_slave.c **** 		{
 747              		.loc 1 329 10 view .LVU218
 748 008c 0023     		movs	r3, #0
 749              	.LVL58:
 329:modbus/RTUmodbus_slave.c **** 		{
 750              		.loc 1 329 10 view .LVU219
 751 008e 01E0     		b	.L54
 752              	.LVL59:
 753              	.L55:
 335:modbus/RTUmodbus_slave.c **** 	}
 754              		.loc 1 335 3 is_stmt 1 discriminator 3 view .LVU220
 329:modbus/RTUmodbus_slave.c **** 		{
 755              		.loc 1 329 24 discriminator 3 view .LVU221
 329:modbus/RTUmodbus_slave.c **** 		{
 756              		.loc 1 329 25 is_stmt 0 discriminator 3 view .LVU222
 757 0090 0133     		adds	r3, r3, #1
 758              	.LVL60:
 329:modbus/RTUmodbus_slave.c **** 		{
 759              		.loc 1 329 25 discriminator 3 view .LVU223
 760 0092 9BB2     		uxth	r3, r3
 761              	.LVL61:
 762              	.L54:
 329:modbus/RTUmodbus_slave.c **** 		{
 763              		.loc 1 329 15 is_stmt 1 discriminator 1 view .LVU224
 329:modbus/RTUmodbus_slave.c **** 		{
 764              		.loc 1 329 3 is_stmt 0 discriminator 1 view .LVU225
 765 0094 8342     		cmp	r3, r0
 766 0096 FBD3     		bcc	.L55
 767 0098 D9E7     		b	.L56
 768              	.LVL62:
 769              	.L59:
 351:modbus/RTUmodbus_slave.c **** 		}
 770              		.loc 1 351 4 is_stmt 1 discriminator 3 view .LVU226
 351:modbus/RTUmodbus_slave.c **** 		}
 771              		.loc 1 351 25 is_stmt 0 discriminator 3 view .LVU227
 772 009a 0E4A     		ldr	r2, .L67
 773 009c 92F8A210 		ldrb	r1, [r2, #162]	@ zero_extendqisi2
 351:modbus/RTUmodbus_slave.c **** 		}
 774              		.loc 1 351 33 discriminator 3 view .LVU228
 775 00a0 481C     		adds	r0, r1, #1
 776 00a2 82F8A200 		strb	r0, [r2, #162]
 351:modbus/RTUmodbus_slave.c **** 		}
 777              		.loc 1 351 45 discriminator 3 view .LVU229
 778 00a6 04A8     		add	r0, sp, #16
 779 00a8 1844     		add	r0, r0, r3
ARM GAS  /tmp/cciZyHjk.s 			page 36


 780 00aa 10F80C0C 		ldrb	r0, [r0, #-12]	@ zero_extendqisi2
 351:modbus/RTUmodbus_slave.c **** 		}
 781              		.loc 1 351 37 discriminator 3 view .LVU230
 782 00ae 0A44     		add	r2, r2, r1
 783 00b0 82F82200 		strb	r0, [r2, #34]
 349:modbus/RTUmodbus_slave.c **** 		{
 784              		.loc 1 349 22 is_stmt 1 discriminator 3 view .LVU231
 349:modbus/RTUmodbus_slave.c **** 		{
 785              		.loc 1 349 23 is_stmt 0 discriminator 3 view .LVU232
 786 00b4 0133     		adds	r3, r3, #1
 787              	.LVL63:
 349:modbus/RTUmodbus_slave.c **** 		{
 788              		.loc 1 349 23 discriminator 3 view .LVU233
 789 00b6 9BB2     		uxth	r3, r3
 790              	.LVL64:
 791              	.L58:
 349:modbus/RTUmodbus_slave.c **** 		{
 792              		.loc 1 349 15 is_stmt 1 discriminator 1 view .LVU234
 349:modbus/RTUmodbus_slave.c **** 		{
 793              		.loc 1 349 3 is_stmt 0 discriminator 1 view .LVU235
 794 00b8 A342     		cmp	r3, r4
 795 00ba EED3     		bcc	.L59
 353:modbus/RTUmodbus_slave.c **** 	}
 796              		.loc 1 353 3 is_stmt 1 view .LVU236
 797 00bc 0548     		ldr	r0, .L67
 798 00be 90F8A210 		ldrb	r1, [r0, #162]	@ zero_extendqisi2
 799 00c2 2230     		adds	r0, r0, #34
 800 00c4 FFF7FEFF 		bl	MODS_SendWithCRC
 801              	.LVL65:
 802              	.L47:
 359:modbus/RTUmodbus_slave.c **** 
 803              		.loc 1 359 1 is_stmt 0 view .LVU237
 804 00c8 04B0     		add	sp, sp, #16
 805              	.LCFI14:
 806              		.cfi_remember_state
 807              		.cfi_def_cfa_offset 16
 808              		@ sp needed
 809 00ca 70BD     		pop	{r4, r5, r6, pc}
 810              	.LVL66:
 811              	.L57:
 812              	.LCFI15:
 813              		.cfi_restore_state
 357:modbus/RTUmodbus_slave.c **** 	}
 814              		.loc 1 357 3 is_stmt 1 view .LVU238
 815 00cc FFF7FEFF 		bl	MODS_SendAckErr
 816              	.LVL67:
 817 00d0 FAE7     		b	.L47
 818              	.L68:
 819 00d2 00BF     		.align	2
 820              	.L67:
 821 00d4 00000000 		.word	g_tModS
 822 00d8 02000000 		.word	g_tModS+2
 823              		.cfi_endproc
 824              	.LFE10:
 826              		.section	.text.MODS_02H,"ax",%progbits
 827              		.align	1
 828              		.syntax unified
ARM GAS  /tmp/cciZyHjk.s 			page 37


 829              		.thumb
 830              		.thumb_func
 831              		.fpu softvfp
 833              	MODS_02H:
 834              	.LFB11:
 370:modbus/RTUmodbus_slave.c **** 	/*
 835              		.loc 1 370 1 view -0
 836              		.cfi_startproc
 837              		@ args = 0, pretend = 0, frame = 16
 838              		@ frame_needed = 0, uses_anonymous_args = 0
 401:modbus/RTUmodbus_slave.c **** 	uint16_t num;
 839              		.loc 1 401 2 view .LVU240
 402:modbus/RTUmodbus_slave.c **** 	uint16_t i;
 840              		.loc 1 402 2 view .LVU241
 403:modbus/RTUmodbus_slave.c **** 	uint16_t m;
 841              		.loc 1 403 2 view .LVU242
 404:modbus/RTUmodbus_slave.c **** 	uint8_t status[10];
 842              		.loc 1 404 2 view .LVU243
 405:modbus/RTUmodbus_slave.c **** 
 843              		.loc 1 405 2 view .LVU244
 407:modbus/RTUmodbus_slave.c **** 
 844              		.loc 1 407 2 view .LVU245
 407:modbus/RTUmodbus_slave.c **** 
 845              		.loc 1 407 18 is_stmt 0 view .LVU246
 846 0000 344B     		ldr	r3, .L89
 847 0002 0022     		movs	r2, #0
 848 0004 83F82120 		strb	r2, [r3, #33]
 409:modbus/RTUmodbus_slave.c **** 	{
 849              		.loc 1 409 2 is_stmt 1 view .LVU247
 409:modbus/RTUmodbus_slave.c **** 	{
 850              		.loc 1 409 13 is_stmt 0 view .LVU248
 851 0008 9B7F     		ldrb	r3, [r3, #30]	@ zero_extendqisi2
 409:modbus/RTUmodbus_slave.c **** 	{
 852              		.loc 1 409 5 view .LVU249
 853 000a 082B     		cmp	r3, #8
 854 000c 04D0     		beq	.L70
 411:modbus/RTUmodbus_slave.c **** 		return;
 855              		.loc 1 411 3 is_stmt 1 view .LVU250
 411:modbus/RTUmodbus_slave.c **** 		return;
 856              		.loc 1 411 19 is_stmt 0 view .LVU251
 857 000e 314B     		ldr	r3, .L89
 858 0010 0322     		movs	r2, #3
 859 0012 83F82120 		strb	r2, [r3, #33]
 412:modbus/RTUmodbus_slave.c **** 	}
 860              		.loc 1 412 3 is_stmt 1 view .LVU252
 861 0016 7047     		bx	lr
 862              	.L70:
 370:modbus/RTUmodbus_slave.c **** 	/*
 863              		.loc 1 370 1 is_stmt 0 view .LVU253
 864 0018 70B5     		push	{r4, r5, r6, lr}
 865              	.LCFI16:
 866              		.cfi_def_cfa_offset 16
 867              		.cfi_offset 4, -16
 868              		.cfi_offset 5, -12
 869              		.cfi_offset 6, -8
 870              		.cfi_offset 14, -4
 871 001a 84B0     		sub	sp, sp, #16
ARM GAS  /tmp/cciZyHjk.s 			page 38


 872              	.LCFI17:
 873              		.cfi_def_cfa_offset 32
 415:modbus/RTUmodbus_slave.c **** 	num = BEBufToUint16(&g_tModS.RxBuf[4]); /* т»ётГўтЎеСИфТЋ░ */
 874              		.loc 1 415 2 is_stmt 1 view .LVU254
 415:modbus/RTUmodbus_slave.c **** 	num = BEBufToUint16(&g_tModS.RxBuf[4]); /* т»ётГўтЎеСИфТЋ░ */
 875              		.loc 1 415 8 is_stmt 0 view .LVU255
 876 001c 2E4C     		ldr	r4, .L89+4
 877 001e 2046     		mov	r0, r4
 878 0020 FFF7FEFF 		bl	BEBufToUint16
 879              	.LVL68:
 880 0024 0546     		mov	r5, r0
 881              	.LVL69:
 416:modbus/RTUmodbus_slave.c **** 
 882              		.loc 1 416 2 is_stmt 1 view .LVU256
 416:modbus/RTUmodbus_slave.c **** 
 883              		.loc 1 416 8 is_stmt 0 view .LVU257
 884 0026 A01C     		adds	r0, r4, #2
 885 0028 FFF7FEFF 		bl	BEBufToUint16
 886              	.LVL70:
 418:modbus/RTUmodbus_slave.c **** 	if ((reg >= REG_T01) && (num > 0) && (reg + num <= REG_TXX + 1))
 887              		.loc 1 418 2 is_stmt 1 view .LVU258
 418:modbus/RTUmodbus_slave.c **** 	if ((reg >= REG_T01) && (num > 0) && (reg + num <= REG_TXX + 1))
 888              		.loc 1 418 16 is_stmt 0 view .LVU259
 889 002c C41D     		adds	r4, r0, #7
 890 002e 20D4     		bmi	.L87
 891              	.L72:
 892 0030 E610     		asrs	r6, r4, #3
 418:modbus/RTUmodbus_slave.c **** 	if ((reg >= REG_T01) && (num > 0) && (reg + num <= REG_TXX + 1))
 893              		.loc 1 418 4 view .LVU260
 894 0032 C4F3CF04 		ubfx	r4, r4, #3, #16
 895              	.LVL71:
 419:modbus/RTUmodbus_slave.c **** 	{
 896              		.loc 1 419 2 is_stmt 1 view .LVU261
 419:modbus/RTUmodbus_slave.c **** 	{
 897              		.loc 1 419 5 is_stmt 0 view .LVU262
 898 0036 B5F5007F 		cmp	r5, #512
 899 003a 04D9     		bls	.L73
 419:modbus/RTUmodbus_slave.c **** 	{
 900              		.loc 1 419 23 discriminator 1 view .LVU263
 901 003c 18B1     		cbz	r0, .L73
 419:modbus/RTUmodbus_slave.c **** 	{
 902              		.loc 1 419 44 discriminator 2 view .LVU264
 903 003e 0544     		add	r5, r5, r0
 904              	.LVL72:
 419:modbus/RTUmodbus_slave.c **** 	{
 905              		.loc 1 419 36 discriminator 2 view .LVU265
 906 0040 B5F5017F 		cmp	r5, #516
 907 0044 17DD     		ble	.L83
 908              	.L73:
 435:modbus/RTUmodbus_slave.c **** 	}
 909              		.loc 1 435 3 is_stmt 1 view .LVU266
 435:modbus/RTUmodbus_slave.c **** 	}
 910              		.loc 1 435 19 is_stmt 0 view .LVU267
 911 0046 234B     		ldr	r3, .L89
 912 0048 0222     		movs	r2, #2
 913 004a 83F82120 		strb	r2, [r3, #33]
 914              	.L78:
ARM GAS  /tmp/cciZyHjk.s 			page 39


 438:modbus/RTUmodbus_slave.c **** 	{
 915              		.loc 1 438 2 is_stmt 1 view .LVU268
 438:modbus/RTUmodbus_slave.c **** 	{
 916              		.loc 1 438 13 is_stmt 0 view .LVU269
 917 004e 214B     		ldr	r3, .L89
 918 0050 93F82100 		ldrb	r0, [r3, #33]	@ zero_extendqisi2
 919              	.LVL73:
 438:modbus/RTUmodbus_slave.c **** 	{
 920              		.loc 1 438 5 view .LVU270
 921 0054 0028     		cmp	r0, #0
 922 0056 39D1     		bne	.L79
 440:modbus/RTUmodbus_slave.c **** 		g_tModS.TxBuf[g_tModS.TxCount++] = g_tModS.RxBuf[0];
 923              		.loc 1 440 3 is_stmt 1 view .LVU271
 441:modbus/RTUmodbus_slave.c **** 		g_tModS.TxBuf[g_tModS.TxCount++] = g_tModS.RxBuf[1];
 924              		.loc 1 441 3 view .LVU272
 441:modbus/RTUmodbus_slave.c **** 		g_tModS.TxBuf[g_tModS.TxCount++] = g_tModS.RxBuf[1];
 925              		.loc 1 441 51 is_stmt 0 view .LVU273
 926 0058 1A78     		ldrb	r2, [r3]	@ zero_extendqisi2
 441:modbus/RTUmodbus_slave.c **** 		g_tModS.TxBuf[g_tModS.TxCount++] = g_tModS.RxBuf[1];
 927              		.loc 1 441 36 view .LVU274
 928 005a 83F82220 		strb	r2, [r3, #34]
 442:modbus/RTUmodbus_slave.c **** 		g_tModS.TxBuf[g_tModS.TxCount++] = m; /* У┐ћтЏътГЌУіѓТЋ░ */
 929              		.loc 1 442 3 is_stmt 1 view .LVU275
 442:modbus/RTUmodbus_slave.c **** 		g_tModS.TxBuf[g_tModS.TxCount++] = m; /* У┐ћтЏътГЌУіѓТЋ░ */
 930              		.loc 1 442 51 is_stmt 0 view .LVU276
 931 005e 5A78     		ldrb	r2, [r3, #1]	@ zero_extendqisi2
 442:modbus/RTUmodbus_slave.c **** 		g_tModS.TxBuf[g_tModS.TxCount++] = m; /* У┐ћтЏътГЌУіѓТЋ░ */
 932              		.loc 1 442 36 view .LVU277
 933 0060 83F82320 		strb	r2, [r3, #35]
 443:modbus/RTUmodbus_slave.c **** 
 934              		.loc 1 443 3 is_stmt 1 view .LVU278
 443:modbus/RTUmodbus_slave.c **** 
 935              		.loc 1 443 32 is_stmt 0 view .LVU279
 936 0064 0322     		movs	r2, #3
 937 0066 83F8A220 		strb	r2, [r3, #162]
 443:modbus/RTUmodbus_slave.c **** 
 938              		.loc 1 443 36 view .LVU280
 939 006a 83F82460 		strb	r6, [r3, #36]
 445:modbus/RTUmodbus_slave.c **** 		{
 940              		.loc 1 445 3 is_stmt 1 view .LVU281
 941              	.LVL74:
 445:modbus/RTUmodbus_slave.c **** 		{
 942              		.loc 1 445 10 is_stmt 0 view .LVU282
 943 006e 0023     		movs	r3, #0
 445:modbus/RTUmodbus_slave.c **** 		{
 944              		.loc 1 445 3 view .LVU283
 945 0070 22E0     		b	.L80
 946              	.LVL75:
 947              	.L87:
 418:modbus/RTUmodbus_slave.c **** 	if ((reg >= REG_T01) && (num > 0) && (reg + num <= REG_TXX + 1))
 948              		.loc 1 418 16 view .LVU284
 949 0072 0734     		adds	r4, r4, #7
 950 0074 DCE7     		b	.L72
 951              	.LVL76:
 952              	.L83:
 421:modbus/RTUmodbus_slave.c **** 		{
 953              		.loc 1 421 10 view .LVU285
ARM GAS  /tmp/cciZyHjk.s 			page 40


 954 0076 0023     		movs	r3, #0
 955              	.L74:
 956              	.LVL77:
 421:modbus/RTUmodbus_slave.c **** 		{
 957              		.loc 1 421 15 is_stmt 1 discriminator 1 view .LVU286
 421:modbus/RTUmodbus_slave.c **** 		{
 958              		.loc 1 421 3 is_stmt 0 discriminator 1 view .LVU287
 959 0078 A342     		cmp	r3, r4
 960 007a 07D2     		bcs	.L88
 423:modbus/RTUmodbus_slave.c **** 		}
 961              		.loc 1 423 4 is_stmt 1 discriminator 3 view .LVU288
 423:modbus/RTUmodbus_slave.c **** 		}
 962              		.loc 1 423 14 is_stmt 0 discriminator 3 view .LVU289
 963 007c 04AA     		add	r2, sp, #16
 964 007e 1A44     		add	r2, r2, r3
 965 0080 0021     		movs	r1, #0
 966 0082 02F80C1C 		strb	r1, [r2, #-12]
 421:modbus/RTUmodbus_slave.c **** 		{
 967              		.loc 1 421 22 is_stmt 1 discriminator 3 view .LVU290
 421:modbus/RTUmodbus_slave.c **** 		{
 968              		.loc 1 421 23 is_stmt 0 discriminator 3 view .LVU291
 969 0086 0133     		adds	r3, r3, #1
 970              	.LVL78:
 421:modbus/RTUmodbus_slave.c **** 		{
 971              		.loc 1 421 23 discriminator 3 view .LVU292
 972 0088 9BB2     		uxth	r3, r3
 973              	.LVL79:
 421:modbus/RTUmodbus_slave.c **** 		{
 974              		.loc 1 421 23 discriminator 3 view .LVU293
 975 008a F5E7     		b	.L74
 976              	.L88:
 425:modbus/RTUmodbus_slave.c **** 		{
 977              		.loc 1 425 10 view .LVU294
 978 008c 0023     		movs	r3, #0
 979              	.LVL80:
 425:modbus/RTUmodbus_slave.c **** 		{
 980              		.loc 1 425 10 view .LVU295
 981 008e 01E0     		b	.L76
 982              	.LVL81:
 983              	.L77:
 431:modbus/RTUmodbus_slave.c **** 	}
 984              		.loc 1 431 3 is_stmt 1 discriminator 3 view .LVU296
 425:modbus/RTUmodbus_slave.c **** 		{
 985              		.loc 1 425 24 discriminator 3 view .LVU297
 425:modbus/RTUmodbus_slave.c **** 		{
 986              		.loc 1 425 25 is_stmt 0 discriminator 3 view .LVU298
 987 0090 0133     		adds	r3, r3, #1
 988              	.LVL82:
 425:modbus/RTUmodbus_slave.c **** 		{
 989              		.loc 1 425 25 discriminator 3 view .LVU299
 990 0092 9BB2     		uxth	r3, r3
 991              	.LVL83:
 992              	.L76:
 425:modbus/RTUmodbus_slave.c **** 		{
 993              		.loc 1 425 15 is_stmt 1 discriminator 1 view .LVU300
 425:modbus/RTUmodbus_slave.c **** 		{
 994              		.loc 1 425 3 is_stmt 0 discriminator 1 view .LVU301
ARM GAS  /tmp/cciZyHjk.s 			page 41


 995 0094 8342     		cmp	r3, r0
 996 0096 FBD3     		bcc	.L77
 997 0098 D9E7     		b	.L78
 998              	.LVL84:
 999              	.L81:
 447:modbus/RTUmodbus_slave.c **** 		}
 1000              		.loc 1 447 4 is_stmt 1 discriminator 3 view .LVU302
 447:modbus/RTUmodbus_slave.c **** 		}
 1001              		.loc 1 447 25 is_stmt 0 discriminator 3 view .LVU303
 1002 009a 0E4A     		ldr	r2, .L89
 1003 009c 92F8A210 		ldrb	r1, [r2, #162]	@ zero_extendqisi2
 447:modbus/RTUmodbus_slave.c **** 		}
 1004              		.loc 1 447 33 discriminator 3 view .LVU304
 1005 00a0 481C     		adds	r0, r1, #1
 1006 00a2 82F8A200 		strb	r0, [r2, #162]
 447:modbus/RTUmodbus_slave.c **** 		}
 1007              		.loc 1 447 45 discriminator 3 view .LVU305
 1008 00a6 04A8     		add	r0, sp, #16
 1009 00a8 1844     		add	r0, r0, r3
 1010 00aa 10F80C0C 		ldrb	r0, [r0, #-12]	@ zero_extendqisi2
 447:modbus/RTUmodbus_slave.c **** 		}
 1011              		.loc 1 447 37 discriminator 3 view .LVU306
 1012 00ae 0A44     		add	r2, r2, r1
 1013 00b0 82F82200 		strb	r0, [r2, #34]
 445:modbus/RTUmodbus_slave.c **** 		{
 1014              		.loc 1 445 22 is_stmt 1 discriminator 3 view .LVU307
 445:modbus/RTUmodbus_slave.c **** 		{
 1015              		.loc 1 445 23 is_stmt 0 discriminator 3 view .LVU308
 1016 00b4 0133     		adds	r3, r3, #1
 1017              	.LVL85:
 445:modbus/RTUmodbus_slave.c **** 		{
 1018              		.loc 1 445 23 discriminator 3 view .LVU309
 1019 00b6 9BB2     		uxth	r3, r3
 1020              	.LVL86:
 1021              	.L80:
 445:modbus/RTUmodbus_slave.c **** 		{
 1022              		.loc 1 445 15 is_stmt 1 discriminator 1 view .LVU310
 445:modbus/RTUmodbus_slave.c **** 		{
 1023              		.loc 1 445 3 is_stmt 0 discriminator 1 view .LVU311
 1024 00b8 A342     		cmp	r3, r4
 1025 00ba EED3     		bcc	.L81
 449:modbus/RTUmodbus_slave.c **** 	}
 1026              		.loc 1 449 3 is_stmt 1 view .LVU312
 1027 00bc 0548     		ldr	r0, .L89
 1028 00be 90F8A210 		ldrb	r1, [r0, #162]	@ zero_extendqisi2
 1029 00c2 2230     		adds	r0, r0, #34
 1030 00c4 FFF7FEFF 		bl	MODS_SendWithCRC
 1031              	.LVL87:
 1032              	.L69:
 455:modbus/RTUmodbus_slave.c **** 
 1033              		.loc 1 455 1 is_stmt 0 view .LVU313
 1034 00c8 04B0     		add	sp, sp, #16
 1035              	.LCFI18:
 1036              		.cfi_remember_state
 1037              		.cfi_def_cfa_offset 16
 1038              		@ sp needed
 1039 00ca 70BD     		pop	{r4, r5, r6, pc}
ARM GAS  /tmp/cciZyHjk.s 			page 42


 1040              	.LVL88:
 1041              	.L79:
 1042              	.LCFI19:
 1043              		.cfi_restore_state
 453:modbus/RTUmodbus_slave.c **** 	}
 1044              		.loc 1 453 3 is_stmt 1 view .LVU314
 1045 00cc FFF7FEFF 		bl	MODS_SendAckErr
 1046              	.LVL89:
 1047 00d0 FAE7     		b	.L69
 1048              	.L90:
 1049 00d2 00BF     		.align	2
 1050              	.L89:
 1051 00d4 00000000 		.word	g_tModS
 1052 00d8 02000000 		.word	g_tModS+2
 1053              		.cfi_endproc
 1054              	.LFE11:
 1056              		.section	.text.MODS_04H,"ax",%progbits
 1057              		.align	1
 1058              		.syntax unified
 1059              		.thumb
 1060              		.thumb_func
 1061              		.fpu softvfp
 1063              	MODS_04H:
 1064              	.LFB15:
 705:modbus/RTUmodbus_slave.c **** 	/*
 1065              		.loc 1 705 1 view -0
 1066              		.cfi_startproc
 1067              		@ args = 0, pretend = 0, frame = 24
 1068              		@ frame_needed = 0, uses_anonymous_args = 0
 1069 0000 70B5     		push	{r4, r5, r6, lr}
 1070              	.LCFI20:
 1071              		.cfi_def_cfa_offset 16
 1072              		.cfi_offset 4, -16
 1073              		.cfi_offset 5, -12
 1074              		.cfi_offset 6, -8
 1075              		.cfi_offset 14, -4
 1076 0002 86B0     		sub	sp, sp, #24
 1077              	.LCFI21:
 1078              		.cfi_def_cfa_offset 40
 1079 0004 0026     		movs	r6, #0
 735:modbus/RTUmodbus_slave.c **** 	uint16_t num;
 1080              		.loc 1 735 2 view .LVU316
 736:modbus/RTUmodbus_slave.c **** 	uint16_t i;
 1081              		.loc 1 736 2 view .LVU317
 737:modbus/RTUmodbus_slave.c **** 	uint16_t status[10];
 1082              		.loc 1 737 2 view .LVU318
 738:modbus/RTUmodbus_slave.c **** 
 1083              		.loc 1 738 2 view .LVU319
 740:modbus/RTUmodbus_slave.c **** 
 1084              		.loc 1 740 2 view .LVU320
 1085 0006 0196     		str	r6, [sp, #4]
 1086 0008 0296     		str	r6, [sp, #8]
 1087 000a ADF80C60 		strh	r6, [sp, #12]	@ movhi
 742:modbus/RTUmodbus_slave.c **** 
 1088              		.loc 1 742 2 view .LVU321
 742:modbus/RTUmodbus_slave.c **** 
 1089              		.loc 1 742 18 is_stmt 0 view .LVU322
ARM GAS  /tmp/cciZyHjk.s 			page 43


 1090 000e 354B     		ldr	r3, .L104
 1091 0010 83F82160 		strb	r6, [r3, #33]
 744:modbus/RTUmodbus_slave.c **** 	{
 1092              		.loc 1 744 2 is_stmt 1 view .LVU323
 744:modbus/RTUmodbus_slave.c **** 	{
 1093              		.loc 1 744 13 is_stmt 0 view .LVU324
 1094 0014 9B7F     		ldrb	r3, [r3, #30]	@ zero_extendqisi2
 744:modbus/RTUmodbus_slave.c **** 	{
 1095              		.loc 1 744 5 view .LVU325
 1096 0016 082B     		cmp	r3, #8
 1097 0018 16D0     		beq	.L92
 746:modbus/RTUmodbus_slave.c **** 		goto err_ret;
 1098              		.loc 1 746 3 is_stmt 1 view .LVU326
 746:modbus/RTUmodbus_slave.c **** 		goto err_ret;
 1099              		.loc 1 746 19 is_stmt 0 view .LVU327
 1100 001a 324B     		ldr	r3, .L104
 1101 001c 0322     		movs	r2, #3
 1102 001e 83F82120 		strb	r2, [r3, #33]
 747:modbus/RTUmodbus_slave.c **** 	}
 1103              		.loc 1 747 3 is_stmt 1 view .LVU328
 1104              	.L93:
 1105              	.LVL90:
 776:modbus/RTUmodbus_slave.c **** 	{
 1106              		.loc 1 776 2 view .LVU329
 776:modbus/RTUmodbus_slave.c **** 	{
 1107              		.loc 1 776 13 is_stmt 0 view .LVU330
 1108 0022 304B     		ldr	r3, .L104
 1109 0024 93F82100 		ldrb	r0, [r3, #33]	@ zero_extendqisi2
 776:modbus/RTUmodbus_slave.c **** 	{
 1110              		.loc 1 776 5 view .LVU331
 1111 0028 0028     		cmp	r0, #0
 1112 002a 57D1     		bne	.L98
 778:modbus/RTUmodbus_slave.c **** 		g_tModS.TxBuf[g_tModS.TxCount++] = g_tModS.RxBuf[0];
 1113              		.loc 1 778 3 is_stmt 1 view .LVU332
 779:modbus/RTUmodbus_slave.c **** 		g_tModS.TxBuf[g_tModS.TxCount++] = g_tModS.RxBuf[1];
 1114              		.loc 1 779 3 view .LVU333
 779:modbus/RTUmodbus_slave.c **** 		g_tModS.TxBuf[g_tModS.TxCount++] = g_tModS.RxBuf[1];
 1115              		.loc 1 779 51 is_stmt 0 view .LVU334
 1116 002c 1A78     		ldrb	r2, [r3]	@ zero_extendqisi2
 779:modbus/RTUmodbus_slave.c **** 		g_tModS.TxBuf[g_tModS.TxCount++] = g_tModS.RxBuf[1];
 1117              		.loc 1 779 36 view .LVU335
 1118 002e 83F82220 		strb	r2, [r3, #34]
 780:modbus/RTUmodbus_slave.c **** 		g_tModS.TxBuf[g_tModS.TxCount++] = num * 2; /* У┐ћтЏътГЌУіѓТЋ░ */
 1119              		.loc 1 780 3 is_stmt 1 view .LVU336
 780:modbus/RTUmodbus_slave.c **** 		g_tModS.TxBuf[g_tModS.TxCount++] = num * 2; /* У┐ћтЏътГЌУіѓТЋ░ */
 1120              		.loc 1 780 51 is_stmt 0 view .LVU337
 1121 0032 5A78     		ldrb	r2, [r3, #1]	@ zero_extendqisi2
 780:modbus/RTUmodbus_slave.c **** 		g_tModS.TxBuf[g_tModS.TxCount++] = num * 2; /* У┐ћтЏътГЌУіѓТЋ░ */
 1122              		.loc 1 780 36 view .LVU338
 1123 0034 83F82320 		strb	r2, [r3, #35]
 781:modbus/RTUmodbus_slave.c **** 
 1124              		.loc 1 781 3 is_stmt 1 view .LVU339
 781:modbus/RTUmodbus_slave.c **** 
 1125              		.loc 1 781 32 is_stmt 0 view .LVU340
 1126 0038 0322     		movs	r2, #3
 1127 003a 83F8A220 		strb	r2, [r3, #162]
 781:modbus/RTUmodbus_slave.c **** 
ARM GAS  /tmp/cciZyHjk.s 			page 44


 1128              		.loc 1 781 36 view .LVU341
 1129 003e 7200     		lsls	r2, r6, #1
 1130 0040 83F82420 		strb	r2, [r3, #36]
 783:modbus/RTUmodbus_slave.c **** 		{
 1131              		.loc 1 783 3 is_stmt 1 view .LVU342
 1132              	.LVL91:
 783:modbus/RTUmodbus_slave.c **** 		{
 1133              		.loc 1 783 10 is_stmt 0 view .LVU343
 1134 0044 0022     		movs	r2, #0
 783:modbus/RTUmodbus_slave.c **** 		{
 1135              		.loc 1 783 3 view .LVU344
 1136 0046 3FE0     		b	.L99
 1137              	.LVL92:
 1138              	.L92:
 750:modbus/RTUmodbus_slave.c **** 	num = BEBufToUint16(&g_tModS.RxBuf[4]); /* т»ётГўтЎеСИфТЋ░ */
 1139              		.loc 1 750 2 is_stmt 1 view .LVU345
 750:modbus/RTUmodbus_slave.c **** 	num = BEBufToUint16(&g_tModS.RxBuf[4]); /* т»ётГўтЎеСИфТЋ░ */
 1140              		.loc 1 750 8 is_stmt 0 view .LVU346
 1141 0048 274D     		ldr	r5, .L104+4
 1142 004a 2846     		mov	r0, r5
 1143 004c FFF7FEFF 		bl	BEBufToUint16
 1144              	.LVL93:
 1145 0050 0446     		mov	r4, r0
 1146              	.LVL94:
 751:modbus/RTUmodbus_slave.c **** 
 1147              		.loc 1 751 2 is_stmt 1 view .LVU347
 751:modbus/RTUmodbus_slave.c **** 
 1148              		.loc 1 751 8 is_stmt 0 view .LVU348
 1149 0052 A81C     		adds	r0, r5, #2
 1150 0054 FFF7FEFF 		bl	BEBufToUint16
 1151              	.LVL95:
 1152 0058 0646     		mov	r6, r0
 1153              	.LVL96:
 753:modbus/RTUmodbus_slave.c **** 	{
 1154              		.loc 1 753 2 is_stmt 1 view .LVU349
 753:modbus/RTUmodbus_slave.c **** 	{
 1155              		.loc 1 753 5 is_stmt 0 view .LVU350
 1156 005a B4F5806F 		cmp	r4, #1024
 1157 005e 05D9     		bls	.L94
 753:modbus/RTUmodbus_slave.c **** 	{
 1158              		.loc 1 753 23 discriminator 1 view .LVU351
 1159 0060 20B1     		cbz	r0, .L94
 753:modbus/RTUmodbus_slave.c **** 	{
 1160              		.loc 1 753 44 discriminator 2 view .LVU352
 1161 0062 2218     		adds	r2, r4, r0
 753:modbus/RTUmodbus_slave.c **** 	{
 1162              		.loc 1 753 36 discriminator 2 view .LVU353
 1163 0064 40F20243 		movw	r3, #1026
 1164 0068 9A42     		cmp	r2, r3
 1165 006a 15DD     		ble	.L102
 1166              	.L94:
 772:modbus/RTUmodbus_slave.c **** 	}
 1167              		.loc 1 772 3 is_stmt 1 view .LVU354
 772:modbus/RTUmodbus_slave.c **** 	}
 1168              		.loc 1 772 19 is_stmt 0 view .LVU355
 1169 006c 1D4B     		ldr	r3, .L104
 1170 006e 0222     		movs	r2, #2
ARM GAS  /tmp/cciZyHjk.s 			page 45


 1171 0070 83F82120 		strb	r2, [r3, #33]
 1172 0074 D5E7     		b	.L93
 1173              	.LVL97:
 1174              	.L96:
 767:modbus/RTUmodbus_slave.c **** 		}
 1175              		.loc 1 767 4 is_stmt 1 discriminator 2 view .LVU356
 767:modbus/RTUmodbus_slave.c **** 		}
 1176              		.loc 1 767 7 is_stmt 0 discriminator 2 view .LVU357
 1177 0076 0134     		adds	r4, r4, #1
 1178              	.LVL98:
 767:modbus/RTUmodbus_slave.c **** 		}
 1179              		.loc 1 767 7 discriminator 2 view .LVU358
 1180 0078 A4B2     		uxth	r4, r4
 1181              	.LVL99:
 755:modbus/RTUmodbus_slave.c **** 		{
 1182              		.loc 1 755 24 is_stmt 1 discriminator 2 view .LVU359
 755:modbus/RTUmodbus_slave.c **** 		{
 1183              		.loc 1 755 25 is_stmt 0 discriminator 2 view .LVU360
 1184 007a 0133     		adds	r3, r3, #1
 1185              	.LVL100:
 755:modbus/RTUmodbus_slave.c **** 		{
 1186              		.loc 1 755 25 discriminator 2 view .LVU361
 1187 007c 9BB2     		uxth	r3, r3
 1188              	.LVL101:
 1189              	.L95:
 755:modbus/RTUmodbus_slave.c **** 		{
 1190              		.loc 1 755 15 is_stmt 1 discriminator 1 view .LVU362
 755:modbus/RTUmodbus_slave.c **** 		{
 1191              		.loc 1 755 3 is_stmt 0 discriminator 1 view .LVU363
 1192 007e B342     		cmp	r3, r6
 1193 0080 CFD2     		bcs	.L93
 757:modbus/RTUmodbus_slave.c **** 			{
 1194              		.loc 1 757 4 is_stmt 1 view .LVU364
 1195 0082 40F20142 		movw	r2, #1025
 1196 0086 9442     		cmp	r4, r2
 1197 0088 F5D0     		beq	.L96
 764:modbus/RTUmodbus_slave.c **** 				break;
 1198              		.loc 1 764 5 view .LVU365
 764:modbus/RTUmodbus_slave.c **** 				break;
 1199              		.loc 1 764 15 is_stmt 0 view .LVU366
 1200 008a 0021     		movs	r1, #0
 1201 008c 06AA     		add	r2, sp, #24
 1202 008e 02EB4302 		add	r2, r2, r3, lsl #1
 1203 0092 22F8141C 		strh	r1, [r2, #-20]	@ movhi
 765:modbus/RTUmodbus_slave.c **** 			}
 1204              		.loc 1 765 5 is_stmt 1 view .LVU367
 1205 0096 EEE7     		b	.L96
 1206              	.LVL102:
 1207              	.L102:
 755:modbus/RTUmodbus_slave.c **** 		{
 1208              		.loc 1 755 10 is_stmt 0 view .LVU368
 1209 0098 0023     		movs	r3, #0
 1210 009a F0E7     		b	.L95
 1211              	.LVL103:
 1212              	.L100:
 785:modbus/RTUmodbus_slave.c **** 			g_tModS.TxBuf[g_tModS.TxCount++] = status[i] & 0xFF;
 1213              		.loc 1 785 4 is_stmt 1 discriminator 3 view .LVU369
ARM GAS  /tmp/cciZyHjk.s 			page 46


 785:modbus/RTUmodbus_slave.c **** 			g_tModS.TxBuf[g_tModS.TxCount++] = status[i] & 0xFF;
 1214              		.loc 1 785 45 is_stmt 0 discriminator 3 view .LVU370
 1215 009c 06AB     		add	r3, sp, #24
 1216 009e 03EB4203 		add	r3, r3, r2, lsl #1
 1217 00a2 33F8145C 		ldrh	r5, [r3, #-20]
 785:modbus/RTUmodbus_slave.c **** 			g_tModS.TxBuf[g_tModS.TxCount++] = status[i] & 0xFF;
 1218              		.loc 1 785 25 discriminator 3 view .LVU371
 1219 00a6 0F4B     		ldr	r3, .L104
 1220 00a8 93F8A240 		ldrb	r4, [r3, #162]	@ zero_extendqisi2
 785:modbus/RTUmodbus_slave.c **** 			g_tModS.TxBuf[g_tModS.TxCount++] = status[i] & 0xFF;
 1221              		.loc 1 785 33 discriminator 3 view .LVU372
 1222 00ac 611C     		adds	r1, r4, #1
 1223 00ae C9B2     		uxtb	r1, r1
 785:modbus/RTUmodbus_slave.c **** 			g_tModS.TxBuf[g_tModS.TxCount++] = status[i] & 0xFF;
 1224              		.loc 1 785 37 discriminator 3 view .LVU373
 1225 00b0 1C44     		add	r4, r4, r3
 1226 00b2 280A     		lsrs	r0, r5, #8
 1227 00b4 84F82200 		strb	r0, [r4, #34]
 786:modbus/RTUmodbus_slave.c **** 		}
 1228              		.loc 1 786 4 is_stmt 1 discriminator 3 view .LVU374
 786:modbus/RTUmodbus_slave.c **** 		}
 1229              		.loc 1 786 33 is_stmt 0 discriminator 3 view .LVU375
 1230 00b8 481C     		adds	r0, r1, #1
 1231 00ba 83F8A200 		strb	r0, [r3, #162]
 786:modbus/RTUmodbus_slave.c **** 		}
 1232              		.loc 1 786 37 discriminator 3 view .LVU376
 1233 00be 0B44     		add	r3, r3, r1
 1234 00c0 83F82250 		strb	r5, [r3, #34]
 783:modbus/RTUmodbus_slave.c **** 		{
 1235              		.loc 1 783 24 is_stmt 1 discriminator 3 view .LVU377
 783:modbus/RTUmodbus_slave.c **** 		{
 1236              		.loc 1 783 25 is_stmt 0 discriminator 3 view .LVU378
 1237 00c4 0132     		adds	r2, r2, #1
 1238              	.LVL104:
 783:modbus/RTUmodbus_slave.c **** 		{
 1239              		.loc 1 783 25 discriminator 3 view .LVU379
 1240 00c6 92B2     		uxth	r2, r2
 1241              	.LVL105:
 1242              	.L99:
 783:modbus/RTUmodbus_slave.c **** 		{
 1243              		.loc 1 783 15 is_stmt 1 discriminator 1 view .LVU380
 783:modbus/RTUmodbus_slave.c **** 		{
 1244              		.loc 1 783 3 is_stmt 0 discriminator 1 view .LVU381
 1245 00c8 9642     		cmp	r6, r2
 1246 00ca E7D8     		bhi	.L100
 788:modbus/RTUmodbus_slave.c **** 	}
 1247              		.loc 1 788 3 is_stmt 1 view .LVU382
 1248 00cc 0548     		ldr	r0, .L104
 1249 00ce 90F8A210 		ldrb	r1, [r0, #162]	@ zero_extendqisi2
 1250 00d2 2230     		adds	r0, r0, #34
 1251 00d4 FFF7FEFF 		bl	MODS_SendWithCRC
 1252              	.LVL106:
 1253              	.L91:
 794:modbus/RTUmodbus_slave.c **** 
 1254              		.loc 1 794 1 is_stmt 0 view .LVU383
 1255 00d8 06B0     		add	sp, sp, #24
 1256              	.LCFI22:
ARM GAS  /tmp/cciZyHjk.s 			page 47


 1257              		.cfi_remember_state
 1258              		.cfi_def_cfa_offset 16
 1259              		@ sp needed
 1260 00da 70BD     		pop	{r4, r5, r6, pc}
 1261              	.LVL107:
 1262              	.L98:
 1263              	.LCFI23:
 1264              		.cfi_restore_state
 792:modbus/RTUmodbus_slave.c **** 	}
 1265              		.loc 1 792 3 is_stmt 1 view .LVU384
 1266 00dc FFF7FEFF 		bl	MODS_SendAckErr
 1267              	.LVL108:
 794:modbus/RTUmodbus_slave.c **** 
 1268              		.loc 1 794 1 is_stmt 0 view .LVU385
 1269 00e0 FAE7     		b	.L91
 1270              	.L105:
 1271 00e2 00BF     		.align	2
 1272              	.L104:
 1273 00e4 00000000 		.word	g_tModS
 1274 00e8 02000000 		.word	g_tModS+2
 1275              		.cfi_endproc
 1276              	.LFE15:
 1278              		.section	.text.MODS_ReciveNew_no_timer,"ax",%progbits
 1279              		.align	1
 1280              		.global	MODS_ReciveNew_no_timer
 1281              		.syntax unified
 1282              		.thumb
 1283              		.thumb_func
 1284              		.fpu softvfp
 1286              	MODS_ReciveNew_no_timer:
 1287              	.LVL109:
 1288              	.LFB4:
 127:modbus/RTUmodbus_slave.c **** 	g_mods_timeout = 0;
 1289              		.loc 1 127 1 is_stmt 1 view -0
 1290              		.cfi_startproc
 1291              		@ args = 0, pretend = 0, frame = 0
 1292              		@ frame_needed = 0, uses_anonymous_args = 0
 1293              		@ link register save eliminated.
 128:modbus/RTUmodbus_slave.c **** 	if (g_tModS.RxCount < S_RX_BUF_SIZE)
 1294              		.loc 1 128 2 view .LVU387
 128:modbus/RTUmodbus_slave.c **** 	if (g_tModS.RxCount < S_RX_BUF_SIZE)
 1295              		.loc 1 128 17 is_stmt 0 view .LVU388
 1296 0000 054B     		ldr	r3, .L108
 1297 0002 0022     		movs	r2, #0
 1298 0004 1A70     		strb	r2, [r3]
 129:modbus/RTUmodbus_slave.c **** 	{
 1299              		.loc 1 129 2 is_stmt 1 view .LVU389
 129:modbus/RTUmodbus_slave.c **** 	{
 1300              		.loc 1 129 13 is_stmt 0 view .LVU390
 1301 0006 054B     		ldr	r3, .L108+4
 1302 0008 9B7F     		ldrb	r3, [r3, #30]	@ zero_extendqisi2
 129:modbus/RTUmodbus_slave.c **** 	{
 1303              		.loc 1 129 5 view .LVU391
 1304 000a 1D2B     		cmp	r3, #29
 1305 000c 03D8     		bhi	.L106
 131:modbus/RTUmodbus_slave.c **** 	}
 1306              		.loc 1 131 3 is_stmt 1 view .LVU392
ARM GAS  /tmp/cciZyHjk.s 			page 48


 131:modbus/RTUmodbus_slave.c **** 	}
 1307              		.loc 1 131 32 is_stmt 0 view .LVU393
 1308 000e 034A     		ldr	r2, .L108+4
 1309 0010 591C     		adds	r1, r3, #1
 1310 0012 9177     		strb	r1, [r2, #30]
 131:modbus/RTUmodbus_slave.c **** 	}
 1311              		.loc 1 131 36 view .LVU394
 1312 0014 D054     		strb	r0, [r2, r3]
 1313              	.L106:
 133:modbus/RTUmodbus_slave.c **** 
 1314              		.loc 1 133 1 view .LVU395
 1315 0016 7047     		bx	lr
 1316              	.L109:
 1317              		.align	2
 1318              	.L108:
 1319 0018 00000000 		.word	.LANCHOR0
 1320 001c 00000000 		.word	g_tModS
 1321              		.cfi_endproc
 1322              	.LFE4:
 1324              		.section	.text.MODS_RxTimeOut,"ax",%progbits
 1325              		.align	1
 1326              		.global	MODS_RxTimeOut
 1327              		.syntax unified
 1328              		.thumb
 1329              		.thumb_func
 1330              		.fpu softvfp
 1332              	MODS_RxTimeOut:
 1333              	.LFB5:
 144:modbus/RTUmodbus_slave.c **** 	g_mods_timeout = 1;
 1334              		.loc 1 144 1 is_stmt 1 view -0
 1335              		.cfi_startproc
 1336              		@ args = 0, pretend = 0, frame = 0
 1337              		@ frame_needed = 0, uses_anonymous_args = 0
 1338              		@ link register save eliminated.
 145:modbus/RTUmodbus_slave.c **** }
 1339              		.loc 1 145 2 view .LVU397
 145:modbus/RTUmodbus_slave.c **** }
 1340              		.loc 1 145 17 is_stmt 0 view .LVU398
 1341 0000 014B     		ldr	r3, .L111
 1342 0002 0122     		movs	r2, #1
 1343 0004 1A70     		strb	r2, [r3]
 146:modbus/RTUmodbus_slave.c **** 
 1344              		.loc 1 146 1 view .LVU399
 1345 0006 7047     		bx	lr
 1346              	.L112:
 1347              		.align	2
 1348              	.L111:
 1349 0008 00000000 		.word	.LANCHOR0
 1350              		.cfi_endproc
 1351              	.LFE5:
 1353              		.section	.text.convert_float_to_uint32,"ax",%progbits
 1354              		.align	1
 1355              		.global	convert_float_to_uint32
 1356              		.syntax unified
 1357              		.thumb
 1358              		.thumb_func
 1359              		.fpu softvfp
ARM GAS  /tmp/cciZyHjk.s 			page 49


 1361              	convert_float_to_uint32:
 1362              	.LVL110:
 1363              	.LFB19:
1063:modbus/RTUmodbus_slave.c **** 
1064:modbus/RTUmodbus_slave.c **** uint32_t convert_float_to_uint32(float data)
1065:modbus/RTUmodbus_slave.c **** {
 1364              		.loc 1 1065 1 is_stmt 1 view -0
 1365              		.cfi_startproc
 1366              		@ args = 0, pretend = 0, frame = 0
 1367              		@ frame_needed = 0, uses_anonymous_args = 0
 1368              		@ link register save eliminated.
1066:modbus/RTUmodbus_slave.c **** 	union
 1369              		.loc 1 1066 2 view .LVU401
1067:modbus/RTUmodbus_slave.c **** 	{
1068:modbus/RTUmodbus_slave.c **** 		uint32_t uint32_data;
1069:modbus/RTUmodbus_slave.c **** 		float float_data;
1070:modbus/RTUmodbus_slave.c **** 	} convert_util;
1071:modbus/RTUmodbus_slave.c **** 	convert_util.float_data = data;
 1370              		.loc 1 1071 2 view .LVU402
1072:modbus/RTUmodbus_slave.c **** 	return convert_util.uint32_data;
 1371              		.loc 1 1072 2 view .LVU403
1073:modbus/RTUmodbus_slave.c **** }...
 1372              		.loc 1 1073 1 is_stmt 0 view .LVU404
 1373 0000 7047     		bx	lr
 1374              		.cfi_endproc
 1375              	.LFE19:
 1377              		.section	.text.MODS_ReadRegValue,"ax",%progbits
 1378              		.align	1
 1379              		.syntax unified
 1380              		.thumb
 1381              		.thumb_func
 1382              		.fpu softvfp
 1384              	MODS_ReadRegValue:
 1385              	.LVL111:
 1386              	.LFB12:
 467:modbus/RTUmodbus_slave.c **** {
 1387              		.loc 1 467 1 is_stmt 1 view -0
 1388              		.cfi_startproc
 1389              		@ args = 0, pretend = 0, frame = 24
 1390              		@ frame_needed = 0, uses_anonymous_args = 0
 467:modbus/RTUmodbus_slave.c **** {
 1391              		.loc 1 467 1 is_stmt 0 view .LVU406
 1392 0000 10B5     		push	{r4, lr}
 1393              	.LCFI24:
 1394              		.cfi_def_cfa_offset 8
 1395              		.cfi_offset 4, -8
 1396              		.cfi_offset 14, -4
 1397 0002 86B0     		sub	sp, sp, #24
 1398              	.LCFI25:
 1399              		.cfi_def_cfa_offset 32
 1400 0004 0C46     		mov	r4, r1
 468:modbus/RTUmodbus_slave.c **** 	uint16_t value;
 1401              		.loc 1 468 2 is_stmt 1 view .LVU407
 469:modbus/RTUmodbus_slave.c **** 	float temp, hum = 0;
 1402              		.loc 1 469 2 view .LVU408
 469:modbus/RTUmodbus_slave.c **** 	float temp, hum = 0;
 1403              		.loc 1 469 14 is_stmt 0 view .LVU409
ARM GAS  /tmp/cciZyHjk.s 			page 50


 1404 0006 0023     		movs	r3, #0
 1405 0008 0493     		str	r3, [sp, #16]	@ float
 470:modbus/RTUmodbus_slave.c **** 	float x_data, y_data, z_data = 0;
 1406              		.loc 1 470 2 is_stmt 1 view .LVU410
 470:modbus/RTUmodbus_slave.c **** 	float x_data, y_data, z_data = 0;
 1407              		.loc 1 470 24 is_stmt 0 view .LVU411
 1408 000a 0193     		str	r3, [sp, #4]	@ float
 471:modbus/RTUmodbus_slave.c **** 	switch (reg_addr) /* тѕцТќГт»ётГўтЎетю░тЮђ */
 1409              		.loc 1 471 2 is_stmt 1 view .LVU412
 1410 000c 0A28     		cmp	r0, #10
 1411 000e 6ED8     		bhi	.L128
 1412 0010 DFE800F0 		tbb	[pc, r0]
 1413              	.L117:
 1414 0014 06       		.byte	(.L127-.L117)/2
 1415 0015 0F       		.byte	(.L126-.L117)/2
 1416 0016 18       		.byte	(.L125-.L117)/2
 1417 0017 21       		.byte	(.L124-.L117)/2
 1418 0018 2A       		.byte	(.L123-.L117)/2
 1419 0019 34       		.byte	(.L122-.L117)/2
 1420 001a 3E       		.byte	(.L121-.L117)/2
 1421 001b 48       		.byte	(.L120-.L117)/2
 1422 001c 52       		.byte	(.L119-.L117)/2
 1423 001d 5C       		.byte	(.L118-.L117)/2
 1424 001e 66       		.byte	(.L129-.L117)/2
 1425 001f 00       		.p2align 1
 1426              	.L127:
 1427              	.LBB2:
 476:modbus/RTUmodbus_slave.c **** 		get_local_dht22_data(&temp, &hum);
 1428              		.loc 1 476 3 view .LVU413
 1429 0020 04A9     		add	r1, sp, #16
 1430              	.LVL112:
 476:modbus/RTUmodbus_slave.c **** 		get_local_dht22_data(&temp, &hum);
 1431              		.loc 1 476 3 is_stmt 0 view .LVU414
 1432 0022 05A8     		add	r0, sp, #20
 1433              	.LVL113:
 476:modbus/RTUmodbus_slave.c **** 		get_local_dht22_data(&temp, &hum);
 1434              		.loc 1 476 3 view .LVU415
 1435 0024 FFF7FEFF 		bl	get_local_dht22_data
 1436              	.LVL114:
 477:modbus/RTUmodbus_slave.c **** 		uint32_t temper_32 = convert_float_to_uint32(temp);
 1437              		.loc 1 477 3 is_stmt 1 view .LVU416
 477:modbus/RTUmodbus_slave.c **** 		uint32_t temper_32 = convert_float_to_uint32(temp);
 1438              		.loc 1 477 24 is_stmt 0 view .LVU417
 1439 0028 0598     		ldr	r0, [sp, #20]	@ float
 1440 002a FFF7FEFF 		bl	convert_float_to_uint32
 1441              	.LVL115:
 478:modbus/RTUmodbus_slave.c **** 		value = temper_32 >> 16;
 1442              		.loc 1 478 3 is_stmt 1 view .LVU418
 478:modbus/RTUmodbus_slave.c **** 		value = temper_32 >> 16;
 1443              		.loc 1 478 9 is_stmt 0 view .LVU419
 1444 002e 000C     		lsrs	r0, r0, #16
 1445              	.LVL116:
 479:modbus/RTUmodbus_slave.c **** 		break;
 1446              		.loc 1 479 3 is_stmt 1 view .LVU420
 1447 0030 57E0     		b	.L116
 1448              	.LVL117:
 1449              	.L126:
ARM GAS  /tmp/cciZyHjk.s 			page 51


 479:modbus/RTUmodbus_slave.c **** 		break;
 1450              		.loc 1 479 3 is_stmt 0 view .LVU421
 1451              	.LBE2:
 1452              	.LBB3:
 483:modbus/RTUmodbus_slave.c **** 		get_local_dht22_data(&temp, &hum);
 1453              		.loc 1 483 3 is_stmt 1 view .LVU422
 1454 0032 04A9     		add	r1, sp, #16
 1455              	.LVL118:
 483:modbus/RTUmodbus_slave.c **** 		get_local_dht22_data(&temp, &hum);
 1456              		.loc 1 483 3 is_stmt 0 view .LVU423
 1457 0034 05A8     		add	r0, sp, #20
 1458              	.LVL119:
 483:modbus/RTUmodbus_slave.c **** 		get_local_dht22_data(&temp, &hum);
 1459              		.loc 1 483 3 view .LVU424
 1460 0036 FFF7FEFF 		bl	get_local_dht22_data
 1461              	.LVL120:
 484:modbus/RTUmodbus_slave.c **** 		uint32_t temper_32 = convert_float_to_uint32(temp);
 1462              		.loc 1 484 3 is_stmt 1 view .LVU425
 484:modbus/RTUmodbus_slave.c **** 		uint32_t temper_32 = convert_float_to_uint32(temp);
 1463              		.loc 1 484 24 is_stmt 0 view .LVU426
 1464 003a 0598     		ldr	r0, [sp, #20]	@ float
 1465 003c FFF7FEFF 		bl	convert_float_to_uint32
 1466              	.LVL121:
 485:modbus/RTUmodbus_slave.c **** 		value = temper_32;
 1467              		.loc 1 485 3 is_stmt 1 view .LVU427
 485:modbus/RTUmodbus_slave.c **** 		value = temper_32;
 1468              		.loc 1 485 9 is_stmt 0 view .LVU428
 1469 0040 80B2     		uxth	r0, r0
 1470              	.LVL122:
 486:modbus/RTUmodbus_slave.c **** 		break;
 1471              		.loc 1 486 3 is_stmt 1 view .LVU429
 1472 0042 4EE0     		b	.L116
 1473              	.LVL123:
 1474              	.L125:
 486:modbus/RTUmodbus_slave.c **** 		break;
 1475              		.loc 1 486 3 is_stmt 0 view .LVU430
 1476              	.LBE3:
 1477              	.LBB4:
 490:modbus/RTUmodbus_slave.c **** 		get_local_dht22_data(&temp, &hum);
 1478              		.loc 1 490 3 is_stmt 1 view .LVU431
 1479 0044 04A9     		add	r1, sp, #16
 1480              	.LVL124:
 490:modbus/RTUmodbus_slave.c **** 		get_local_dht22_data(&temp, &hum);
 1481              		.loc 1 490 3 is_stmt 0 view .LVU432
 1482 0046 05A8     		add	r0, sp, #20
 1483              	.LVL125:
 490:modbus/RTUmodbus_slave.c **** 		get_local_dht22_data(&temp, &hum);
 1484              		.loc 1 490 3 view .LVU433
 1485 0048 FFF7FEFF 		bl	get_local_dht22_data
 1486              	.LVL126:
 491:modbus/RTUmodbus_slave.c **** 		uint32_t hum_32 = convert_float_to_uint32(hum);
 1487              		.loc 1 491 3 is_stmt 1 view .LVU434
 491:modbus/RTUmodbus_slave.c **** 		uint32_t hum_32 = convert_float_to_uint32(hum);
 1488              		.loc 1 491 21 is_stmt 0 view .LVU435
 1489 004c 0498     		ldr	r0, [sp, #16]	@ float
 1490 004e FFF7FEFF 		bl	convert_float_to_uint32
 1491              	.LVL127:
ARM GAS  /tmp/cciZyHjk.s 			page 52


 492:modbus/RTUmodbus_slave.c **** 		value = hum_32 >> 16;
 1492              		.loc 1 492 3 is_stmt 1 view .LVU436
 492:modbus/RTUmodbus_slave.c **** 		value = hum_32 >> 16;
 1493              		.loc 1 492 9 is_stmt 0 view .LVU437
 1494 0052 000C     		lsrs	r0, r0, #16
 1495              	.LVL128:
 493:modbus/RTUmodbus_slave.c **** 		break;
 1496              		.loc 1 493 3 is_stmt 1 view .LVU438
 1497 0054 45E0     		b	.L116
 1498              	.LVL129:
 1499              	.L124:
 493:modbus/RTUmodbus_slave.c **** 		break;
 1500              		.loc 1 493 3 is_stmt 0 view .LVU439
 1501              	.LBE4:
 1502              	.LBB5:
 497:modbus/RTUmodbus_slave.c **** 		get_local_dht22_data(&temp, &hum);
 1503              		.loc 1 497 3 is_stmt 1 view .LVU440
 1504 0056 04A9     		add	r1, sp, #16
 1505              	.LVL130:
 497:modbus/RTUmodbus_slave.c **** 		get_local_dht22_data(&temp, &hum);
 1506              		.loc 1 497 3 is_stmt 0 view .LVU441
 1507 0058 05A8     		add	r0, sp, #20
 1508              	.LVL131:
 497:modbus/RTUmodbus_slave.c **** 		get_local_dht22_data(&temp, &hum);
 1509              		.loc 1 497 3 view .LVU442
 1510 005a FFF7FEFF 		bl	get_local_dht22_data
 1511              	.LVL132:
 498:modbus/RTUmodbus_slave.c **** 		uint32_t hum_32 = convert_float_to_uint32(hum);
 1512              		.loc 1 498 3 is_stmt 1 view .LVU443
 498:modbus/RTUmodbus_slave.c **** 		uint32_t hum_32 = convert_float_to_uint32(hum);
 1513              		.loc 1 498 21 is_stmt 0 view .LVU444
 1514 005e 0498     		ldr	r0, [sp, #16]	@ float
 1515 0060 FFF7FEFF 		bl	convert_float_to_uint32
 1516              	.LVL133:
 499:modbus/RTUmodbus_slave.c **** 		value = hum_32;
 1517              		.loc 1 499 3 is_stmt 1 view .LVU445
 499:modbus/RTUmodbus_slave.c **** 		value = hum_32;
 1518              		.loc 1 499 9 is_stmt 0 view .LVU446
 1519 0064 80B2     		uxth	r0, r0
 1520              	.LVL134:
 500:modbus/RTUmodbus_slave.c **** 		break;
 1521              		.loc 1 500 3 is_stmt 1 view .LVU447
 1522 0066 3CE0     		b	.L116
 1523              	.LVL135:
 1524              	.L123:
 500:modbus/RTUmodbus_slave.c **** 		break;
 1525              		.loc 1 500 3 is_stmt 0 view .LVU448
 1526              	.LBE5:
 1527              	.LBB6:
 505:modbus/RTUmodbus_slave.c **** 		get_local_adxl_345_data(&x_data, &y_data, &z_data);
 1528              		.loc 1 505 3 is_stmt 1 view .LVU449
 1529 0068 01AA     		add	r2, sp, #4
 1530 006a 02A9     		add	r1, sp, #8
 1531              	.LVL136:
 505:modbus/RTUmodbus_slave.c **** 		get_local_adxl_345_data(&x_data, &y_data, &z_data);
 1532              		.loc 1 505 3 is_stmt 0 view .LVU450
 1533 006c 03A8     		add	r0, sp, #12
ARM GAS  /tmp/cciZyHjk.s 			page 53


 1534              	.LVL137:
 505:modbus/RTUmodbus_slave.c **** 		get_local_adxl_345_data(&x_data, &y_data, &z_data);
 1535              		.loc 1 505 3 view .LVU451
 1536 006e FFF7FEFF 		bl	get_local_adxl_345_data
 1537              	.LVL138:
 506:modbus/RTUmodbus_slave.c **** 		uint32_t x_data_32 = convert_float_to_uint32(x_data);
 1538              		.loc 1 506 3 is_stmt 1 view .LVU452
 506:modbus/RTUmodbus_slave.c **** 		uint32_t x_data_32 = convert_float_to_uint32(x_data);
 1539              		.loc 1 506 24 is_stmt 0 view .LVU453
 1540 0072 0398     		ldr	r0, [sp, #12]	@ float
 1541 0074 FFF7FEFF 		bl	convert_float_to_uint32
 1542              	.LVL139:
 507:modbus/RTUmodbus_slave.c **** 		value = x_data_32 >> 16;
 1543              		.loc 1 507 3 is_stmt 1 view .LVU454
 507:modbus/RTUmodbus_slave.c **** 		value = x_data_32 >> 16;
 1544              		.loc 1 507 9 is_stmt 0 view .LVU455
 1545 0078 000C     		lsrs	r0, r0, #16
 1546              	.LVL140:
 508:modbus/RTUmodbus_slave.c **** 		break;
 1547              		.loc 1 508 3 is_stmt 1 view .LVU456
 1548 007a 32E0     		b	.L116
 1549              	.LVL141:
 1550              	.L122:
 508:modbus/RTUmodbus_slave.c **** 		break;
 1551              		.loc 1 508 3 is_stmt 0 view .LVU457
 1552              	.LBE6:
 1553              	.LBB7:
 512:modbus/RTUmodbus_slave.c **** 		get_local_adxl_345_data(&x_data, &y_data, &z_data);
 1554              		.loc 1 512 3 is_stmt 1 view .LVU458
 1555 007c 01AA     		add	r2, sp, #4
 1556 007e 02A9     		add	r1, sp, #8
 1557              	.LVL142:
 512:modbus/RTUmodbus_slave.c **** 		get_local_adxl_345_data(&x_data, &y_data, &z_data);
 1558              		.loc 1 512 3 is_stmt 0 view .LVU459
 1559 0080 03A8     		add	r0, sp, #12
 1560              	.LVL143:
 512:modbus/RTUmodbus_slave.c **** 		get_local_adxl_345_data(&x_data, &y_data, &z_data);
 1561              		.loc 1 512 3 view .LVU460
 1562 0082 FFF7FEFF 		bl	get_local_adxl_345_data
 1563              	.LVL144:
 513:modbus/RTUmodbus_slave.c **** 		uint32_t x_data_32 = convert_float_to_uint32(x_data);
 1564              		.loc 1 513 3 is_stmt 1 view .LVU461
 513:modbus/RTUmodbus_slave.c **** 		uint32_t x_data_32 = convert_float_to_uint32(x_data);
 1565              		.loc 1 513 24 is_stmt 0 view .LVU462
 1566 0086 0398     		ldr	r0, [sp, #12]	@ float
 1567 0088 FFF7FEFF 		bl	convert_float_to_uint32
 1568              	.LVL145:
 514:modbus/RTUmodbus_slave.c **** 		value = x_data_32;
 1569              		.loc 1 514 3 is_stmt 1 view .LVU463
 514:modbus/RTUmodbus_slave.c **** 		value = x_data_32;
 1570              		.loc 1 514 9 is_stmt 0 view .LVU464
 1571 008c 80B2     		uxth	r0, r0
 1572              	.LVL146:
 515:modbus/RTUmodbus_slave.c **** 		break;
 1573              		.loc 1 515 3 is_stmt 1 view .LVU465
 1574 008e 28E0     		b	.L116
 1575              	.LVL147:
ARM GAS  /tmp/cciZyHjk.s 			page 54


 1576              	.L121:
 515:modbus/RTUmodbus_slave.c **** 		break;
 1577              		.loc 1 515 3 is_stmt 0 view .LVU466
 1578              	.LBE7:
 1579              	.LBB8:
 519:modbus/RTUmodbus_slave.c **** 		get_local_adxl_345_data(&x_data, &y_data, &z_data);
 1580              		.loc 1 519 3 is_stmt 1 view .LVU467
 1581 0090 01AA     		add	r2, sp, #4
 1582 0092 02A9     		add	r1, sp, #8
 1583              	.LVL148:
 519:modbus/RTUmodbus_slave.c **** 		get_local_adxl_345_data(&x_data, &y_data, &z_data);
 1584              		.loc 1 519 3 is_stmt 0 view .LVU468
 1585 0094 03A8     		add	r0, sp, #12
 1586              	.LVL149:
 519:modbus/RTUmodbus_slave.c **** 		get_local_adxl_345_data(&x_data, &y_data, &z_data);
 1587              		.loc 1 519 3 view .LVU469
 1588 0096 FFF7FEFF 		bl	get_local_adxl_345_data
 1589              	.LVL150:
 520:modbus/RTUmodbus_slave.c **** 		uint32_t y_data_32 = convert_float_to_uint32(y_data);
 1590              		.loc 1 520 3 is_stmt 1 view .LVU470
 520:modbus/RTUmodbus_slave.c **** 		uint32_t y_data_32 = convert_float_to_uint32(y_data);
 1591              		.loc 1 520 24 is_stmt 0 view .LVU471
 1592 009a 0298     		ldr	r0, [sp, #8]	@ float
 1593 009c FFF7FEFF 		bl	convert_float_to_uint32
 1594              	.LVL151:
 521:modbus/RTUmodbus_slave.c **** 		value = y_data_32 >> 16;
 1595              		.loc 1 521 3 is_stmt 1 view .LVU472
 521:modbus/RTUmodbus_slave.c **** 		value = y_data_32 >> 16;
 1596              		.loc 1 521 9 is_stmt 0 view .LVU473
 1597 00a0 000C     		lsrs	r0, r0, #16
 1598              	.LVL152:
 522:modbus/RTUmodbus_slave.c **** 		break;
 1599              		.loc 1 522 3 is_stmt 1 view .LVU474
 1600 00a2 1EE0     		b	.L116
 1601              	.LVL153:
 1602              	.L120:
 522:modbus/RTUmodbus_slave.c **** 		break;
 1603              		.loc 1 522 3 is_stmt 0 view .LVU475
 1604              	.LBE8:
 1605              	.LBB9:
 526:modbus/RTUmodbus_slave.c **** 		get_local_adxl_345_data(&x_data, &y_data, &z_data);
 1606              		.loc 1 526 3 is_stmt 1 view .LVU476
 1607 00a4 01AA     		add	r2, sp, #4
 1608 00a6 02A9     		add	r1, sp, #8
 1609              	.LVL154:
 526:modbus/RTUmodbus_slave.c **** 		get_local_adxl_345_data(&x_data, &y_data, &z_data);
 1610              		.loc 1 526 3 is_stmt 0 view .LVU477
 1611 00a8 03A8     		add	r0, sp, #12
 1612              	.LVL155:
 526:modbus/RTUmodbus_slave.c **** 		get_local_adxl_345_data(&x_data, &y_data, &z_data);
 1613              		.loc 1 526 3 view .LVU478
 1614 00aa FFF7FEFF 		bl	get_local_adxl_345_data
 1615              	.LVL156:
 527:modbus/RTUmodbus_slave.c **** 		uint32_t y_data_32 = convert_float_to_uint32(y_data);
 1616              		.loc 1 527 3 is_stmt 1 view .LVU479
 527:modbus/RTUmodbus_slave.c **** 		uint32_t y_data_32 = convert_float_to_uint32(y_data);
 1617              		.loc 1 527 24 is_stmt 0 view .LVU480
ARM GAS  /tmp/cciZyHjk.s 			page 55


 1618 00ae 0298     		ldr	r0, [sp, #8]	@ float
 1619 00b0 FFF7FEFF 		bl	convert_float_to_uint32
 1620              	.LVL157:
 528:modbus/RTUmodbus_slave.c **** 		value = y_data_32;
 1621              		.loc 1 528 3 is_stmt 1 view .LVU481
 528:modbus/RTUmodbus_slave.c **** 		value = y_data_32;
 1622              		.loc 1 528 9 is_stmt 0 view .LVU482
 1623 00b4 80B2     		uxth	r0, r0
 1624              	.LVL158:
 529:modbus/RTUmodbus_slave.c **** 		break;
 1625              		.loc 1 529 3 is_stmt 1 view .LVU483
 1626 00b6 14E0     		b	.L116
 1627              	.LVL159:
 1628              	.L119:
 529:modbus/RTUmodbus_slave.c **** 		break;
 1629              		.loc 1 529 3 is_stmt 0 view .LVU484
 1630              	.LBE9:
 1631              	.LBB10:
 533:modbus/RTUmodbus_slave.c **** 		get_local_adxl_345_data(&x_data, &y_data, &z_data);
 1632              		.loc 1 533 3 is_stmt 1 view .LVU485
 1633 00b8 01AA     		add	r2, sp, #4
 1634 00ba 02A9     		add	r1, sp, #8
 1635              	.LVL160:
 533:modbus/RTUmodbus_slave.c **** 		get_local_adxl_345_data(&x_data, &y_data, &z_data);
 1636              		.loc 1 533 3 is_stmt 0 view .LVU486
 1637 00bc 03A8     		add	r0, sp, #12
 1638              	.LVL161:
 533:modbus/RTUmodbus_slave.c **** 		get_local_adxl_345_data(&x_data, &y_data, &z_data);
 1639              		.loc 1 533 3 view .LVU487
 1640 00be FFF7FEFF 		bl	get_local_adxl_345_data
 1641              	.LVL162:
 534:modbus/RTUmodbus_slave.c **** 		uint32_t z_data_32 = convert_float_to_uint32(z_data);
 1642              		.loc 1 534 3 is_stmt 1 view .LVU488
 534:modbus/RTUmodbus_slave.c **** 		uint32_t z_data_32 = convert_float_to_uint32(z_data);
 1643              		.loc 1 534 24 is_stmt 0 view .LVU489
 1644 00c2 0198     		ldr	r0, [sp, #4]	@ float
 1645 00c4 FFF7FEFF 		bl	convert_float_to_uint32
 1646              	.LVL163:
 535:modbus/RTUmodbus_slave.c **** 		value = z_data_32>>16;
 1647              		.loc 1 535 3 is_stmt 1 view .LVU490
 535:modbus/RTUmodbus_slave.c **** 		value = z_data_32>>16;
 1648              		.loc 1 535 9 is_stmt 0 view .LVU491
 1649 00c8 000C     		lsrs	r0, r0, #16
 1650              	.LVL164:
 536:modbus/RTUmodbus_slave.c **** 		break;
 1651              		.loc 1 536 3 is_stmt 1 view .LVU492
 1652 00ca 0AE0     		b	.L116
 1653              	.LVL165:
 1654              	.L118:
 536:modbus/RTUmodbus_slave.c **** 		break;
 1655              		.loc 1 536 3 is_stmt 0 view .LVU493
 1656              	.LBE10:
 1657              	.LBB11:
 540:modbus/RTUmodbus_slave.c **** 		get_local_adxl_345_data(&x_data, &y_data, &z_data);
 1658              		.loc 1 540 3 is_stmt 1 view .LVU494
 1659 00cc 01AA     		add	r2, sp, #4
 1660 00ce 02A9     		add	r1, sp, #8
ARM GAS  /tmp/cciZyHjk.s 			page 56


 1661              	.LVL166:
 540:modbus/RTUmodbus_slave.c **** 		get_local_adxl_345_data(&x_data, &y_data, &z_data);
 1662              		.loc 1 540 3 is_stmt 0 view .LVU495
 1663 00d0 03A8     		add	r0, sp, #12
 1664              	.LVL167:
 540:modbus/RTUmodbus_slave.c **** 		get_local_adxl_345_data(&x_data, &y_data, &z_data);
 1665              		.loc 1 540 3 view .LVU496
 1666 00d2 FFF7FEFF 		bl	get_local_adxl_345_data
 1667              	.LVL168:
 541:modbus/RTUmodbus_slave.c **** 		uint32_t z_data_32 = convert_float_to_uint32(z_data);
 1668              		.loc 1 541 3 is_stmt 1 view .LVU497
 541:modbus/RTUmodbus_slave.c **** 		uint32_t z_data_32 = convert_float_to_uint32(z_data);
 1669              		.loc 1 541 24 is_stmt 0 view .LVU498
 1670 00d6 0198     		ldr	r0, [sp, #4]	@ float
 1671 00d8 FFF7FEFF 		bl	convert_float_to_uint32
 1672              	.LVL169:
 542:modbus/RTUmodbus_slave.c **** 		value = z_data_32;
 1673              		.loc 1 542 3 is_stmt 1 view .LVU499
 542:modbus/RTUmodbus_slave.c **** 		value = z_data_32;
 1674              		.loc 1 542 9 is_stmt 0 view .LVU500
 1675 00dc 80B2     		uxth	r0, r0
 1676              	.LVL170:
 543:modbus/RTUmodbus_slave.c **** 		break;
 1677              		.loc 1 543 3 is_stmt 1 view .LVU501
 1678 00de 00E0     		b	.L116
 1679              	.LVL171:
 1680              	.L129:
 543:modbus/RTUmodbus_slave.c **** 		break;
 1681              		.loc 1 543 3 is_stmt 0 view .LVU502
 1682              	.LBE11:
 470:modbus/RTUmodbus_slave.c **** 	float x_data, y_data, z_data = 0;
 1683              		.loc 1 470 24 view .LVU503
 1684 00e0 0020     		movs	r0, #0
 1685              	.LVL172:
 1686              	.L116:
 553:modbus/RTUmodbus_slave.c **** 	reg_value[0] = value >> 8;
 1687              		.loc 1 553 2 is_stmt 1 view .LVU504
 553:modbus/RTUmodbus_slave.c **** 	reg_value[0] = value >> 8;
 1688              		.loc 1 553 15 is_stmt 0 view .LVU505
 1689 00e2 030A     		lsrs	r3, r0, #8
 1690 00e4 2370     		strb	r3, [r4]
 554:modbus/RTUmodbus_slave.c **** 	reg_value[1] = value;
 1691              		.loc 1 554 2 is_stmt 1 view .LVU506
 554:modbus/RTUmodbus_slave.c **** 	reg_value[1] = value;
 1692              		.loc 1 554 15 is_stmt 0 view .LVU507
 1693 00e6 6070     		strb	r0, [r4, #1]
 555:modbus/RTUmodbus_slave.c **** 	return 1; /* У»╗тЈќТѕљтіЪ */
 1694              		.loc 1 555 2 is_stmt 1 view .LVU508
 555:modbus/RTUmodbus_slave.c **** 	return 1; /* У»╗тЈќТѕљтіЪ */
 1695              		.loc 1 555 9 is_stmt 0 view .LVU509
 1696 00e8 0120     		movs	r0, #1
 1697              	.LVL173:
 1698              	.L115:
 556:modbus/RTUmodbus_slave.c **** }
 1699              		.loc 1 556 1 view .LVU510
 1700 00ea 06B0     		add	sp, sp, #24
 1701              	.LCFI26:
ARM GAS  /tmp/cciZyHjk.s 			page 57


 1702              		.cfi_def_cfa_offset 8
 1703              		@ sp needed
 1704 00ec 10BD     		pop	{r4, pc}
 1705              	.LVL174:
 1706              	.L128:
 470:modbus/RTUmodbus_slave.c **** 	float x_data, y_data, z_data = 0;
 1707              		.loc 1 470 24 view .LVU511
 1708 00ee 0020     		movs	r0, #0
 1709              	.LVL175:
 470:modbus/RTUmodbus_slave.c **** 	float x_data, y_data, z_data = 0;
 1710              		.loc 1 470 24 view .LVU512
 1711 00f0 FBE7     		b	.L115
 1712              		.cfi_endproc
 1713              	.LFE12:
 1715              		.section	.text.MODS_03H,"ax",%progbits
 1716              		.align	1
 1717              		.syntax unified
 1718              		.thumb
 1719              		.thumb_func
 1720              		.fpu softvfp
 1722              	MODS_03H:
 1723              	.LFB14:
 602:modbus/RTUmodbus_slave.c **** {
 1724              		.loc 1 602 1 is_stmt 1 view -0
 1725              		.cfi_startproc
 1726              		@ args = 0, pretend = 0, frame = 64
 1727              		@ frame_needed = 0, uses_anonymous_args = 0
 1728 0000 70B5     		push	{r4, r5, r6, lr}
 1729              	.LCFI27:
 1730              		.cfi_def_cfa_offset 16
 1731              		.cfi_offset 4, -16
 1732              		.cfi_offset 5, -12
 1733              		.cfi_offset 6, -8
 1734              		.cfi_offset 14, -4
 1735 0002 90B0     		sub	sp, sp, #64
 1736              	.LCFI28:
 1737              		.cfi_def_cfa_offset 80
 643:modbus/RTUmodbus_slave.c **** 	uint16_t reg = 0x00;
 1738              		.loc 1 643 2 view .LVU514
 1739              	.LVL176:
 644:modbus/RTUmodbus_slave.c **** 	uint16_t num = 0x00;
 1740              		.loc 1 644 2 view .LVU515
 645:modbus/RTUmodbus_slave.c **** 	uint16_t i = 0x00;
 1741              		.loc 1 645 2 view .LVU516
 646:modbus/RTUmodbus_slave.c **** 	uint8_t reg_value[64];
 1742              		.loc 1 646 2 view .LVU517
 648:modbus/RTUmodbus_slave.c **** 	g_tModS.RspCode = RSP_OK;
 1743              		.loc 1 648 2 view .LVU518
 648:modbus/RTUmodbus_slave.c **** 	g_tModS.RspCode = RSP_OK;
 1744              		.loc 1 648 18 is_stmt 0 view .LVU519
 1745 0004 344B     		ldr	r3, .L145
 1746 0006 0022     		movs	r2, #0
 1747 0008 83F82120 		strb	r2, [r3, #33]
 650:modbus/RTUmodbus_slave.c **** 	if (g_tModS.RxCount != 8) /* 03HтЉйС╗цт┐ЁжА╗Тў»8СИфтГЌУіѓ */
 1748              		.loc 1 650 2 is_stmt 1 view .LVU520
 650:modbus/RTUmodbus_slave.c **** 	if (g_tModS.RxCount != 8) /* 03HтЉйС╗цт┐ЁжА╗Тў»8СИфтГЌУіѓ */
 1749              		.loc 1 650 13 is_stmt 0 view .LVU521
ARM GAS  /tmp/cciZyHjk.s 			page 58


 1750 000c 9B7F     		ldrb	r3, [r3, #30]	@ zero_extendqisi2
 650:modbus/RTUmodbus_slave.c **** 	if (g_tModS.RxCount != 8) /* 03HтЉйС╗цт┐ЁжА╗Тў»8СИфтГЌУіѓ */
 1751              		.loc 1 650 5 view .LVU522
 1752 000e 082B     		cmp	r3, #8
 1753 0010 17D0     		beq	.L132
 652:modbus/RTUmodbus_slave.c **** 		g_tModS.RspCode = RSP_ERR_VALUE; /* ТЋ░ТЇ«тђ╝тЪЪжћЎУ»» */
 1754              		.loc 1 652 3 is_stmt 1 view .LVU523
 652:modbus/RTUmodbus_slave.c **** 		g_tModS.RspCode = RSP_ERR_VALUE; /* ТЋ░ТЇ«тђ╝тЪЪжћЎУ»» */
 1755              		.loc 1 652 19 is_stmt 0 view .LVU524
 1756 0012 314B     		ldr	r3, .L145
 1757 0014 0322     		movs	r2, #3
 1758 0016 83F82120 		strb	r2, [r3, #33]
 653:modbus/RTUmodbus_slave.c **** 		goto err_ret;
 1759              		.loc 1 653 3 is_stmt 1 view .LVU525
 644:modbus/RTUmodbus_slave.c **** 	uint16_t num = 0x00;
 1760              		.loc 1 644 11 is_stmt 0 view .LVU526
 1761 001a 0025     		movs	r5, #0
 1762              	.LVL177:
 1763              	.L133:
 676:modbus/RTUmodbus_slave.c **** 	if (g_tModS.RspCode == RSP_OK) /* ТГБуА«т║ћуГћ */
 1764              		.loc 1 676 2 is_stmt 1 view .LVU527
 676:modbus/RTUmodbus_slave.c **** 	if (g_tModS.RspCode == RSP_OK) /* ТГБуА«т║ћуГћ */
 1765              		.loc 1 676 13 is_stmt 0 view .LVU528
 1766 001c 2E4B     		ldr	r3, .L145
 1767 001e 93F82100 		ldrb	r0, [r3, #33]	@ zero_extendqisi2
 676:modbus/RTUmodbus_slave.c **** 	if (g_tModS.RspCode == RSP_OK) /* ТГБуА«т║ћуГћ */
 1768              		.loc 1 676 5 view .LVU529
 1769 0022 0028     		cmp	r0, #0
 1770 0024 55D1     		bne	.L137
 678:modbus/RTUmodbus_slave.c **** 		g_tModS.TxCount = 0;
 1771              		.loc 1 678 3 is_stmt 1 view .LVU530
 679:modbus/RTUmodbus_slave.c **** 		g_tModS.TxBuf[g_tModS.TxCount++] = g_tModS.RxBuf[0];
 1772              		.loc 1 679 3 view .LVU531
 679:modbus/RTUmodbus_slave.c **** 		g_tModS.TxBuf[g_tModS.TxCount++] = g_tModS.RxBuf[0];
 1773              		.loc 1 679 51 is_stmt 0 view .LVU532
 1774 0026 1A78     		ldrb	r2, [r3]	@ zero_extendqisi2
 679:modbus/RTUmodbus_slave.c **** 		g_tModS.TxBuf[g_tModS.TxCount++] = g_tModS.RxBuf[0];
 1775              		.loc 1 679 36 view .LVU533
 1776 0028 83F82220 		strb	r2, [r3, #34]
 680:modbus/RTUmodbus_slave.c **** 		g_tModS.TxBuf[g_tModS.TxCount++] = g_tModS.RxBuf[1];
 1777              		.loc 1 680 3 is_stmt 1 view .LVU534
 680:modbus/RTUmodbus_slave.c **** 		g_tModS.TxBuf[g_tModS.TxCount++] = g_tModS.RxBuf[1];
 1778              		.loc 1 680 51 is_stmt 0 view .LVU535
 1779 002c 5A78     		ldrb	r2, [r3, #1]	@ zero_extendqisi2
 680:modbus/RTUmodbus_slave.c **** 		g_tModS.TxBuf[g_tModS.TxCount++] = g_tModS.RxBuf[1];
 1780              		.loc 1 680 36 view .LVU536
 1781 002e 83F82320 		strb	r2, [r3, #35]
 681:modbus/RTUmodbus_slave.c **** 		g_tModS.TxBuf[g_tModS.TxCount++] = num * 2; /* У┐ћтЏътГЌУіѓТЋ░ */
 1782              		.loc 1 681 3 is_stmt 1 view .LVU537
 681:modbus/RTUmodbus_slave.c **** 		g_tModS.TxBuf[g_tModS.TxCount++] = num * 2; /* У┐ћтЏътГЌУіѓТЋ░ */
 1783              		.loc 1 681 32 is_stmt 0 view .LVU538
 1784 0032 0322     		movs	r2, #3
 1785 0034 83F8A220 		strb	r2, [r3, #162]
 681:modbus/RTUmodbus_slave.c **** 		g_tModS.TxBuf[g_tModS.TxCount++] = num * 2; /* У┐ћтЏътГЌУіѓТЋ░ */
 1786              		.loc 1 681 36 view .LVU539
 1787 0038 6A00     		lsls	r2, r5, #1
 1788 003a 83F82420 		strb	r2, [r3, #36]
ARM GAS  /tmp/cciZyHjk.s 			page 59


 683:modbus/RTUmodbus_slave.c **** 		for (i = 0; i < num; i++)
 1789              		.loc 1 683 3 is_stmt 1 view .LVU540
 1790              	.LVL178:
 683:modbus/RTUmodbus_slave.c **** 		for (i = 0; i < num; i++)
 1791              		.loc 1 683 10 is_stmt 0 view .LVU541
 1792 003e 0023     		movs	r3, #0
 683:modbus/RTUmodbus_slave.c **** 		for (i = 0; i < num; i++)
 1793              		.loc 1 683 3 view .LVU542
 1794 0040 3DE0     		b	.L138
 1795              	.LVL179:
 1796              	.L132:
 656:modbus/RTUmodbus_slave.c **** 	reg = BEBufToUint16(&g_tModS.RxBuf[2]); /* т»ётГўтЎетЈи */
 1797              		.loc 1 656 2 is_stmt 1 view .LVU543
 656:modbus/RTUmodbus_slave.c **** 	reg = BEBufToUint16(&g_tModS.RxBuf[2]); /* т»ётГўтЎетЈи */
 1798              		.loc 1 656 8 is_stmt 0 view .LVU544
 1799 0042 264C     		ldr	r4, .L145+4
 1800 0044 2046     		mov	r0, r4
 1801 0046 FFF7FEFF 		bl	BEBufToUint16
 1802              	.LVL180:
 1803 004a 0646     		mov	r6, r0
 1804              	.LVL181:
 657:modbus/RTUmodbus_slave.c **** 	num = BEBufToUint16(&g_tModS.RxBuf[4]); /* т»ётГўтЎеСИфТЋ░ */
 1805              		.loc 1 657 2 is_stmt 1 view .LVU545
 657:modbus/RTUmodbus_slave.c **** 	num = BEBufToUint16(&g_tModS.RxBuf[4]); /* т»ётГўтЎеСИфТЋ░ */
 1806              		.loc 1 657 8 is_stmt 0 view .LVU546
 1807 004c A01C     		adds	r0, r4, #2
 1808 004e FFF7FEFF 		bl	BEBufToUint16
 1809              	.LVL182:
 1810 0052 0546     		mov	r5, r0
 1811              	.LVL183:
 658:modbus/RTUmodbus_slave.c **** 	if (num > sizeof(reg_value) / 2)
 1812              		.loc 1 658 2 is_stmt 1 view .LVU547
 658:modbus/RTUmodbus_slave.c **** 	if (num > sizeof(reg_value) / 2)
 1813              		.loc 1 658 5 is_stmt 0 view .LVU548
 1814 0054 2028     		cmp	r0, #32
 1815 0056 0DD8     		bhi	.L143
 664:modbus/RTUmodbus_slave.c **** 	for (i = 0; i < num; i++)
 1816              		.loc 1 664 9 view .LVU549
 1817 0058 0024     		movs	r4, #0
 1818              	.LVL184:
 1819              	.L134:
 664:modbus/RTUmodbus_slave.c **** 	for (i = 0; i < num; i++)
 1820              		.loc 1 664 14 is_stmt 1 discriminator 1 view .LVU550
 664:modbus/RTUmodbus_slave.c **** 	for (i = 0; i < num; i++)
 1821              		.loc 1 664 2 is_stmt 0 discriminator 1 view .LVU551
 1822 005a AC42     		cmp	r4, r5
 1823 005c DED2     		bcs	.L133
 666:modbus/RTUmodbus_slave.c **** 		if (MODS_ReadRegValue(reg, &reg_value[2 * i]) == 0) /* У»╗тЄ║т»ётГўтЎетђ╝ТћЙтЁЦreg_value */
 1824              		.loc 1 666 3 is_stmt 1 view .LVU552
 666:modbus/RTUmodbus_slave.c **** 		if (MODS_ReadRegValue(reg, &reg_value[2 * i]) == 0) /* У»╗тЄ║т»ётГўтЎетђ╝ТћЙтЁЦreg_value */
 1825              		.loc 1 666 7 is_stmt 0 view .LVU553
 1826 005e 0DEB4401 		add	r1, sp, r4, lsl #1
 1827 0062 3046     		mov	r0, r6
 1828 0064 FFF7FEFF 		bl	MODS_ReadRegValue
 1829              	.LVL185:
 666:modbus/RTUmodbus_slave.c **** 		if (MODS_ReadRegValue(reg, &reg_value[2 * i]) == 0) /* У»╗тЄ║т»ётГўтЎетђ╝ТћЙтЁЦreg_value */
 1830              		.loc 1 666 6 view .LVU554
ARM GAS  /tmp/cciZyHjk.s 			page 60


 1831 0068 48B1     		cbz	r0, .L144
 672:modbus/RTUmodbus_slave.c **** 		reg++;
 1832              		.loc 1 672 3 is_stmt 1 discriminator 2 view .LVU555
 672:modbus/RTUmodbus_slave.c **** 		reg++;
 1833              		.loc 1 672 6 is_stmt 0 discriminator 2 view .LVU556
 1834 006a 0136     		adds	r6, r6, #1
 1835              	.LVL186:
 672:modbus/RTUmodbus_slave.c **** 		reg++;
 1836              		.loc 1 672 6 discriminator 2 view .LVU557
 1837 006c B6B2     		uxth	r6, r6
 1838              	.LVL187:
 664:modbus/RTUmodbus_slave.c **** 	for (i = 0; i < num; i++)
 1839              		.loc 1 664 23 is_stmt 1 discriminator 2 view .LVU558
 664:modbus/RTUmodbus_slave.c **** 	for (i = 0; i < num; i++)
 1840              		.loc 1 664 24 is_stmt 0 discriminator 2 view .LVU559
 1841 006e 0134     		adds	r4, r4, #1
 1842              	.LVL188:
 664:modbus/RTUmodbus_slave.c **** 	for (i = 0; i < num; i++)
 1843              		.loc 1 664 24 discriminator 2 view .LVU560
 1844 0070 A4B2     		uxth	r4, r4
 1845              	.LVL189:
 664:modbus/RTUmodbus_slave.c **** 	for (i = 0; i < num; i++)
 1846              		.loc 1 664 24 discriminator 2 view .LVU561
 1847 0072 F2E7     		b	.L134
 1848              	.LVL190:
 1849              	.L143:
 660:modbus/RTUmodbus_slave.c **** 		g_tModS.RspCode = RSP_ERR_VALUE; /* ТЋ░ТЇ«тђ╝тЪЪжћЎУ»» */
 1850              		.loc 1 660 3 is_stmt 1 view .LVU562
 660:modbus/RTUmodbus_slave.c **** 		g_tModS.RspCode = RSP_ERR_VALUE; /* ТЋ░ТЇ«тђ╝тЪЪжћЎУ»» */
 1851              		.loc 1 660 19 is_stmt 0 view .LVU563
 1852 0074 A31E     		subs	r3, r4, #2
 1853 0076 0322     		movs	r2, #3
 1854 0078 83F82120 		strb	r2, [r3, #33]
 661:modbus/RTUmodbus_slave.c **** 		goto err_ret;
 1855              		.loc 1 661 3 is_stmt 1 view .LVU564
 1856 007c CEE7     		b	.L133
 1857              	.LVL191:
 1858              	.L144:
 668:modbus/RTUmodbus_slave.c **** 			g_tModS.RspCode = RSP_ERR_REG_ADDR; /* т»ётГўтЎетю░тЮђжћЎУ»» */
 1859              		.loc 1 668 4 view .LVU565
 668:modbus/RTUmodbus_slave.c **** 			g_tModS.RspCode = RSP_ERR_REG_ADDR; /* т»ётГўтЎетю░тЮђжћЎУ»» */
 1860              		.loc 1 668 20 is_stmt 0 view .LVU566
 1861 007e 164B     		ldr	r3, .L145
 1862 0080 0222     		movs	r2, #2
 1863 0082 83F82120 		strb	r2, [r3, #33]
 669:modbus/RTUmodbus_slave.c **** 			break;
 1864              		.loc 1 669 4 is_stmt 1 view .LVU567
 1865 0086 C9E7     		b	.L133
 1866              	.LVL192:
 1867              	.L139:
 685:modbus/RTUmodbus_slave.c **** 			g_tModS.TxBuf[g_tModS.TxCount++] = reg_value[2 * i];
 1868              		.loc 1 685 4 discriminator 3 view .LVU568
 685:modbus/RTUmodbus_slave.c **** 			g_tModS.TxBuf[g_tModS.TxCount++] = reg_value[2 * i];
 1869              		.loc 1 685 51 is_stmt 0 discriminator 3 view .LVU569
 1870 0088 5900     		lsls	r1, r3, #1
 685:modbus/RTUmodbus_slave.c **** 			g_tModS.TxBuf[g_tModS.TxCount++] = reg_value[2 * i];
 1871              		.loc 1 685 25 discriminator 3 view .LVU570
ARM GAS  /tmp/cciZyHjk.s 			page 61


 1872 008a 134A     		ldr	r2, .L145
 1873 008c 92F8A200 		ldrb	r0, [r2, #162]	@ zero_extendqisi2
 685:modbus/RTUmodbus_slave.c **** 			g_tModS.TxBuf[g_tModS.TxCount++] = reg_value[2 * i];
 1874              		.loc 1 685 33 discriminator 3 view .LVU571
 1875 0090 441C     		adds	r4, r0, #1
 1876 0092 E4B2     		uxtb	r4, r4
 685:modbus/RTUmodbus_slave.c **** 			g_tModS.TxBuf[g_tModS.TxCount++] = reg_value[2 * i];
 1877              		.loc 1 685 48 discriminator 3 view .LVU572
 1878 0094 10AE     		add	r6, sp, #64
 1879 0096 06EB4306 		add	r6, r6, r3, lsl #1
 1880 009a 16F8406C 		ldrb	r6, [r6, #-64]	@ zero_extendqisi2
 685:modbus/RTUmodbus_slave.c **** 			g_tModS.TxBuf[g_tModS.TxCount++] = reg_value[2 * i];
 1881              		.loc 1 685 37 discriminator 3 view .LVU573
 1882 009e 1044     		add	r0, r0, r2
 1883 00a0 80F82260 		strb	r6, [r0, #34]
 686:modbus/RTUmodbus_slave.c **** 			g_tModS.TxBuf[g_tModS.TxCount++] = reg_value[2 * i + 1];
 1884              		.loc 1 686 4 is_stmt 1 discriminator 3 view .LVU574
 686:modbus/RTUmodbus_slave.c **** 			g_tModS.TxBuf[g_tModS.TxCount++] = reg_value[2 * i + 1];
 1885              		.loc 1 686 55 is_stmt 0 discriminator 3 view .LVU575
 1886 00a4 0131     		adds	r1, r1, #1
 686:modbus/RTUmodbus_slave.c **** 			g_tModS.TxBuf[g_tModS.TxCount++] = reg_value[2 * i + 1];
 1887              		.loc 1 686 33 discriminator 3 view .LVU576
 1888 00a6 601C     		adds	r0, r4, #1
 1889 00a8 82F8A200 		strb	r0, [r2, #162]
 686:modbus/RTUmodbus_slave.c **** 			g_tModS.TxBuf[g_tModS.TxCount++] = reg_value[2 * i + 1];
 1890              		.loc 1 686 48 discriminator 3 view .LVU577
 1891 00ac 10A8     		add	r0, sp, #64
 1892 00ae 0144     		add	r1, r1, r0
 1893 00b0 11F8401C 		ldrb	r1, [r1, #-64]	@ zero_extendqisi2
 686:modbus/RTUmodbus_slave.c **** 			g_tModS.TxBuf[g_tModS.TxCount++] = reg_value[2 * i + 1];
 1894              		.loc 1 686 37 discriminator 3 view .LVU578
 1895 00b4 2244     		add	r2, r2, r4
 1896 00b6 82F82210 		strb	r1, [r2, #34]
 683:modbus/RTUmodbus_slave.c **** 		for (i = 0; i < num; i++)
 1897              		.loc 1 683 24 is_stmt 1 discriminator 3 view .LVU579
 683:modbus/RTUmodbus_slave.c **** 		for (i = 0; i < num; i++)
 1898              		.loc 1 683 25 is_stmt 0 discriminator 3 view .LVU580
 1899 00ba 0133     		adds	r3, r3, #1
 1900              	.LVL193:
 683:modbus/RTUmodbus_slave.c **** 		for (i = 0; i < num; i++)
 1901              		.loc 1 683 25 discriminator 3 view .LVU581
 1902 00bc 9BB2     		uxth	r3, r3
 1903              	.LVL194:
 1904              	.L138:
 683:modbus/RTUmodbus_slave.c **** 		for (i = 0; i < num; i++)
 1905              		.loc 1 683 15 is_stmt 1 discriminator 1 view .LVU582
 683:modbus/RTUmodbus_slave.c **** 		for (i = 0; i < num; i++)
 1906              		.loc 1 683 3 is_stmt 0 discriminator 1 view .LVU583
 1907 00be 9D42     		cmp	r5, r3
 1908 00c0 E2D8     		bhi	.L139
 688:modbus/RTUmodbus_slave.c **** 		MODS_SendWithCRC(g_tModS.TxBuf, g_tModS.TxCount); /* тЈЉжђЂТГБуА«т║ћуГћ */
 1909              		.loc 1 688 3 is_stmt 1 view .LVU584
 1910 00c2 0548     		ldr	r0, .L145
 1911 00c4 90F8A210 		ldrb	r1, [r0, #162]	@ zero_extendqisi2
 1912 00c8 2230     		adds	r0, r0, #34
 1913 00ca FFF7FEFF 		bl	MODS_SendWithCRC
 1914              	.LVL195:
ARM GAS  /tmp/cciZyHjk.s 			page 62


 1915              	.L131:
 694:modbus/RTUmodbus_slave.c **** }
 1916              		.loc 1 694 1 is_stmt 0 view .LVU585
 1917 00ce 10B0     		add	sp, sp, #64
 1918              	.LCFI29:
 1919              		.cfi_remember_state
 1920              		.cfi_def_cfa_offset 16
 1921              		@ sp needed
 1922 00d0 70BD     		pop	{r4, r5, r6, pc}
 1923              	.LVL196:
 1924              	.L137:
 1925              	.LCFI30:
 1926              		.cfi_restore_state
 692:modbus/RTUmodbus_slave.c **** 		MODS_SendAckErr(g_tModS.RspCode); /* тЈЉжђЂжћЎУ»»т║ћуГћ */
 1927              		.loc 1 692 3 is_stmt 1 view .LVU586
 1928 00d2 FFF7FEFF 		bl	MODS_SendAckErr
 1929              	.LVL197:
 694:modbus/RTUmodbus_slave.c **** }
 1930              		.loc 1 694 1 is_stmt 0 view .LVU587
 1931 00d6 FAE7     		b	.L131
 1932              	.L146:
 1933              		.align	2
 1934              	.L145:
 1935 00d8 00000000 		.word	g_tModS
 1936 00dc 02000000 		.word	g_tModS+2
 1937              		.cfi_endproc
 1938              	.LFE14:
 1940              		.section	.text.MODS_AnalyzeApp,"ax",%progbits
 1941              		.align	1
 1942              		.syntax unified
 1943              		.thumb
 1944              		.thumb_func
 1945              		.fpu softvfp
 1947              	MODS_AnalyzeApp:
 1948              	.LFB9:
 219:modbus/RTUmodbus_slave.c **** {
 1949              		.loc 1 219 1 is_stmt 1 view -0
 1950              		.cfi_startproc
 1951              		@ args = 0, pretend = 0, frame = 0
 1952              		@ frame_needed = 0, uses_anonymous_args = 0
 1953 0000 08B5     		push	{r3, lr}
 1954              	.LCFI31:
 1955              		.cfi_def_cfa_offset 8
 1956              		.cfi_offset 3, -8
 1957              		.cfi_offset 14, -4
 220:modbus/RTUmodbus_slave.c **** 	switch (g_tModS.RxBuf[1]) /* угг2СИфтГЌУіѓ тіЪУЃйуаЂ */
 1958              		.loc 1 220 2 view .LVU589
 220:modbus/RTUmodbus_slave.c **** 	switch (g_tModS.RxBuf[1]) /* угг2СИфтГЌУіѓ тіЪУЃйуаЂ */
 1959              		.loc 1 220 23 is_stmt 0 view .LVU590
 1960 0002 154B     		ldr	r3, .L159
 1961 0004 5B78     		ldrb	r3, [r3, #1]	@ zero_extendqisi2
 1962 0006 013B     		subs	r3, r3, #1
 1963 0008 0F2B     		cmp	r3, #15
 1964 000a 1ED8     		bhi	.L148
 1965 000c DFE803F0 		tbb	[pc, r3]
 1966              	.L150:
 1967 0010 08       		.byte	(.L156-.L150)/2
ARM GAS  /tmp/cciZyHjk.s 			page 63


 1968 0011 0B       		.byte	(.L155-.L150)/2
 1969 0012 0E       		.byte	(.L154-.L150)/2
 1970 0013 11       		.byte	(.L153-.L150)/2
 1971 0014 14       		.byte	(.L152-.L150)/2
 1972 0015 17       		.byte	(.L151-.L150)/2
 1973 0016 1D       		.byte	(.L148-.L150)/2
 1974 0017 1D       		.byte	(.L148-.L150)/2
 1975 0018 1D       		.byte	(.L148-.L150)/2
 1976 0019 1D       		.byte	(.L148-.L150)/2
 1977 001a 1D       		.byte	(.L148-.L150)/2
 1978 001b 1D       		.byte	(.L148-.L150)/2
 1979 001c 1D       		.byte	(.L148-.L150)/2
 1980 001d 1D       		.byte	(.L148-.L150)/2
 1981 001e 1D       		.byte	(.L148-.L150)/2
 1982 001f 1A       		.byte	(.L149-.L150)/2
 1983              		.p2align 1
 1984              	.L156:
 223:modbus/RTUmodbus_slave.c **** 		MODS_01H();
 1985              		.loc 1 223 3 is_stmt 1 view .LVU591
 1986 0020 FFF7FEFF 		bl	MODS_01H
 1987              	.LVL198:
 225:modbus/RTUmodbus_slave.c **** 		break;
 1988              		.loc 1 225 3 view .LVU592
 1989              	.L147:
 262:modbus/RTUmodbus_slave.c **** }
 1990              		.loc 1 262 1 is_stmt 0 view .LVU593
 1991 0024 08BD     		pop	{r3, pc}
 1992              	.L155:
 228:modbus/RTUmodbus_slave.c **** 		MODS_02H();
 1993              		.loc 1 228 3 is_stmt 1 view .LVU594
 1994 0026 FFF7FEFF 		bl	MODS_02H
 1995              	.LVL199:
 230:modbus/RTUmodbus_slave.c **** 		break;
 1996              		.loc 1 230 3 view .LVU595
 1997 002a FBE7     		b	.L147
 1998              	.L154:
 233:modbus/RTUmodbus_slave.c **** 		MODS_03H();
 1999              		.loc 1 233 3 view .LVU596
 2000 002c FFF7FEFF 		bl	MODS_03H
 2001              	.LVL200:
 235:modbus/RTUmodbus_slave.c **** 		break;
 2002              		.loc 1 235 3 view .LVU597
 2003 0030 F8E7     		b	.L147
 2004              	.L153:
 238:modbus/RTUmodbus_slave.c **** 		MODS_04H();
 2005              		.loc 1 238 3 view .LVU598
 2006 0032 FFF7FEFF 		bl	MODS_04H
 2007              	.LVL201:
 240:modbus/RTUmodbus_slave.c **** 		break;
 2008              		.loc 1 240 3 view .LVU599
 2009 0036 F5E7     		b	.L147
 2010              	.L152:
 243:modbus/RTUmodbus_slave.c **** 		MODS_05H();
 2011              		.loc 1 243 3 view .LVU600
 2012 0038 FFF7FEFF 		bl	MODS_05H
 2013              	.LVL202:
 245:modbus/RTUmodbus_slave.c **** 		break;
ARM GAS  /tmp/cciZyHjk.s 			page 64


 2014              		.loc 1 245 3 view .LVU601
 2015 003c F2E7     		b	.L147
 2016              	.L151:
 248:modbus/RTUmodbus_slave.c **** 		MODS_06H();
 2017              		.loc 1 248 3 view .LVU602
 2018 003e FFF7FEFF 		bl	MODS_06H
 2019              	.LVL203:
 250:modbus/RTUmodbus_slave.c **** 		break;
 2020              		.loc 1 250 3 view .LVU603
 2021 0042 EFE7     		b	.L147
 2022              	.L149:
 253:modbus/RTUmodbus_slave.c **** 		MODS_10H();
 2023              		.loc 1 253 3 view .LVU604
 2024 0044 FFF7FEFF 		bl	MODS_10H
 2025              	.LVL204:
 255:modbus/RTUmodbus_slave.c **** 		break;
 2026              		.loc 1 255 3 view .LVU605
 2027 0048 ECE7     		b	.L147
 2028              	.L148:
 258:modbus/RTUmodbus_slave.c **** 		g_tModS.RspCode = RSP_ERR_CMD;
 2029              		.loc 1 258 3 view .LVU606
 258:modbus/RTUmodbus_slave.c **** 		g_tModS.RspCode = RSP_ERR_CMD;
 2030              		.loc 1 258 19 is_stmt 0 view .LVU607
 2031 004a 0120     		movs	r0, #1
 2032 004c 024B     		ldr	r3, .L159
 2033 004e 83F82100 		strb	r0, [r3, #33]
 259:modbus/RTUmodbus_slave.c **** 		MODS_SendAckErr(g_tModS.RspCode); /* тЉіУ»ЅСИ╗Тю║тЉйС╗цжћЎУ»» */
 2034              		.loc 1 259 3 is_stmt 1 view .LVU608
 2035 0052 FFF7FEFF 		bl	MODS_SendAckErr
 2036              	.LVL205:
 260:modbus/RTUmodbus_slave.c **** 		break;
 2037              		.loc 1 260 3 view .LVU609
 262:modbus/RTUmodbus_slave.c **** }
 2038              		.loc 1 262 1 is_stmt 0 view .LVU610
 2039 0056 E5E7     		b	.L147
 2040              	.L160:
 2041              		.align	2
 2042              	.L159:
 2043 0058 00000000 		.word	g_tModS
 2044              		.cfi_endproc
 2045              	.LFE9:
 2047              		.section	.text.MODS_Poll,"ax",%progbits
 2048              		.align	1
 2049              		.global	MODS_Poll
 2050              		.syntax unified
 2051              		.thumb
 2052              		.thumb_func
 2053              		.fpu softvfp
 2055              	MODS_Poll:
 2056              	.LFB3:
  43:modbus/RTUmodbus_slave.c **** {
 2057              		.loc 1 43 1 is_stmt 1 view -0
 2058              		.cfi_startproc
 2059              		@ args = 0, pretend = 0, frame = 0
 2060              		@ frame_needed = 0, uses_anonymous_args = 0
 2061 0000 08B5     		push	{r3, lr}
 2062              	.LCFI32:
ARM GAS  /tmp/cciZyHjk.s 			page 65


 2063              		.cfi_def_cfa_offset 8
 2064              		.cfi_offset 3, -8
 2065              		.cfi_offset 14, -4
  44:modbus/RTUmodbus_slave.c **** 	uint16_t addr;
 2066              		.loc 1 44 2 view .LVU612
  45:modbus/RTUmodbus_slave.c **** 	uint16_t crc1;
 2067              		.loc 1 45 2 view .LVU613
  48:modbus/RTUmodbus_slave.c **** 	if (g_mods_timeout == 0)
 2068              		.loc 1 48 2 view .LVU614
  48:modbus/RTUmodbus_slave.c **** 	if (g_mods_timeout == 0)
 2069              		.loc 1 48 21 is_stmt 0 view .LVU615
 2070 0002 0D4B     		ldr	r3, .L166
 2071 0004 1B78     		ldrb	r3, [r3]	@ zero_extendqisi2
  48:modbus/RTUmodbus_slave.c **** 	if (g_mods_timeout == 0)
 2072              		.loc 1 48 5 view .LVU616
 2073 0006 4BB1     		cbz	r3, .L161
  53:modbus/RTUmodbus_slave.c **** 	g_mods_timeout = 0; /* ТИЁТаЄт┐Ќ */
 2074              		.loc 1 53 2 is_stmt 1 view .LVU617
  53:modbus/RTUmodbus_slave.c **** 	g_mods_timeout = 0; /* ТИЁТаЄт┐Ќ */
 2075              		.loc 1 53 17 is_stmt 0 view .LVU618
 2076 0008 0B4B     		ldr	r3, .L166
 2077 000a 0022     		movs	r2, #0
 2078 000c 1A70     		strb	r2, [r3]
  55:modbus/RTUmodbus_slave.c **** 	if (g_tModS.RxCount < 4) /* ТјЦТћХтѕ░уџёТЋ░ТЇ«т░ЈС║ј4СИфтГЌУіѓт░▒У«цСИ║жћЎУ»» */
 2079              		.loc 1 55 2 is_stmt 1 view .LVU619
  55:modbus/RTUmodbus_slave.c **** 	if (g_tModS.RxCount < 4) /* ТјЦТћХтѕ░уџёТЋ░ТЇ«т░ЈС║ј4СИфтГЌУіѓт░▒У«цСИ║жћЎУ»» */
 2080              		.loc 1 55 13 is_stmt 0 view .LVU620
 2081 000e 0B4B     		ldr	r3, .L166+4
 2082 0010 997F     		ldrb	r1, [r3, #30]	@ zero_extendqisi2
  55:modbus/RTUmodbus_slave.c **** 	if (g_tModS.RxCount < 4) /* ТјЦТћХтѕ░уџёТЋ░ТЇ«т░ЈС║ј4СИфтГЌУіѓт░▒У«цСИ║жћЎУ»» */
 2083              		.loc 1 55 5 view .LVU621
 2084 0012 0329     		cmp	r1, #3
 2085 0014 03D8     		bhi	.L165
 2086              	.L163:
  78:modbus/RTUmodbus_slave.c **** 	g_tModS.RxCount = 0; /* т┐ЁжА╗ТИЁжЏХУ«АТЋ░тЎе№╝їТќ╣СЙ┐СИІТгАтИДтљїТГЦ */
 2087              		.loc 1 78 2 is_stmt 1 view .LVU622
  78:modbus/RTUmodbus_slave.c **** 	g_tModS.RxCount = 0; /* т┐ЁжА╗ТИЁжЏХУ«АТЋ░тЎе№╝їТќ╣СЙ┐СИІТгАтИДтљїТГЦ */
 2088              		.loc 1 78 18 is_stmt 0 view .LVU623
 2089 0016 094B     		ldr	r3, .L166+4
 2090 0018 0022     		movs	r2, #0
 2091 001a 9A77     		strb	r2, [r3, #30]
 2092              	.L161:
  79:modbus/RTUmodbus_slave.c **** }
 2093              		.loc 1 79 1 view .LVU624
 2094 001c 08BD     		pop	{r3, pc}
 2095              	.L165:
  61:modbus/RTUmodbus_slave.c **** 	crc1 = CRC16_Modbus(g_tModS.RxBuf, g_tModS.RxCount);
 2096              		.loc 1 61 2 is_stmt 1 view .LVU625
  61:modbus/RTUmodbus_slave.c **** 	crc1 = CRC16_Modbus(g_tModS.RxBuf, g_tModS.RxCount);
 2097              		.loc 1 61 9 is_stmt 0 view .LVU626
 2098 001e 1846     		mov	r0, r3
 2099 0020 FFF7FEFF 		bl	CRC16_Modbus
 2100              	.LVL206:
  62:modbus/RTUmodbus_slave.c **** 	if (crc1 != 0)
 2101              		.loc 1 62 2 is_stmt 1 view .LVU627
  62:modbus/RTUmodbus_slave.c **** 	if (crc1 != 0)
 2102              		.loc 1 62 5 is_stmt 0 view .LVU628
ARM GAS  /tmp/cciZyHjk.s 			page 66


 2103 0024 0028     		cmp	r0, #0
 2104 0026 F6D1     		bne	.L163
  68:modbus/RTUmodbus_slave.c **** 	addr = g_tModS.RxBuf[0]; /* угг1тГЌУіѓ уФЎтЈи */
 2105              		.loc 1 68 2 is_stmt 1 view .LVU629
  68:modbus/RTUmodbus_slave.c **** 	addr = g_tModS.RxBuf[0]; /* угг1тГЌУіѓ уФЎтЈи */
 2106              		.loc 1 68 22 is_stmt 0 view .LVU630
 2107 0028 044B     		ldr	r3, .L166+4
 2108 002a 1B78     		ldrb	r3, [r3]	@ zero_extendqisi2
 2109              	.LVL207:
  69:modbus/RTUmodbus_slave.c **** 	if (addr != 0x01)		 /* тѕцТќГСИ╗Тю║тЈЉжђЂуџётЉйС╗цтю░тЮђТў»тљдугдтљѕ */
 2110              		.loc 1 69 2 is_stmt 1 view .LVU631
  69:modbus/RTUmodbus_slave.c **** 	if (addr != 0x01)		 /* тѕцТќГСИ╗Тю║тЈЉжђЂуџётЉйС╗цтю░тЮђТў»тљдугдтљѕ */
 2111              		.loc 1 69 5 is_stmt 0 view .LVU632
 2112 002c 012B     		cmp	r3, #1
 2113 002e F2D1     		bne	.L163
  74:modbus/RTUmodbus_slave.c **** 	MODS_AnalyzeApp();
 2114              		.loc 1 74 2 is_stmt 1 view .LVU633
 2115 0030 FFF7FEFF 		bl	MODS_AnalyzeApp
 2116              	.LVL208:
  74:modbus/RTUmodbus_slave.c **** 	MODS_AnalyzeApp();
 2117              		.loc 1 74 2 is_stmt 0 view .LVU634
 2118 0034 EFE7     		b	.L163
 2119              	.L167:
 2120 0036 00BF     		.align	2
 2121              	.L166:
 2122 0038 00000000 		.word	.LANCHOR0
 2123 003c 00000000 		.word	g_tModS
 2124              		.cfi_endproc
 2125              	.LFE3:
 2127              		.comm	g_tModS,163,4
 2128              		.section	.bss.g_mods_timeout,"aw",%nobits
 2129              		.set	.LANCHOR0,. + 0
 2132              	g_mods_timeout:
 2133 0000 00       		.space	1
 2134              		.text
 2135              	.Letext0:
 2136              		.file 2 "/opt/gcc-arm-none-eabi-9-2020-q2-update/arm-none-eabi/include/machine/_default_types.h"
 2137              		.file 3 "/opt/gcc-arm-none-eabi-9-2020-q2-update/lib/gcc/arm-none-eabi/9.3.1/include/stddef.h"
 2138              		.file 4 "/opt/gcc-arm-none-eabi-9-2020-q2-update/arm-none-eabi/include/sys/_types.h"
 2139              		.file 5 "/opt/gcc-arm-none-eabi-9-2020-q2-update/arm-none-eabi/include/sys/reent.h"
 2140              		.file 6 "/opt/gcc-arm-none-eabi-9-2020-q2-update/arm-none-eabi/include/sys/lock.h"
 2141              		.file 7 "/opt/gcc-arm-none-eabi-9-2020-q2-update/arm-none-eabi/include/sys/_stdint.h"
 2142              		.file 8 "modbus/RTUmodbus_slave.h"
 2143              		.file 9 "sensor_device/data_collect.h"
 2144              		.file 10 "modbus/RTUmodbus_CRC.h"
 2145              		.file 11 "<built-in>"
ARM GAS  /tmp/cciZyHjk.s 			page 67


DEFINED SYMBOLS
                            *ABS*:0000000000000000 RTUmodbus_slave.c
     /tmp/cciZyHjk.s:16     .text.MODS_WriteRegValue:0000000000000000 $t
     /tmp/cciZyHjk.s:23     .text.MODS_WriteRegValue:0000000000000000 MODS_WriteRegValue
     /tmp/cciZyHjk.s:60     .text.MODS_SendWithCRC:0000000000000000 $t
     /tmp/cciZyHjk.s:66     .text.MODS_SendWithCRC:0000000000000000 MODS_SendWithCRC
     /tmp/cciZyHjk.s:116    .text.MODS_SendAckOk:0000000000000000 $t
     /tmp/cciZyHjk.s:122    .text.MODS_SendAckOk:0000000000000000 MODS_SendAckOk
     /tmp/cciZyHjk.s:179    .text.MODS_SendAckOk:000000000000002c $d
                            *COM*:00000000000000a3 g_tModS
     /tmp/cciZyHjk.s:184    .text.MODS_SendAckErr:0000000000000000 $t
     /tmp/cciZyHjk.s:190    .text.MODS_SendAckErr:0000000000000000 MODS_SendAckErr
     /tmp/cciZyHjk.s:237    .text.MODS_SendAckErr:0000000000000028 $d
     /tmp/cciZyHjk.s:242    .text.MODS_05H:0000000000000000 $t
     /tmp/cciZyHjk.s:248    .text.MODS_05H:0000000000000000 MODS_05H
     /tmp/cciZyHjk.s:353    .text.MODS_05H:0000000000000070 $d
     /tmp/cciZyHjk.s:359    .text.MODS_06H:0000000000000000 $t
     /tmp/cciZyHjk.s:365    .text.MODS_06H:0000000000000000 MODS_06H
     /tmp/cciZyHjk.s:450    .text.MODS_06H:0000000000000054 $d
     /tmp/cciZyHjk.s:456    .text.MODS_10H:0000000000000000 $t
     /tmp/cciZyHjk.s:462    .text.MODS_10H:0000000000000000 MODS_10H
     /tmp/cciZyHjk.s:591    .text.MODS_10H:0000000000000070 $d
     /tmp/cciZyHjk.s:597    .text.MODS_01H:0000000000000000 $t
     /tmp/cciZyHjk.s:603    .text.MODS_01H:0000000000000000 MODS_01H
     /tmp/cciZyHjk.s:821    .text.MODS_01H:00000000000000d4 $d
     /tmp/cciZyHjk.s:827    .text.MODS_02H:0000000000000000 $t
     /tmp/cciZyHjk.s:833    .text.MODS_02H:0000000000000000 MODS_02H
     /tmp/cciZyHjk.s:1051   .text.MODS_02H:00000000000000d4 $d
     /tmp/cciZyHjk.s:1057   .text.MODS_04H:0000000000000000 $t
     /tmp/cciZyHjk.s:1063   .text.MODS_04H:0000000000000000 MODS_04H
     /tmp/cciZyHjk.s:1273   .text.MODS_04H:00000000000000e4 $d
     /tmp/cciZyHjk.s:1279   .text.MODS_ReciveNew_no_timer:0000000000000000 $t
     /tmp/cciZyHjk.s:1286   .text.MODS_ReciveNew_no_timer:0000000000000000 MODS_ReciveNew_no_timer
     /tmp/cciZyHjk.s:1319   .text.MODS_ReciveNew_no_timer:0000000000000018 $d
     /tmp/cciZyHjk.s:1325   .text.MODS_RxTimeOut:0000000000000000 $t
     /tmp/cciZyHjk.s:1332   .text.MODS_RxTimeOut:0000000000000000 MODS_RxTimeOut
     /tmp/cciZyHjk.s:1349   .text.MODS_RxTimeOut:0000000000000008 $d
     /tmp/cciZyHjk.s:1354   .text.convert_float_to_uint32:0000000000000000 $t
     /tmp/cciZyHjk.s:1361   .text.convert_float_to_uint32:0000000000000000 convert_float_to_uint32
     /tmp/cciZyHjk.s:1378   .text.MODS_ReadRegValue:0000000000000000 $t
     /tmp/cciZyHjk.s:1384   .text.MODS_ReadRegValue:0000000000000000 MODS_ReadRegValue
     /tmp/cciZyHjk.s:1414   .text.MODS_ReadRegValue:0000000000000014 $d
     /tmp/cciZyHjk.s:1716   .text.MODS_03H:0000000000000000 $t
     /tmp/cciZyHjk.s:1722   .text.MODS_03H:0000000000000000 MODS_03H
     /tmp/cciZyHjk.s:1935   .text.MODS_03H:00000000000000d8 $d
     /tmp/cciZyHjk.s:1941   .text.MODS_AnalyzeApp:0000000000000000 $t
     /tmp/cciZyHjk.s:1947   .text.MODS_AnalyzeApp:0000000000000000 MODS_AnalyzeApp
     /tmp/cciZyHjk.s:1967   .text.MODS_AnalyzeApp:0000000000000010 $d
     /tmp/cciZyHjk.s:1983   .text.MODS_AnalyzeApp:0000000000000020 $t
     /tmp/cciZyHjk.s:2043   .text.MODS_AnalyzeApp:0000000000000058 $d
     /tmp/cciZyHjk.s:2048   .text.MODS_Poll:0000000000000000 $t
     /tmp/cciZyHjk.s:2055   .text.MODS_Poll:0000000000000000 MODS_Poll
     /tmp/cciZyHjk.s:2122   .text.MODS_Poll:0000000000000038 $d
     /tmp/cciZyHjk.s:2132   .bss.g_mods_timeout:0000000000000000 g_mods_timeout
     /tmp/cciZyHjk.s:2133   .bss.g_mods_timeout:0000000000000000 $d
     /tmp/cciZyHjk.s:1425   .text.MODS_ReadRegValue:000000000000001f $d
     /tmp/cciZyHjk.s:1425   .text.MODS_ReadRegValue:0000000000000020 $t
ARM GAS  /tmp/cciZyHjk.s 			page 68



UNDEFINED SYMBOLS
memcpy
CRC16_Modbus
BEBufToUint16
get_local_dht22_data
get_local_adxl_345_data
