ARM GAS  /tmp/ccHspW3M.s 			page 1


   1              		.cpu cortex-m3
   2              		.eabi_attribute 20, 1
   3              		.eabi_attribute 21, 1
   4              		.eabi_attribute 23, 3
   5              		.eabi_attribute 24, 1
   6              		.eabi_attribute 25, 1
   7              		.eabi_attribute 26, 1
   8              		.eabi_attribute 30, 1
   9              		.eabi_attribute 34, 1
  10              		.eabi_attribute 18, 4
  11              		.file	"soft_timer.c"
  12              		.text
  13              	.Ltext0:
  14              		.cfi_sections	.debug_frame
  15              		.section	.text.SoftTimer_Init,"ax",%progbits
  16              		.align	1
  17              		.global	SoftTimer_Init
  18              		.arch armv7-m
  19              		.syntax unified
  20              		.thumb
  21              		.thumb_func
  22              		.fpu softvfp
  24              	SoftTimer_Init:
  25              	.LFB2:
  26              		.file 1 "sensor_device/soft_timer.c"
   1:sensor_device/soft_timer.c **** /* soft_timer.c */
   2:sensor_device/soft_timer.c **** 
   3:sensor_device/soft_timer.c **** #include "soft_timer.h"
   4:sensor_device/soft_timer.c **** 
   5:sensor_device/soft_timer.c **** static SoftTimer_t timers[SOFT_TIMER_MAX];
   6:sensor_device/soft_timer.c **** 
   7:sensor_device/soft_timer.c **** void SoftTimer_Init(void)
   8:sensor_device/soft_timer.c **** {
  27              		.loc 1 8 1 view -0
  28              		.cfi_startproc
  29              		@ args = 0, pretend = 0, frame = 0
  30              		@ frame_needed = 0, uses_anonymous_args = 0
  31              		@ link register save eliminated.
   9:sensor_device/soft_timer.c ****     for (int i = 0; i < SOFT_TIMER_MAX; i++) {
  32              		.loc 1 9 5 view .LVU1
  33              	.LBB2:
  34              		.loc 1 9 10 view .LVU2
  35              	.LVL0:
  36              		.loc 1 9 14 is_stmt 0 view .LVU3
  37 0000 0023     		movs	r3, #0
  38              	.LVL1:
  39              		.loc 1 9 21 is_stmt 1 view .LVU4
  40              		.loc 1 9 5 is_stmt 0 view .LVU5
  41 0002 072B     		cmp	r3, #7
  42 0004 11DC     		bgt	.L7
  43              	.LBE2:
   8:sensor_device/soft_timer.c ****     for (int i = 0; i < SOFT_TIMER_MAX; i++) {
  44              		.loc 1 8 1 view .LVU6
  45 0006 10B4     		push	{r4}
  46              	.LCFI0:
  47              		.cfi_def_cfa_offset 4
  48              		.cfi_offset 4, -4
ARM GAS  /tmp/ccHspW3M.s 			page 2


  49              	.L3:
  50              	.LBB3:
  10:sensor_device/soft_timer.c ****         timers[i].active    = false;
  51              		.loc 1 10 9 is_stmt 1 discriminator 3 view .LVU7
  52              		.loc 1 10 29 is_stmt 0 discriminator 3 view .LVU8
  53 0008 084C     		ldr	r4, .L8
  54 000a 03EB8302 		add	r2, r3, r3, lsl #2
  55 000e 9000     		lsls	r0, r2, #2
  56 0010 2218     		adds	r2, r4, r0
  57 0012 0021     		movs	r1, #0
  58 0014 2154     		strb	r1, [r4, r0]
  11:sensor_device/soft_timer.c ****         timers[i].reload_ms = 0;
  59              		.loc 1 11 9 is_stmt 1 discriminator 3 view .LVU9
  60              		.loc 1 11 29 is_stmt 0 discriminator 3 view .LVU10
  61 0016 5160     		str	r1, [r2, #4]
  12:sensor_device/soft_timer.c ****         timers[i].counter   = 0;
  62              		.loc 1 12 9 is_stmt 1 discriminator 3 view .LVU11
  63              		.loc 1 12 29 is_stmt 0 discriminator 3 view .LVU12
  64 0018 9160     		str	r1, [r2, #8]
  13:sensor_device/soft_timer.c ****         timers[i].cb        = NULL;
  65              		.loc 1 13 9 is_stmt 1 discriminator 3 view .LVU13
  66              		.loc 1 13 29 is_stmt 0 discriminator 3 view .LVU14
  67 001a D160     		str	r1, [r2, #12]
  14:sensor_device/soft_timer.c ****         timers[i].mode      = TIMER_MODE_PERIODIC;
  68              		.loc 1 14 9 is_stmt 1 discriminator 3 view .LVU15
  69              		.loc 1 14 29 is_stmt 0 discriminator 3 view .LVU16
  70 001c 0121     		movs	r1, #1
  71 001e 1174     		strb	r1, [r2, #16]
   9:sensor_device/soft_timer.c ****         timers[i].active    = false;
  72              		.loc 1 9 41 is_stmt 1 discriminator 3 view .LVU17
   9:sensor_device/soft_timer.c ****         timers[i].active    = false;
  73              		.loc 1 9 42 is_stmt 0 discriminator 3 view .LVU18
  74 0020 0B44     		add	r3, r3, r1
  75              	.LVL2:
   9:sensor_device/soft_timer.c ****         timers[i].active    = false;
  76              		.loc 1 9 21 is_stmt 1 discriminator 3 view .LVU19
   9:sensor_device/soft_timer.c ****         timers[i].active    = false;
  77              		.loc 1 9 5 is_stmt 0 discriminator 3 view .LVU20
  78 0022 072B     		cmp	r3, #7
  79 0024 F0DD     		ble	.L3
  80              	.LBE3:
  15:sensor_device/soft_timer.c ****     }
  16:sensor_device/soft_timer.c **** }
  81              		.loc 1 16 1 view .LVU21
  82 0026 10BC     		pop	{r4}
  83              	.LCFI1:
  84              		.cfi_restore 4
  85              		.cfi_def_cfa_offset 0
  86 0028 7047     		bx	lr
  87              	.L7:
  88              		.loc 1 16 1 view .LVU22
  89 002a 7047     		bx	lr
  90              	.L9:
  91              		.align	2
  92              	.L8:
  93 002c 00000000 		.word	.LANCHOR0
  94              		.cfi_endproc
ARM GAS  /tmp/ccHspW3M.s 			page 3


  95              	.LFE2:
  97              		.section	.text.SoftTimer_Start,"ax",%progbits
  98              		.align	1
  99              		.global	SoftTimer_Start
 100              		.syntax unified
 101              		.thumb
 102              		.thumb_func
 103              		.fpu softvfp
 105              	SoftTimer_Start:
 106              	.LVL3:
 107              	.LFB3:
  17:sensor_device/soft_timer.c **** 
  18:sensor_device/soft_timer.c **** int8_t SoftTimer_Start(uint32_t period_ms, SoftTimer_Callback cb, SoftTimer_Mode mode)
  19:sensor_device/soft_timer.c **** {
 108              		.loc 1 19 1 is_stmt 1 view -0
 109              		.cfi_startproc
 110              		@ args = 0, pretend = 0, frame = 0
 111              		@ frame_needed = 0, uses_anonymous_args = 0
 112              		@ link register save eliminated.
  20:sensor_device/soft_timer.c ****     for (int i = 0; i < SOFT_TIMER_MAX; i++) {
 113              		.loc 1 20 5 view .LVU24
 114              	.LBB4:
 115              		.loc 1 20 10 view .LVU25
 116              		.loc 1 20 14 is_stmt 0 view .LVU26
 117 0000 0023     		movs	r3, #0
 118              	.LVL4:
 119              		.loc 1 20 21 is_stmt 1 view .LVU27
 120              		.loc 1 20 5 is_stmt 0 view .LVU28
 121 0002 072B     		cmp	r3, #7
 122 0004 1ADC     		bgt	.L20
 123              	.LBE4:
  19:sensor_device/soft_timer.c ****     for (int i = 0; i < SOFT_TIMER_MAX; i++) {
 124              		.loc 1 19 1 view .LVU29
 125 0006 F0B4     		push	{r4, r5, r6, r7}
 126              	.LCFI2:
 127              		.cfi_def_cfa_offset 16
 128              		.cfi_offset 4, -16
 129              		.cfi_offset 5, -12
 130              		.cfi_offset 6, -8
 131              		.cfi_offset 7, -4
 132              	.L14:
 133              	.LBB5:
  21:sensor_device/soft_timer.c ****         if (!timers[i].active) {
 134              		.loc 1 21 9 is_stmt 1 view .LVU30
 135              		.loc 1 21 23 is_stmt 0 view .LVU31
 136 0008 03EB8304 		add	r4, r3, r3, lsl #2
 137 000c 0D4D     		ldr	r5, .L22
 138 000e 15F82440 		ldrb	r4, [r5, r4, lsl #2]	@ zero_extendqisi2
 139              		.loc 1 21 12 view .LVU32
 140 0012 34B1     		cbz	r4, .L21
  20:sensor_device/soft_timer.c ****     for (int i = 0; i < SOFT_TIMER_MAX; i++) {
 141              		.loc 1 20 41 is_stmt 1 discriminator 2 view .LVU33
  20:sensor_device/soft_timer.c ****     for (int i = 0; i < SOFT_TIMER_MAX; i++) {
 142              		.loc 1 20 42 is_stmt 0 discriminator 2 view .LVU34
 143 0014 0133     		adds	r3, r3, #1
 144              	.LVL5:
  20:sensor_device/soft_timer.c ****     for (int i = 0; i < SOFT_TIMER_MAX; i++) {
ARM GAS  /tmp/ccHspW3M.s 			page 4


 145              		.loc 1 20 21 is_stmt 1 discriminator 2 view .LVU35
  20:sensor_device/soft_timer.c ****     for (int i = 0; i < SOFT_TIMER_MAX; i++) {
 146              		.loc 1 20 5 is_stmt 0 discriminator 2 view .LVU36
 147 0016 072B     		cmp	r3, #7
 148 0018 F6DD     		ble	.L14
 149              	.LBE5:
  22:sensor_device/soft_timer.c ****             timers[i].active    = true;
  23:sensor_device/soft_timer.c ****             timers[i].reload_ms = period_ms;
  24:sensor_device/soft_timer.c ****             timers[i].counter   = period_ms;
  25:sensor_device/soft_timer.c ****             timers[i].cb        = cb;
  26:sensor_device/soft_timer.c ****             timers[i].mode      = mode;
  27:sensor_device/soft_timer.c ****             return i;
  28:sensor_device/soft_timer.c ****         }
  29:sensor_device/soft_timer.c ****     }
  30:sensor_device/soft_timer.c ****     return -1; // 全部通道已占用
 150              		.loc 1 30 12 view .LVU37
 151 001a 4FF0FF30 		mov	r0, #-1
 152              	.LVL6:
 153              	.L13:
  31:sensor_device/soft_timer.c **** }
 154              		.loc 1 31 1 view .LVU38
 155 001e F0BC     		pop	{r4, r5, r6, r7}
 156              	.LCFI3:
 157              		.cfi_remember_state
 158              		.cfi_restore 7
 159              		.cfi_restore 6
 160              		.cfi_restore 5
 161              		.cfi_restore 4
 162              		.cfi_def_cfa_offset 0
 163 0020 7047     		bx	lr
 164              	.LVL7:
 165              	.L21:
 166              	.LCFI4:
 167              		.cfi_restore_state
 168              	.LBB6:
  22:sensor_device/soft_timer.c ****             timers[i].active    = true;
 169              		.loc 1 22 13 is_stmt 1 view .LVU39
  22:sensor_device/soft_timer.c ****             timers[i].active    = true;
 170              		.loc 1 22 33 is_stmt 0 view .LVU40
 171 0022 03EB8306 		add	r6, r3, r3, lsl #2
 172 0026 05EB8604 		add	r4, r5, r6, lsl #2
 173 002a 0127     		movs	r7, #1
 174 002c 05F82670 		strb	r7, [r5, r6, lsl #2]
  23:sensor_device/soft_timer.c ****             timers[i].counter   = period_ms;
 175              		.loc 1 23 13 is_stmt 1 view .LVU41
  23:sensor_device/soft_timer.c ****             timers[i].counter   = period_ms;
 176              		.loc 1 23 33 is_stmt 0 view .LVU42
 177 0030 6060     		str	r0, [r4, #4]
  24:sensor_device/soft_timer.c ****             timers[i].cb        = cb;
 178              		.loc 1 24 13 is_stmt 1 view .LVU43
  24:sensor_device/soft_timer.c ****             timers[i].cb        = cb;
 179              		.loc 1 24 33 is_stmt 0 view .LVU44
 180 0032 A060     		str	r0, [r4, #8]
  25:sensor_device/soft_timer.c ****             timers[i].mode      = mode;
 181              		.loc 1 25 13 is_stmt 1 view .LVU45
  25:sensor_device/soft_timer.c ****             timers[i].mode      = mode;
 182              		.loc 1 25 33 is_stmt 0 view .LVU46
ARM GAS  /tmp/ccHspW3M.s 			page 5


 183 0034 E160     		str	r1, [r4, #12]
  26:sensor_device/soft_timer.c ****             return i;
 184              		.loc 1 26 13 is_stmt 1 view .LVU47
  26:sensor_device/soft_timer.c ****             return i;
 185              		.loc 1 26 33 is_stmt 0 view .LVU48
 186 0036 2274     		strb	r2, [r4, #16]
  27:sensor_device/soft_timer.c ****         }
 187              		.loc 1 27 13 is_stmt 1 view .LVU49
  27:sensor_device/soft_timer.c ****         }
 188              		.loc 1 27 20 is_stmt 0 view .LVU50
 189 0038 58B2     		sxtb	r0, r3
 190              	.LVL8:
  27:sensor_device/soft_timer.c ****         }
 191              		.loc 1 27 20 view .LVU51
 192 003a F0E7     		b	.L13
 193              	.LVL9:
 194              	.L20:
 195              	.LCFI5:
 196              		.cfi_def_cfa_offset 0
 197              		.cfi_restore 4
 198              		.cfi_restore 5
 199              		.cfi_restore 6
 200              		.cfi_restore 7
  27:sensor_device/soft_timer.c ****         }
 201              		.loc 1 27 20 view .LVU52
 202              	.LBE6:
  30:sensor_device/soft_timer.c **** }
 203              		.loc 1 30 12 view .LVU53
 204 003c 4FF0FF30 		mov	r0, #-1
 205              	.LVL10:
 206              		.loc 1 31 1 view .LVU54
 207 0040 7047     		bx	lr
 208              	.L23:
 209 0042 00BF     		.align	2
 210              	.L22:
 211 0044 00000000 		.word	.LANCHOR0
 212              		.cfi_endproc
 213              	.LFE3:
 215              		.section	.text.SoftTimer_Stop,"ax",%progbits
 216              		.align	1
 217              		.global	SoftTimer_Stop
 218              		.syntax unified
 219              		.thumb
 220              		.thumb_func
 221              		.fpu softvfp
 223              	SoftTimer_Stop:
 224              	.LVL11:
 225              	.LFB4:
  32:sensor_device/soft_timer.c **** 
  33:sensor_device/soft_timer.c **** void SoftTimer_Stop(int8_t id)
  34:sensor_device/soft_timer.c **** {
 226              		.loc 1 34 1 is_stmt 1 view -0
 227              		.cfi_startproc
 228              		@ args = 0, pretend = 0, frame = 0
 229              		@ frame_needed = 0, uses_anonymous_args = 0
 230              		@ link register save eliminated.
  35:sensor_device/soft_timer.c ****     if (id >= 0 && id < SOFT_TIMER_MAX) {
ARM GAS  /tmp/ccHspW3M.s 			page 6


 231              		.loc 1 35 5 view .LVU56
 232              		.loc 1 35 17 is_stmt 0 view .LVU57
 233 0000 C3B2     		uxtb	r3, r0
 234              		.loc 1 35 8 view .LVU58
 235 0002 072B     		cmp	r3, #7
 236 0004 05D8     		bhi	.L24
  36:sensor_device/soft_timer.c ****         timers[id].active = false;
 237              		.loc 1 36 9 is_stmt 1 view .LVU59
 238              		.loc 1 36 27 is_stmt 0 view .LVU60
 239 0006 00EB8000 		add	r0, r0, r0, lsl #2
 240              	.LVL12:
 241              		.loc 1 36 27 view .LVU61
 242 000a 8000     		lsls	r0, r0, #2
 243 000c 014B     		ldr	r3, .L26
 244              	.LVL13:
 245              		.loc 1 36 27 view .LVU62
 246 000e 0022     		movs	r2, #0
 247 0010 1A54     		strb	r2, [r3, r0]
 248              	.L24:
  37:sensor_device/soft_timer.c ****     }
  38:sensor_device/soft_timer.c **** }
 249              		.loc 1 38 1 view .LVU63
 250 0012 7047     		bx	lr
 251              	.L27:
 252              		.align	2
 253              	.L26:
 254 0014 00000000 		.word	.LANCHOR0
 255              		.cfi_endproc
 256              	.LFE4:
 258              		.section	.text.SoftTimer_Tick,"ax",%progbits
 259              		.align	1
 260              		.global	SoftTimer_Tick
 261              		.syntax unified
 262              		.thumb
 263              		.thumb_func
 264              		.fpu softvfp
 266              	SoftTimer_Tick:
 267              	.LFB5:
  39:sensor_device/soft_timer.c **** 
  40:sensor_device/soft_timer.c **** void SoftTimer_Tick(void)
  41:sensor_device/soft_timer.c **** {
 268              		.loc 1 41 1 is_stmt 1 view -0
 269              		.cfi_startproc
 270              		@ args = 0, pretend = 0, frame = 0
 271              		@ frame_needed = 0, uses_anonymous_args = 0
 272 0000 10B5     		push	{r4, lr}
 273              	.LCFI6:
 274              		.cfi_def_cfa_offset 8
 275              		.cfi_offset 4, -8
 276              		.cfi_offset 14, -4
  42:sensor_device/soft_timer.c ****     for (int i = 0; i < SOFT_TIMER_MAX; i++) {
 277              		.loc 1 42 5 view .LVU65
 278              	.LBB7:
 279              		.loc 1 42 10 view .LVU66
 280              	.LVL14:
 281              		.loc 1 42 14 is_stmt 0 view .LVU67
 282 0002 0024     		movs	r4, #0
ARM GAS  /tmp/ccHspW3M.s 			page 7


 283              		.loc 1 42 5 view .LVU68
 284 0004 0CE0     		b	.L29
 285              	.LVL15:
 286              	.L37:
  43:sensor_device/soft_timer.c ****         if (!timers[i].active) continue;
  44:sensor_device/soft_timer.c **** 
  45:sensor_device/soft_timer.c ****         if (timers[i].counter == 0) {
  46:sensor_device/soft_timer.c ****             // 到期回调
  47:sensor_device/soft_timer.c ****             if (timers[i].cb) {
  48:sensor_device/soft_timer.c ****                 timers[i].cb();
  49:sensor_device/soft_timer.c ****             }
  50:sensor_device/soft_timer.c ****             // 根据模式决定是否重载
  51:sensor_device/soft_timer.c ****             if (timers[i].mode == TIMER_MODE_PERIODIC) {
  52:sensor_device/soft_timer.c ****                 timers[i].counter = timers[i].reload_ms;
 287              		.loc 1 52 17 is_stmt 1 view .LVU69
 288              		.loc 1 52 46 is_stmt 0 view .LVU70
 289 0006 194B     		ldr	r3, .L38
 290 0008 1344     		add	r3, r3, r2
 291 000a 5A68     		ldr	r2, [r3, #4]
 292              		.loc 1 52 35 view .LVU71
 293 000c 9A60     		str	r2, [r3, #8]
 294 000e 06E0     		b	.L30
 295              	.L31:
  53:sensor_device/soft_timer.c ****             } else {
  54:sensor_device/soft_timer.c ****                 // 单次模式，执行完后停止该定时器
  55:sensor_device/soft_timer.c ****                 timers[i].active = false;
  56:sensor_device/soft_timer.c ****             }
  57:sensor_device/soft_timer.c ****         } else {
  58:sensor_device/soft_timer.c ****             timers[i].counter--;
 296              		.loc 1 58 13 is_stmt 1 view .LVU72
 297              		.loc 1 58 30 is_stmt 0 view .LVU73
 298 0010 04EB8402 		add	r2, r4, r4, lsl #2
 299 0014 9100     		lsls	r1, r2, #2
 300 0016 154A     		ldr	r2, .L38
 301 0018 0A44     		add	r2, r2, r1
 302 001a 013B     		subs	r3, r3, #1
 303 001c 9360     		str	r3, [r2, #8]
 304              	.L30:
  42:sensor_device/soft_timer.c ****         if (!timers[i].active) continue;
 305              		.loc 1 42 41 is_stmt 1 discriminator 2 view .LVU74
  42:sensor_device/soft_timer.c ****         if (!timers[i].active) continue;
 306              		.loc 1 42 42 is_stmt 0 discriminator 2 view .LVU75
 307 001e 0134     		adds	r4, r4, #1
 308              	.LVL16:
 309              	.L29:
  42:sensor_device/soft_timer.c ****         if (!timers[i].active) continue;
 310              		.loc 1 42 21 is_stmt 1 discriminator 1 view .LVU76
  42:sensor_device/soft_timer.c ****         if (!timers[i].active) continue;
 311              		.loc 1 42 5 is_stmt 0 discriminator 1 view .LVU77
 312 0020 072C     		cmp	r4, #7
 313 0022 22DC     		bgt	.L36
  43:sensor_device/soft_timer.c ****         if (!timers[i].active) continue;
 314              		.loc 1 43 9 is_stmt 1 view .LVU78
  43:sensor_device/soft_timer.c ****         if (!timers[i].active) continue;
 315              		.loc 1 43 23 is_stmt 0 view .LVU79
 316 0024 04EB8402 		add	r2, r4, r4, lsl #2
 317 0028 9300     		lsls	r3, r2, #2
ARM GAS  /tmp/ccHspW3M.s 			page 8


 318 002a 104A     		ldr	r2, .L38
 319 002c D35C     		ldrb	r3, [r2, r3]	@ zero_extendqisi2
  43:sensor_device/soft_timer.c ****         if (!timers[i].active) continue;
 320              		.loc 1 43 12 view .LVU80
 321 002e 002B     		cmp	r3, #0
 322 0030 F5D0     		beq	.L30
  45:sensor_device/soft_timer.c ****             // 到期回调
 323              		.loc 1 45 9 is_stmt 1 view .LVU81
  45:sensor_device/soft_timer.c ****             // 到期回调
 324              		.loc 1 45 22 is_stmt 0 view .LVU82
 325 0032 04EB8403 		add	r3, r4, r4, lsl #2
 326 0036 9A00     		lsls	r2, r3, #2
 327 0038 0C4B     		ldr	r3, .L38
 328 003a 1344     		add	r3, r3, r2
 329 003c 9B68     		ldr	r3, [r3, #8]
  45:sensor_device/soft_timer.c ****             // 到期回调
 330              		.loc 1 45 12 view .LVU83
 331 003e 002B     		cmp	r3, #0
 332 0040 E6D1     		bne	.L31
  47:sensor_device/soft_timer.c ****                 timers[i].cb();
 333              		.loc 1 47 13 is_stmt 1 view .LVU84
  47:sensor_device/soft_timer.c ****                 timers[i].cb();
 334              		.loc 1 47 26 is_stmt 0 view .LVU85
 335 0042 0A4B     		ldr	r3, .L38
 336 0044 1344     		add	r3, r3, r2
 337 0046 DB68     		ldr	r3, [r3, #12]
  47:sensor_device/soft_timer.c ****                 timers[i].cb();
 338              		.loc 1 47 16 view .LVU86
 339 0048 03B1     		cbz	r3, .L32
  48:sensor_device/soft_timer.c ****             }
 340              		.loc 1 48 17 is_stmt 1 view .LVU87
 341 004a 9847     		blx	r3
 342              	.LVL17:
 343              	.L32:
  51:sensor_device/soft_timer.c ****                 timers[i].counter = timers[i].reload_ms;
 344              		.loc 1 51 13 view .LVU88
  51:sensor_device/soft_timer.c ****                 timers[i].counter = timers[i].reload_ms;
 345              		.loc 1 51 26 is_stmt 0 view .LVU89
 346 004c 04EB8403 		add	r3, r4, r4, lsl #2
 347 0050 9A00     		lsls	r2, r3, #2
 348 0052 064B     		ldr	r3, .L38
 349 0054 1344     		add	r3, r3, r2
 350 0056 1B7C     		ldrb	r3, [r3, #16]	@ zero_extendqisi2
  51:sensor_device/soft_timer.c ****                 timers[i].counter = timers[i].reload_ms;
 351              		.loc 1 51 16 view .LVU90
 352 0058 012B     		cmp	r3, #1
 353 005a D4D0     		beq	.L37
  55:sensor_device/soft_timer.c ****             }
 354              		.loc 1 55 17 is_stmt 1 view .LVU91
  55:sensor_device/soft_timer.c ****             }
 355              		.loc 1 55 34 is_stmt 0 view .LVU92
 356 005c 04EB8402 		add	r2, r4, r4, lsl #2
 357 0060 9300     		lsls	r3, r2, #2
 358 0062 024A     		ldr	r2, .L38
 359 0064 0021     		movs	r1, #0
 360 0066 D154     		strb	r1, [r2, r3]
 361 0068 D9E7     		b	.L30
ARM GAS  /tmp/ccHspW3M.s 			page 9


 362              	.L36:
  55:sensor_device/soft_timer.c ****             }
 363              		.loc 1 55 34 view .LVU93
 364              	.LBE7:
  59:sensor_device/soft_timer.c ****         }
  60:sensor_device/soft_timer.c ****     }
  61:sensor_device/soft_timer.c **** }
 365              		.loc 1 61 1 view .LVU94
 366 006a 10BD     		pop	{r4, pc}
 367              	.LVL18:
 368              	.L39:
 369              		.loc 1 61 1 view .LVU95
 370              		.align	2
 371              	.L38:
 372 006c 00000000 		.word	.LANCHOR0
 373              		.cfi_endproc
 374              	.LFE5:
 376              		.section	.bss.timers,"aw",%nobits
 377              		.align	2
 378              		.set	.LANCHOR0,. + 0
 381              	timers:
 382 0000 00000000 		.space	160
 382      00000000 
 382      00000000 
 382      00000000 
 382      00000000 
 383              		.text
 384              	.Letext0:
 385              		.file 2 "/opt/gcc-arm-none-eabi-9-2020-q2-update/arm-none-eabi/include/machine/_default_types.h"
 386              		.file 3 "/opt/gcc-arm-none-eabi-9-2020-q2-update/arm-none-eabi/include/sys/_stdint.h"
 387              		.file 4 "sensor_device/soft_timer.h"
ARM GAS  /tmp/ccHspW3M.s 			page 10

