ARM GAS  /tmp/ccwyuBhp.s 			page 1


   1              		.cpu cortex-m3
   2              		.eabi_attribute 20, 1
   3              		.eabi_attribute 21, 1
   4              		.eabi_attribute 23, 3
   5              		.eabi_attribute 24, 1
   6              		.eabi_attribute 25, 1
   7              		.eabi_attribute 26, 1
   8              		.eabi_attribute 30, 1
   9              		.eabi_attribute 34, 1
  10              		.eabi_attribute 18, 4
  11              		.file	"soft_timer.c"
  12              		.text
  13              	.Ltext0:
  14              		.cfi_sections	.debug_frame
  15              		.section	.text.SoftTimer_Init,"ax",%progbits
  16              		.align	1
  17              		.global	SoftTimer_Init
  18              		.arch armv7-m
  19              		.syntax unified
  20              		.thumb
  21              		.thumb_func
  22              		.fpu softvfp
  24              	SoftTimer_Init:
  25              	.LFB2:
  26              		.file 1 "sensor_device/soft_timer.c"
   1:sensor_device/soft_timer.c **** /* soft_timer.c */
   2:sensor_device/soft_timer.c **** 
   3:sensor_device/soft_timer.c **** #include "soft_timer.h"
   4:sensor_device/soft_timer.c **** #include "SEGGER_RTT.h"
   5:sensor_device/soft_timer.c **** static SoftTimer_t timers[SOFT_TIMER_MAX];
   6:sensor_device/soft_timer.c **** 
   7:sensor_device/soft_timer.c **** void SoftTimer_Init(void)
   8:sensor_device/soft_timer.c **** {
  27              		.loc 1 8 1 view -0
  28              		.cfi_startproc
  29              		@ args = 0, pretend = 0, frame = 0
  30              		@ frame_needed = 0, uses_anonymous_args = 0
  31              		@ link register save eliminated.
   9:sensor_device/soft_timer.c ****     for (int i = 0; i < SOFT_TIMER_MAX; i++) {
  32              		.loc 1 9 5 view .LVU1
  33              	.LBB2:
  34              		.loc 1 9 10 view .LVU2
  35              	.LVL0:
  36              		.loc 1 9 14 is_stmt 0 view .LVU3
  37 0000 0023     		movs	r3, #0
  38              	.LVL1:
  39              		.loc 1 9 21 is_stmt 1 view .LVU4
  40              		.loc 1 9 5 is_stmt 0 view .LVU5
  41 0002 072B     		cmp	r3, #7
  42 0004 11DC     		bgt	.L7
  43              	.LBE2:
   8:sensor_device/soft_timer.c ****     for (int i = 0; i < SOFT_TIMER_MAX; i++) {
  44              		.loc 1 8 1 view .LVU6
  45 0006 10B4     		push	{r4}
  46              	.LCFI0:
  47              		.cfi_def_cfa_offset 4
  48              		.cfi_offset 4, -4
ARM GAS  /tmp/ccwyuBhp.s 			page 2


  49              	.L3:
  50              	.LBB3:
  10:sensor_device/soft_timer.c ****         timers[i].active    = false;
  51              		.loc 1 10 9 is_stmt 1 discriminator 3 view .LVU7
  52              		.loc 1 10 29 is_stmt 0 discriminator 3 view .LVU8
  53 0008 084C     		ldr	r4, .L8
  54 000a 03EB8302 		add	r2, r3, r3, lsl #2
  55 000e 9000     		lsls	r0, r2, #2
  56 0010 2218     		adds	r2, r4, r0
  57 0012 0021     		movs	r1, #0
  58 0014 2154     		strb	r1, [r4, r0]
  11:sensor_device/soft_timer.c ****         timers[i].reload_ms = 0;
  59              		.loc 1 11 9 is_stmt 1 discriminator 3 view .LVU9
  60              		.loc 1 11 29 is_stmt 0 discriminator 3 view .LVU10
  61 0016 5160     		str	r1, [r2, #4]
  12:sensor_device/soft_timer.c ****         timers[i].counter   = 0;
  62              		.loc 1 12 9 is_stmt 1 discriminator 3 view .LVU11
  63              		.loc 1 12 29 is_stmt 0 discriminator 3 view .LVU12
  64 0018 9160     		str	r1, [r2, #8]
  13:sensor_device/soft_timer.c ****         timers[i].cb        = NULL;
  65              		.loc 1 13 9 is_stmt 1 discriminator 3 view .LVU13
  66              		.loc 1 13 29 is_stmt 0 discriminator 3 view .LVU14
  67 001a D160     		str	r1, [r2, #12]
  14:sensor_device/soft_timer.c ****         timers[i].mode      = TIMER_MODE_PERIODIC;
  68              		.loc 1 14 9 is_stmt 1 discriminator 3 view .LVU15
  69              		.loc 1 14 29 is_stmt 0 discriminator 3 view .LVU16
  70 001c 0121     		movs	r1, #1
  71 001e 1174     		strb	r1, [r2, #16]
   9:sensor_device/soft_timer.c ****         timers[i].active    = false;
  72              		.loc 1 9 41 is_stmt 1 discriminator 3 view .LVU17
   9:sensor_device/soft_timer.c ****         timers[i].active    = false;
  73              		.loc 1 9 42 is_stmt 0 discriminator 3 view .LVU18
  74 0020 0B44     		add	r3, r3, r1
  75              	.LVL2:
   9:sensor_device/soft_timer.c ****         timers[i].active    = false;
  76              		.loc 1 9 21 is_stmt 1 discriminator 3 view .LVU19
   9:sensor_device/soft_timer.c ****         timers[i].active    = false;
  77              		.loc 1 9 5 is_stmt 0 discriminator 3 view .LVU20
  78 0022 072B     		cmp	r3, #7
  79 0024 F0DD     		ble	.L3
  80              	.LBE3:
  15:sensor_device/soft_timer.c ****     }
  16:sensor_device/soft_timer.c **** }
  81              		.loc 1 16 1 view .LVU21
  82 0026 10BC     		pop	{r4}
  83              	.LCFI1:
  84              		.cfi_restore 4
  85              		.cfi_def_cfa_offset 0
  86 0028 7047     		bx	lr
  87              	.L7:
  88              		.loc 1 16 1 view .LVU22
  89 002a 7047     		bx	lr
  90              	.L9:
  91              		.align	2
  92              	.L8:
  93 002c 00000000 		.word	.LANCHOR0
  94              		.cfi_endproc
ARM GAS  /tmp/ccwyuBhp.s 			page 3


  95              	.LFE2:
  97              		.section	.text.SoftTimer_Start,"ax",%progbits
  98              		.align	1
  99              		.global	SoftTimer_Start
 100              		.syntax unified
 101              		.thumb
 102              		.thumb_func
 103              		.fpu softvfp
 105              	SoftTimer_Start:
 106              	.LVL3:
 107              	.LFB3:
  17:sensor_device/soft_timer.c **** 
  18:sensor_device/soft_timer.c **** int8_t SoftTimer_Start(uint32_t period_ms, SoftTimer_Callback cb, SoftTimer_Mode mode)
  19:sensor_device/soft_timer.c **** {
 108              		.loc 1 19 1 is_stmt 1 view -0
 109              		.cfi_startproc
 110              		@ args = 0, pretend = 0, frame = 0
 111              		@ frame_needed = 0, uses_anonymous_args = 0
 112              		@ link register save eliminated.
  20:sensor_device/soft_timer.c ****     for (int i = 0; i < SOFT_TIMER_MAX; i++) {
 113              		.loc 1 20 5 view .LVU24
 114              	.LBB4:
 115              		.loc 1 20 10 view .LVU25
 116              		.loc 1 20 14 is_stmt 0 view .LVU26
 117 0000 0023     		movs	r3, #0
 118              	.LVL4:
 119              		.loc 1 20 21 is_stmt 1 view .LVU27
 120              		.loc 1 20 5 is_stmt 0 view .LVU28
 121 0002 072B     		cmp	r3, #7
 122 0004 1ADC     		bgt	.L20
 123              	.LBE4:
  19:sensor_device/soft_timer.c ****     for (int i = 0; i < SOFT_TIMER_MAX; i++) {
 124              		.loc 1 19 1 view .LVU29
 125 0006 F0B4     		push	{r4, r5, r6, r7}
 126              	.LCFI2:
 127              		.cfi_def_cfa_offset 16
 128              		.cfi_offset 4, -16
 129              		.cfi_offset 5, -12
 130              		.cfi_offset 6, -8
 131              		.cfi_offset 7, -4
 132              	.L14:
 133              	.LBB5:
  21:sensor_device/soft_timer.c ****         if (!timers[i].active) {
 134              		.loc 1 21 9 is_stmt 1 view .LVU30
 135              		.loc 1 21 23 is_stmt 0 view .LVU31
 136 0008 03EB8304 		add	r4, r3, r3, lsl #2
 137 000c 0D4D     		ldr	r5, .L22
 138 000e 15F82440 		ldrb	r4, [r5, r4, lsl #2]	@ zero_extendqisi2
 139              		.loc 1 21 12 view .LVU32
 140 0012 34B1     		cbz	r4, .L21
  20:sensor_device/soft_timer.c ****     for (int i = 0; i < SOFT_TIMER_MAX; i++) {
 141              		.loc 1 20 41 is_stmt 1 discriminator 2 view .LVU33
  20:sensor_device/soft_timer.c ****     for (int i = 0; i < SOFT_TIMER_MAX; i++) {
 142              		.loc 1 20 42 is_stmt 0 discriminator 2 view .LVU34
 143 0014 0133     		adds	r3, r3, #1
 144              	.LVL5:
  20:sensor_device/soft_timer.c ****     for (int i = 0; i < SOFT_TIMER_MAX; i++) {
ARM GAS  /tmp/ccwyuBhp.s 			page 4


 145              		.loc 1 20 21 is_stmt 1 discriminator 2 view .LVU35
  20:sensor_device/soft_timer.c ****     for (int i = 0; i < SOFT_TIMER_MAX; i++) {
 146              		.loc 1 20 5 is_stmt 0 discriminator 2 view .LVU36
 147 0016 072B     		cmp	r3, #7
 148 0018 F6DD     		ble	.L14
 149              	.LBE5:
  22:sensor_device/soft_timer.c ****             timers[i].active    = true;
  23:sensor_device/soft_timer.c ****             timers[i].reload_ms = period_ms;
  24:sensor_device/soft_timer.c ****             timers[i].counter   = period_ms;
  25:sensor_device/soft_timer.c ****             timers[i].cb        = cb;
  26:sensor_device/soft_timer.c ****             timers[i].mode      = mode;
  27:sensor_device/soft_timer.c ****             return i;
  28:sensor_device/soft_timer.c ****         }
  29:sensor_device/soft_timer.c ****     }
  30:sensor_device/soft_timer.c ****     return -1; // 全部通道已占用
 150              		.loc 1 30 12 view .LVU37
 151 001a 4FF0FF30 		mov	r0, #-1
 152              	.LVL6:
 153              	.L13:
  31:sensor_device/soft_timer.c **** }
 154              		.loc 1 31 1 view .LVU38
 155 001e F0BC     		pop	{r4, r5, r6, r7}
 156              	.LCFI3:
 157              		.cfi_remember_state
 158              		.cfi_restore 7
 159              		.cfi_restore 6
 160              		.cfi_restore 5
 161              		.cfi_restore 4
 162              		.cfi_def_cfa_offset 0
 163 0020 7047     		bx	lr
 164              	.LVL7:
 165              	.L21:
 166              	.LCFI4:
 167              		.cfi_restore_state
 168              	.LBB6:
  22:sensor_device/soft_timer.c ****             timers[i].active    = true;
 169              		.loc 1 22 13 is_stmt 1 view .LVU39
  22:sensor_device/soft_timer.c ****             timers[i].active    = true;
 170              		.loc 1 22 33 is_stmt 0 view .LVU40
 171 0022 03EB8306 		add	r6, r3, r3, lsl #2
 172 0026 05EB8604 		add	r4, r5, r6, lsl #2
 173 002a 0127     		movs	r7, #1
 174 002c 05F82670 		strb	r7, [r5, r6, lsl #2]
  23:sensor_device/soft_timer.c ****             timers[i].counter   = period_ms;
 175              		.loc 1 23 13 is_stmt 1 view .LVU41
  23:sensor_device/soft_timer.c ****             timers[i].counter   = period_ms;
 176              		.loc 1 23 33 is_stmt 0 view .LVU42
 177 0030 6060     		str	r0, [r4, #4]
  24:sensor_device/soft_timer.c ****             timers[i].cb        = cb;
 178              		.loc 1 24 13 is_stmt 1 view .LVU43
  24:sensor_device/soft_timer.c ****             timers[i].cb        = cb;
 179              		.loc 1 24 33 is_stmt 0 view .LVU44
 180 0032 A060     		str	r0, [r4, #8]
  25:sensor_device/soft_timer.c ****             timers[i].mode      = mode;
 181              		.loc 1 25 13 is_stmt 1 view .LVU45
  25:sensor_device/soft_timer.c ****             timers[i].mode      = mode;
 182              		.loc 1 25 33 is_stmt 0 view .LVU46
ARM GAS  /tmp/ccwyuBhp.s 			page 5


 183 0034 E160     		str	r1, [r4, #12]
  26:sensor_device/soft_timer.c ****             return i;
 184              		.loc 1 26 13 is_stmt 1 view .LVU47
  26:sensor_device/soft_timer.c ****             return i;
 185              		.loc 1 26 33 is_stmt 0 view .LVU48
 186 0036 2274     		strb	r2, [r4, #16]
  27:sensor_device/soft_timer.c ****         }
 187              		.loc 1 27 13 is_stmt 1 view .LVU49
  27:sensor_device/soft_timer.c ****         }
 188              		.loc 1 27 20 is_stmt 0 view .LVU50
 189 0038 58B2     		sxtb	r0, r3
 190              	.LVL8:
  27:sensor_device/soft_timer.c ****         }
 191              		.loc 1 27 20 view .LVU51
 192 003a F0E7     		b	.L13
 193              	.LVL9:
 194              	.L20:
 195              	.LCFI5:
 196              		.cfi_def_cfa_offset 0
 197              		.cfi_restore 4
 198              		.cfi_restore 5
 199              		.cfi_restore 6
 200              		.cfi_restore 7
  27:sensor_device/soft_timer.c ****         }
 201              		.loc 1 27 20 view .LVU52
 202              	.LBE6:
  30:sensor_device/soft_timer.c **** }
 203              		.loc 1 30 12 view .LVU53
 204 003c 4FF0FF30 		mov	r0, #-1
 205              	.LVL10:
 206              		.loc 1 31 1 view .LVU54
 207 0040 7047     		bx	lr
 208              	.L23:
 209 0042 00BF     		.align	2
 210              	.L22:
 211 0044 00000000 		.word	.LANCHOR0
 212              		.cfi_endproc
 213              	.LFE3:
 215              		.section	.rodata.SoftTimer_Stop.str1.4,"aMS",%progbits,1
 216              		.align	2
 217              	.LC0:
 218 0000 73746F70 		.ascii	"stop_count\012\000"
 218      5F636F75 
 218      6E740A00 
 219              		.section	.text.SoftTimer_Stop,"ax",%progbits
 220              		.align	1
 221              		.global	SoftTimer_Stop
 222              		.syntax unified
 223              		.thumb
 224              		.thumb_func
 225              		.fpu softvfp
 227              	SoftTimer_Stop:
 228              	.LVL11:
 229              	.LFB4:
  32:sensor_device/soft_timer.c **** 
  33:sensor_device/soft_timer.c **** void SoftTimer_Stop(int8_t id)
  34:sensor_device/soft_timer.c **** {
ARM GAS  /tmp/ccwyuBhp.s 			page 6


 230              		.loc 1 34 1 is_stmt 1 view -0
 231              		.cfi_startproc
 232              		@ args = 0, pretend = 0, frame = 0
 233              		@ frame_needed = 0, uses_anonymous_args = 0
 234              		.loc 1 34 1 is_stmt 0 view .LVU56
 235 0000 08B5     		push	{r3, lr}
 236              	.LCFI6:
 237              		.cfi_def_cfa_offset 8
 238              		.cfi_offset 3, -8
 239              		.cfi_offset 14, -4
  35:sensor_device/soft_timer.c ****     if (id >= 0 && id < SOFT_TIMER_MAX) {
 240              		.loc 1 35 5 is_stmt 1 view .LVU57
 241              		.loc 1 35 17 is_stmt 0 view .LVU58
 242 0002 C3B2     		uxtb	r3, r0
 243              		.loc 1 35 8 view .LVU59
 244 0004 072B     		cmp	r3, #7
 245 0006 05D8     		bhi	.L25
  36:sensor_device/soft_timer.c ****         timers[id].active = false;
 246              		.loc 1 36 9 is_stmt 1 view .LVU60
 247              		.loc 1 36 27 is_stmt 0 view .LVU61
 248 0008 00EB8000 		add	r0, r0, r0, lsl #2
 249              	.LVL12:
 250              		.loc 1 36 27 view .LVU62
 251 000c 8000     		lsls	r0, r0, #2
 252 000e 044B     		ldr	r3, .L27
 253              	.LVL13:
 254              		.loc 1 36 27 view .LVU63
 255 0010 0022     		movs	r2, #0
 256 0012 1A54     		strb	r2, [r3, r0]
 257              	.L25:
  37:sensor_device/soft_timer.c ****     }
  38:sensor_device/soft_timer.c ****     myprintf("stop_count\n");
 258              		.loc 1 38 5 is_stmt 1 view .LVU64
 259 0014 0349     		ldr	r1, .L27+4
 260 0016 0020     		movs	r0, #0
 261 0018 FFF7FEFF 		bl	SEGGER_RTT_printf
 262              	.LVL14:
  39:sensor_device/soft_timer.c **** }
 263              		.loc 1 39 1 is_stmt 0 view .LVU65
 264 001c 08BD     		pop	{r3, pc}
 265              	.L28:
 266 001e 00BF     		.align	2
 267              	.L27:
 268 0020 00000000 		.word	.LANCHOR0
 269 0024 00000000 		.word	.LC0
 270              		.cfi_endproc
 271              	.LFE4:
 273              		.section	.text.SoftTimer_Tick,"ax",%progbits
 274              		.align	1
 275              		.global	SoftTimer_Tick
 276              		.syntax unified
 277              		.thumb
 278              		.thumb_func
 279              		.fpu softvfp
 281              	SoftTimer_Tick:
 282              	.LFB5:
  40:sensor_device/soft_timer.c **** 
ARM GAS  /tmp/ccwyuBhp.s 			page 7


  41:sensor_device/soft_timer.c **** void SoftTimer_Tick(void)
  42:sensor_device/soft_timer.c **** {
 283              		.loc 1 42 1 is_stmt 1 view -0
 284              		.cfi_startproc
 285              		@ args = 0, pretend = 0, frame = 0
 286              		@ frame_needed = 0, uses_anonymous_args = 0
 287 0000 10B5     		push	{r4, lr}
 288              	.LCFI7:
 289              		.cfi_def_cfa_offset 8
 290              		.cfi_offset 4, -8
 291              		.cfi_offset 14, -4
  43:sensor_device/soft_timer.c ****     for (int i = 0; i < SOFT_TIMER_MAX; i++) {
 292              		.loc 1 43 5 view .LVU67
 293              	.LBB7:
 294              		.loc 1 43 10 view .LVU68
 295              	.LVL15:
 296              		.loc 1 43 14 is_stmt 0 view .LVU69
 297 0002 0024     		movs	r4, #0
 298              		.loc 1 43 5 view .LVU70
 299 0004 0CE0     		b	.L30
 300              	.LVL16:
 301              	.L38:
  44:sensor_device/soft_timer.c ****         if (!timers[i].active) continue;
  45:sensor_device/soft_timer.c **** 
  46:sensor_device/soft_timer.c ****         if (timers[i].counter == 0) {
  47:sensor_device/soft_timer.c ****             // 到期回调
  48:sensor_device/soft_timer.c ****             if (timers[i].cb) {
  49:sensor_device/soft_timer.c ****                 timers[i].cb();
  50:sensor_device/soft_timer.c ****             }
  51:sensor_device/soft_timer.c ****             // 根据模式决定是否重载
  52:sensor_device/soft_timer.c ****             if (timers[i].mode == TIMER_MODE_PERIODIC) {
  53:sensor_device/soft_timer.c ****                 timers[i].counter = timers[i].reload_ms;
 302              		.loc 1 53 17 is_stmt 1 view .LVU71
 303              		.loc 1 53 46 is_stmt 0 view .LVU72
 304 0006 194B     		ldr	r3, .L39
 305 0008 1344     		add	r3, r3, r2
 306 000a 5A68     		ldr	r2, [r3, #4]
 307              		.loc 1 53 35 view .LVU73
 308 000c 9A60     		str	r2, [r3, #8]
 309 000e 06E0     		b	.L31
 310              	.L32:
  54:sensor_device/soft_timer.c ****             } else {
  55:sensor_device/soft_timer.c ****                 // 单次模式，执行完后停止该定时器
  56:sensor_device/soft_timer.c ****                 timers[i].active = false;
  57:sensor_device/soft_timer.c ****             }
  58:sensor_device/soft_timer.c ****         } else {
  59:sensor_device/soft_timer.c ****             timers[i].counter--;
 311              		.loc 1 59 13 is_stmt 1 view .LVU74
 312              		.loc 1 59 30 is_stmt 0 view .LVU75
 313 0010 04EB8402 		add	r2, r4, r4, lsl #2
 314 0014 9100     		lsls	r1, r2, #2
 315 0016 154A     		ldr	r2, .L39
 316 0018 0A44     		add	r2, r2, r1
 317 001a 013B     		subs	r3, r3, #1
 318 001c 9360     		str	r3, [r2, #8]
 319              	.L31:
  43:sensor_device/soft_timer.c ****         if (!timers[i].active) continue;
ARM GAS  /tmp/ccwyuBhp.s 			page 8


 320              		.loc 1 43 41 is_stmt 1 discriminator 2 view .LVU76
  43:sensor_device/soft_timer.c ****         if (!timers[i].active) continue;
 321              		.loc 1 43 42 is_stmt 0 discriminator 2 view .LVU77
 322 001e 0134     		adds	r4, r4, #1
 323              	.LVL17:
 324              	.L30:
  43:sensor_device/soft_timer.c ****         if (!timers[i].active) continue;
 325              		.loc 1 43 21 is_stmt 1 discriminator 1 view .LVU78
  43:sensor_device/soft_timer.c ****         if (!timers[i].active) continue;
 326              		.loc 1 43 5 is_stmt 0 discriminator 1 view .LVU79
 327 0020 072C     		cmp	r4, #7
 328 0022 22DC     		bgt	.L37
  44:sensor_device/soft_timer.c ****         if (!timers[i].active) continue;
 329              		.loc 1 44 9 is_stmt 1 view .LVU80
  44:sensor_device/soft_timer.c ****         if (!timers[i].active) continue;
 330              		.loc 1 44 23 is_stmt 0 view .LVU81
 331 0024 04EB8402 		add	r2, r4, r4, lsl #2
 332 0028 9300     		lsls	r3, r2, #2
 333 002a 104A     		ldr	r2, .L39
 334 002c D35C     		ldrb	r3, [r2, r3]	@ zero_extendqisi2
  44:sensor_device/soft_timer.c ****         if (!timers[i].active) continue;
 335              		.loc 1 44 12 view .LVU82
 336 002e 002B     		cmp	r3, #0
 337 0030 F5D0     		beq	.L31
  46:sensor_device/soft_timer.c ****             // 到期回调
 338              		.loc 1 46 9 is_stmt 1 view .LVU83
  46:sensor_device/soft_timer.c ****             // 到期回调
 339              		.loc 1 46 22 is_stmt 0 view .LVU84
 340 0032 04EB8403 		add	r3, r4, r4, lsl #2
 341 0036 9A00     		lsls	r2, r3, #2
 342 0038 0C4B     		ldr	r3, .L39
 343 003a 1344     		add	r3, r3, r2
 344 003c 9B68     		ldr	r3, [r3, #8]
  46:sensor_device/soft_timer.c ****             // 到期回调
 345              		.loc 1 46 12 view .LVU85
 346 003e 002B     		cmp	r3, #0
 347 0040 E6D1     		bne	.L32
  48:sensor_device/soft_timer.c ****                 timers[i].cb();
 348              		.loc 1 48 13 is_stmt 1 view .LVU86
  48:sensor_device/soft_timer.c ****                 timers[i].cb();
 349              		.loc 1 48 26 is_stmt 0 view .LVU87
 350 0042 0A4B     		ldr	r3, .L39
 351 0044 1344     		add	r3, r3, r2
 352 0046 DB68     		ldr	r3, [r3, #12]
  48:sensor_device/soft_timer.c ****                 timers[i].cb();
 353              		.loc 1 48 16 view .LVU88
 354 0048 03B1     		cbz	r3, .L33
  49:sensor_device/soft_timer.c ****             }
 355              		.loc 1 49 17 is_stmt 1 view .LVU89
 356 004a 9847     		blx	r3
 357              	.LVL18:
 358              	.L33:
  52:sensor_device/soft_timer.c ****                 timers[i].counter = timers[i].reload_ms;
 359              		.loc 1 52 13 view .LVU90
  52:sensor_device/soft_timer.c ****                 timers[i].counter = timers[i].reload_ms;
 360              		.loc 1 52 26 is_stmt 0 view .LVU91
 361 004c 04EB8403 		add	r3, r4, r4, lsl #2
ARM GAS  /tmp/ccwyuBhp.s 			page 9


 362 0050 9A00     		lsls	r2, r3, #2
 363 0052 064B     		ldr	r3, .L39
 364 0054 1344     		add	r3, r3, r2
 365 0056 1B7C     		ldrb	r3, [r3, #16]	@ zero_extendqisi2
  52:sensor_device/soft_timer.c ****                 timers[i].counter = timers[i].reload_ms;
 366              		.loc 1 52 16 view .LVU92
 367 0058 012B     		cmp	r3, #1
 368 005a D4D0     		beq	.L38
  56:sensor_device/soft_timer.c ****             }
 369              		.loc 1 56 17 is_stmt 1 view .LVU93
  56:sensor_device/soft_timer.c ****             }
 370              		.loc 1 56 34 is_stmt 0 view .LVU94
 371 005c 04EB8402 		add	r2, r4, r4, lsl #2
 372 0060 9300     		lsls	r3, r2, #2
 373 0062 024A     		ldr	r2, .L39
 374 0064 0021     		movs	r1, #0
 375 0066 D154     		strb	r1, [r2, r3]
 376 0068 D9E7     		b	.L31
 377              	.L37:
  56:sensor_device/soft_timer.c ****             }
 378              		.loc 1 56 34 view .LVU95
 379              	.LBE7:
  60:sensor_device/soft_timer.c ****         }
  61:sensor_device/soft_timer.c ****     }
  62:sensor_device/soft_timer.c **** }
 380              		.loc 1 62 1 view .LVU96
 381 006a 10BD     		pop	{r4, pc}
 382              	.LVL19:
 383              	.L40:
 384              		.loc 1 62 1 view .LVU97
 385              		.align	2
 386              	.L39:
 387 006c 00000000 		.word	.LANCHOR0
 388              		.cfi_endproc
 389              	.LFE5:
 391              		.section	.bss.timers,"aw",%nobits
 392              		.align	2
 393              		.set	.LANCHOR0,. + 0
 396              	timers:
 397 0000 00000000 		.space	160
 397      00000000 
 397      00000000 
 397      00000000 
 397      00000000 
 398              		.text
 399              	.Letext0:
 400              		.file 2 "/opt/gcc-arm-none-eabi-9-2020-q2-update/arm-none-eabi/include/machine/_default_types.h"
 401              		.file 3 "/opt/gcc-arm-none-eabi-9-2020-q2-update/arm-none-eabi/include/sys/_stdint.h"
 402              		.file 4 "sensor_device/soft_timer.h"
 403              		.file 5 "ARM_SEGGER_RTT/SEGGER_RTT.h"
ARM GAS  /tmp/ccwyuBhp.s 			page 10


DEFINED SYMBOLS
                            *ABS*:0000000000000000 soft_timer.c
     /tmp/ccwyuBhp.s:16     .text.SoftTimer_Init:0000000000000000 $t
     /tmp/ccwyuBhp.s:24     .text.SoftTimer_Init:0000000000000000 SoftTimer_Init
     /tmp/ccwyuBhp.s:93     .text.SoftTimer_Init:000000000000002c $d
     /tmp/ccwyuBhp.s:98     .text.SoftTimer_Start:0000000000000000 $t
     /tmp/ccwyuBhp.s:105    .text.SoftTimer_Start:0000000000000000 SoftTimer_Start
     /tmp/ccwyuBhp.s:211    .text.SoftTimer_Start:0000000000000044 $d
     /tmp/ccwyuBhp.s:216    .rodata.SoftTimer_Stop.str1.4:0000000000000000 $d
     /tmp/ccwyuBhp.s:220    .text.SoftTimer_Stop:0000000000000000 $t
     /tmp/ccwyuBhp.s:227    .text.SoftTimer_Stop:0000000000000000 SoftTimer_Stop
     /tmp/ccwyuBhp.s:268    .text.SoftTimer_Stop:0000000000000020 $d
     /tmp/ccwyuBhp.s:274    .text.SoftTimer_Tick:0000000000000000 $t
     /tmp/ccwyuBhp.s:281    .text.SoftTimer_Tick:0000000000000000 SoftTimer_Tick
     /tmp/ccwyuBhp.s:387    .text.SoftTimer_Tick:000000000000006c $d
     /tmp/ccwyuBhp.s:392    .bss.timers:0000000000000000 $d
     /tmp/ccwyuBhp.s:396    .bss.timers:0000000000000000 timers

UNDEFINED SYMBOLS
SEGGER_RTT_printf
