ARM GAS  /tmp/ccq9QwpM.s 			page 1


   1              		.cpu cortex-m3
   2              		.eabi_attribute 20, 1
   3              		.eabi_attribute 21, 1
   4              		.eabi_attribute 23, 3
   5              		.eabi_attribute 24, 1
   6              		.eabi_attribute 25, 1
   7              		.eabi_attribute 26, 1
   8              		.eabi_attribute 30, 1
   9              		.eabi_attribute 34, 1
  10              		.eabi_attribute 18, 4
  11              		.file	"stm32f1xx_it.c"
  12              		.text
  13              	.Ltext0:
  14              		.cfi_sections	.debug_frame
  15              		.section	.text.NMI_Handler,"ax",%progbits
  16              		.align	1
  17              		.global	NMI_Handler
  18              		.arch armv7-m
  19              		.syntax unified
  20              		.thumb
  21              		.thumb_func
  22              		.fpu softvfp
  24              	NMI_Handler:
  25              	.LFB65:
  26              		.file 1 "Core/Src/stm32f1xx_it.c"
   1:Core/Src/stm32f1xx_it.c **** #include "main.h"
   2:Core/Src/stm32f1xx_it.c **** #include "stm32f1xx_it.h"
   3:Core/Src/stm32f1xx_it.c **** #include "uart3_drv.h"
   4:Core/Src/stm32f1xx_it.c **** #include "SEGGER_RTT.h"
   5:Core/Src/stm32f1xx_it.c **** #include "bridge_app.h"
   6:Core/Src/stm32f1xx_it.c **** #include "tim.h"
   7:Core/Src/stm32f1xx_it.c **** #include "diff_signal.h"
   8:Core/Src/stm32f1xx_it.c **** void NMI_Handler(void)
   9:Core/Src/stm32f1xx_it.c **** {
  27              		.loc 1 9 1 view -0
  28              		.cfi_startproc
  29              		@ args = 0, pretend = 0, frame = 0
  30              		@ frame_needed = 0, uses_anonymous_args = 0
  31              		@ link register save eliminated.
  10:Core/Src/stm32f1xx_it.c **** }
  32              		.loc 1 10 1 view .LVU1
  33 0000 7047     		bx	lr
  34              		.cfi_endproc
  35              	.LFE65:
  37              		.section	.text.HardFault_Handler,"ax",%progbits
  38              		.align	1
  39              		.global	HardFault_Handler
  40              		.syntax unified
  41              		.thumb
  42              		.thumb_func
  43              		.fpu softvfp
  45              	HardFault_Handler:
  46              	.LFB66:
  11:Core/Src/stm32f1xx_it.c **** 
  12:Core/Src/stm32f1xx_it.c **** void HardFault_Handler(void)
  13:Core/Src/stm32f1xx_it.c **** {
  47              		.loc 1 13 1 view -0
ARM GAS  /tmp/ccq9QwpM.s 			page 2


  48              		.cfi_startproc
  49              		@ Volatile: function does not return.
  50              		@ args = 0, pretend = 0, frame = 0
  51              		@ frame_needed = 0, uses_anonymous_args = 0
  52              		@ link register save eliminated.
  53              	.L3:
  14:Core/Src/stm32f1xx_it.c ****     while (1)
  54              		.loc 1 14 5 discriminator 1 view .LVU3
  15:Core/Src/stm32f1xx_it.c ****     {
  16:Core/Src/stm32f1xx_it.c ****     }
  55              		.loc 1 16 5 discriminator 1 view .LVU4
  14:Core/Src/stm32f1xx_it.c ****     while (1)
  56              		.loc 1 14 11 discriminator 1 view .LVU5
  57 0000 FEE7     		b	.L3
  58              		.cfi_endproc
  59              	.LFE66:
  61              		.section	.text.MemManage_Handler,"ax",%progbits
  62              		.align	1
  63              		.global	MemManage_Handler
  64              		.syntax unified
  65              		.thumb
  66              		.thumb_func
  67              		.fpu softvfp
  69              	MemManage_Handler:
  70              	.LFB67:
  17:Core/Src/stm32f1xx_it.c **** }
  18:Core/Src/stm32f1xx_it.c **** 
  19:Core/Src/stm32f1xx_it.c **** void MemManage_Handler(void)
  20:Core/Src/stm32f1xx_it.c **** {
  71              		.loc 1 20 1 view -0
  72              		.cfi_startproc
  73              		@ Volatile: function does not return.
  74              		@ args = 0, pretend = 0, frame = 0
  75              		@ frame_needed = 0, uses_anonymous_args = 0
  76              		@ link register save eliminated.
  77              	.L5:
  21:Core/Src/stm32f1xx_it.c ****     while (1)
  78              		.loc 1 21 5 discriminator 1 view .LVU7
  22:Core/Src/stm32f1xx_it.c ****     {
  23:Core/Src/stm32f1xx_it.c ****     }
  79              		.loc 1 23 5 discriminator 1 view .LVU8
  21:Core/Src/stm32f1xx_it.c ****     while (1)
  80              		.loc 1 21 11 discriminator 1 view .LVU9
  81 0000 FEE7     		b	.L5
  82              		.cfi_endproc
  83              	.LFE67:
  85              		.section	.text.BusFault_Handler,"ax",%progbits
  86              		.align	1
  87              		.global	BusFault_Handler
  88              		.syntax unified
  89              		.thumb
  90              		.thumb_func
  91              		.fpu softvfp
  93              	BusFault_Handler:
  94              	.LFB68:
  24:Core/Src/stm32f1xx_it.c **** }
  25:Core/Src/stm32f1xx_it.c **** 
ARM GAS  /tmp/ccq9QwpM.s 			page 3


  26:Core/Src/stm32f1xx_it.c **** void BusFault_Handler(void)
  27:Core/Src/stm32f1xx_it.c **** {
  95              		.loc 1 27 1 view -0
  96              		.cfi_startproc
  97              		@ Volatile: function does not return.
  98              		@ args = 0, pretend = 0, frame = 0
  99              		@ frame_needed = 0, uses_anonymous_args = 0
 100              		@ link register save eliminated.
 101              	.L7:
  28:Core/Src/stm32f1xx_it.c ****     while (1)
 102              		.loc 1 28 5 discriminator 1 view .LVU11
  29:Core/Src/stm32f1xx_it.c ****     {
  30:Core/Src/stm32f1xx_it.c ****     }
 103              		.loc 1 30 5 discriminator 1 view .LVU12
  28:Core/Src/stm32f1xx_it.c ****     while (1)
 104              		.loc 1 28 11 discriminator 1 view .LVU13
 105 0000 FEE7     		b	.L7
 106              		.cfi_endproc
 107              	.LFE68:
 109              		.section	.text.UsageFault_Handler,"ax",%progbits
 110              		.align	1
 111              		.global	UsageFault_Handler
 112              		.syntax unified
 113              		.thumb
 114              		.thumb_func
 115              		.fpu softvfp
 117              	UsageFault_Handler:
 118              	.LFB69:
  31:Core/Src/stm32f1xx_it.c **** }
  32:Core/Src/stm32f1xx_it.c **** 
  33:Core/Src/stm32f1xx_it.c **** void UsageFault_Handler(void)
  34:Core/Src/stm32f1xx_it.c **** {
 119              		.loc 1 34 1 view -0
 120              		.cfi_startproc
 121              		@ Volatile: function does not return.
 122              		@ args = 0, pretend = 0, frame = 0
 123              		@ frame_needed = 0, uses_anonymous_args = 0
 124              		@ link register save eliminated.
 125              	.L9:
  35:Core/Src/stm32f1xx_it.c ****     while (1)
 126              		.loc 1 35 5 discriminator 1 view .LVU15
  36:Core/Src/stm32f1xx_it.c ****     {
  37:Core/Src/stm32f1xx_it.c ****     }
 127              		.loc 1 37 5 discriminator 1 view .LVU16
  35:Core/Src/stm32f1xx_it.c ****     while (1)
 128              		.loc 1 35 11 discriminator 1 view .LVU17
 129 0000 FEE7     		b	.L9
 130              		.cfi_endproc
 131              	.LFE69:
 133              		.section	.text.SVC_Handler,"ax",%progbits
 134              		.align	1
 135              		.global	SVC_Handler
 136              		.syntax unified
 137              		.thumb
 138              		.thumb_func
 139              		.fpu softvfp
 141              	SVC_Handler:
ARM GAS  /tmp/ccq9QwpM.s 			page 4


 142              	.LFB70:
  38:Core/Src/stm32f1xx_it.c **** }
  39:Core/Src/stm32f1xx_it.c **** 
  40:Core/Src/stm32f1xx_it.c **** void SVC_Handler(void)
  41:Core/Src/stm32f1xx_it.c **** {
 143              		.loc 1 41 1 view -0
 144              		.cfi_startproc
 145              		@ args = 0, pretend = 0, frame = 0
 146              		@ frame_needed = 0, uses_anonymous_args = 0
 147              		@ link register save eliminated.
  42:Core/Src/stm32f1xx_it.c **** }
 148              		.loc 1 42 1 view .LVU19
 149 0000 7047     		bx	lr
 150              		.cfi_endproc
 151              	.LFE70:
 153              		.section	.text.DebugMon_Handler,"ax",%progbits
 154              		.align	1
 155              		.global	DebugMon_Handler
 156              		.syntax unified
 157              		.thumb
 158              		.thumb_func
 159              		.fpu softvfp
 161              	DebugMon_Handler:
 162              	.LFB71:
  43:Core/Src/stm32f1xx_it.c **** 
  44:Core/Src/stm32f1xx_it.c **** void DebugMon_Handler(void)
  45:Core/Src/stm32f1xx_it.c **** {
 163              		.loc 1 45 1 view -0
 164              		.cfi_startproc
 165              		@ args = 0, pretend = 0, frame = 0
 166              		@ frame_needed = 0, uses_anonymous_args = 0
 167              		@ link register save eliminated.
  46:Core/Src/stm32f1xx_it.c **** }
 168              		.loc 1 46 1 view .LVU21
 169 0000 7047     		bx	lr
 170              		.cfi_endproc
 171              	.LFE71:
 173              		.section	.text.PendSV_Handler,"ax",%progbits
 174              		.align	1
 175              		.global	PendSV_Handler
 176              		.syntax unified
 177              		.thumb
 178              		.thumb_func
 179              		.fpu softvfp
 181              	PendSV_Handler:
 182              	.LFB72:
  47:Core/Src/stm32f1xx_it.c **** 
  48:Core/Src/stm32f1xx_it.c **** void PendSV_Handler(void)
  49:Core/Src/stm32f1xx_it.c **** {
 183              		.loc 1 49 1 view -0
 184              		.cfi_startproc
 185              		@ args = 0, pretend = 0, frame = 0
 186              		@ frame_needed = 0, uses_anonymous_args = 0
 187              		@ link register save eliminated.
  50:Core/Src/stm32f1xx_it.c **** }
 188              		.loc 1 50 1 view .LVU23
 189 0000 7047     		bx	lr
ARM GAS  /tmp/ccq9QwpM.s 			page 5


 190              		.cfi_endproc
 191              	.LFE72:
 193              		.section	.text.SysTick_Handler,"ax",%progbits
 194              		.align	1
 195              		.global	SysTick_Handler
 196              		.syntax unified
 197              		.thumb
 198              		.thumb_func
 199              		.fpu softvfp
 201              	SysTick_Handler:
 202              	.LFB73:
  51:Core/Src/stm32f1xx_it.c **** 
  52:Core/Src/stm32f1xx_it.c **** void SysTick_Handler(void)
  53:Core/Src/stm32f1xx_it.c **** {
 203              		.loc 1 53 1 view -0
 204              		.cfi_startproc
 205              		@ args = 0, pretend = 0, frame = 0
 206              		@ frame_needed = 0, uses_anonymous_args = 0
 207 0000 08B5     		push	{r3, lr}
 208              	.LCFI0:
 209              		.cfi_def_cfa_offset 8
 210              		.cfi_offset 3, -8
 211              		.cfi_offset 14, -4
  54:Core/Src/stm32f1xx_it.c ****     HAL_IncTick();
 212              		.loc 1 54 5 view .LVU25
 213 0002 FFF7FEFF 		bl	HAL_IncTick
 214              	.LVL0:
  55:Core/Src/stm32f1xx_it.c ****     HAL_SYSTICK_IRQHandler();
 215              		.loc 1 55 5 view .LVU26
 216 0006 FFF7FEFF 		bl	HAL_SYSTICK_IRQHandler
 217              	.LVL1:
  56:Core/Src/stm32f1xx_it.c **** }
 218              		.loc 1 56 1 is_stmt 0 view .LVU27
 219 000a 08BD     		pop	{r3, pc}
 220              		.cfi_endproc
 221              	.LFE73:
 223              		.section	.text.USART3_IRQHandler,"ax",%progbits
 224              		.align	1
 225              		.global	USART3_IRQHandler
 226              		.syntax unified
 227              		.thumb
 228              		.thumb_func
 229              		.fpu softvfp
 231              	USART3_IRQHandler:
 232              	.LFB74:
  57:Core/Src/stm32f1xx_it.c **** 
  58:Core/Src/stm32f1xx_it.c **** void USART3_IRQHandler(void)
  59:Core/Src/stm32f1xx_it.c **** {
 233              		.loc 1 59 1 is_stmt 1 view -0
 234              		.cfi_startproc
 235              		@ args = 0, pretend = 0, frame = 0
 236              		@ frame_needed = 0, uses_anonymous_args = 0
 237 0000 08B5     		push	{r3, lr}
 238              	.LCFI1:
 239              		.cfi_def_cfa_offset 8
 240              		.cfi_offset 3, -8
 241              		.cfi_offset 14, -4
ARM GAS  /tmp/ccq9QwpM.s 			page 6


  60:Core/Src/stm32f1xx_it.c ****     HAL_UART_IRQHandler(&huart3);
 242              		.loc 1 60 5 view .LVU29
 243 0002 0248     		ldr	r0, .L17
 244 0004 FFF7FEFF 		bl	HAL_UART_IRQHandler
 245              	.LVL2:
  61:Core/Src/stm32f1xx_it.c **** }
 246              		.loc 1 61 1 is_stmt 0 view .LVU30
 247 0008 08BD     		pop	{r3, pc}
 248              	.L18:
 249 000a 00BF     		.align	2
 250              	.L17:
 251 000c 00000000 		.word	huart3
 252              		.cfi_endproc
 253              	.LFE74:
 255              		.section	.text.HAL_UART_RxCpltCallback,"ax",%progbits
 256              		.align	1
 257              		.global	HAL_UART_RxCpltCallback
 258              		.syntax unified
 259              		.thumb
 260              		.thumb_func
 261              		.fpu softvfp
 263              	HAL_UART_RxCpltCallback:
 264              	.LVL3:
 265              	.LFB75:
  62:Core/Src/stm32f1xx_it.c **** 
  63:Core/Src/stm32f1xx_it.c **** void HAL_UART_RxCpltCallback(UART_HandleTypeDef *huart)
  64:Core/Src/stm32f1xx_it.c **** {
 266              		.loc 1 64 1 is_stmt 1 view -0
 267              		.cfi_startproc
 268              		@ args = 0, pretend = 0, frame = 0
 269              		@ frame_needed = 0, uses_anonymous_args = 0
 270              		.loc 1 64 1 is_stmt 0 view .LVU32
 271 0000 08B5     		push	{r3, lr}
 272              	.LCFI2:
 273              		.cfi_def_cfa_offset 8
 274              		.cfi_offset 3, -8
 275              		.cfi_offset 14, -4
  65:Core/Src/stm32f1xx_it.c ****     if (huart->Instance == USART3)
 276              		.loc 1 65 5 is_stmt 1 view .LVU33
 277              		.loc 1 65 14 is_stmt 0 view .LVU34
 278 0002 0268     		ldr	r2, [r0]
 279              		.loc 1 65 8 view .LVU35
 280 0004 034B     		ldr	r3, .L23
 281 0006 9A42     		cmp	r2, r3
 282 0008 00D0     		beq	.L22
 283              	.LVL4:
 284              	.L19:
  66:Core/Src/stm32f1xx_it.c ****     {
  67:Core/Src/stm32f1xx_it.c ****         BridgeApp_UartRxCpltCallback(huart);
  68:Core/Src/stm32f1xx_it.c ****     }
  69:Core/Src/stm32f1xx_it.c **** }
 285              		.loc 1 69 1 view .LVU36
 286 000a 08BD     		pop	{r3, pc}
 287              	.LVL5:
 288              	.L22:
  67:Core/Src/stm32f1xx_it.c ****     }
 289              		.loc 1 67 9 is_stmt 1 view .LVU37
ARM GAS  /tmp/ccq9QwpM.s 			page 7


 290 000c FFF7FEFF 		bl	BridgeApp_UartRxCpltCallback
 291              	.LVL6:
 292              		.loc 1 69 1 is_stmt 0 view .LVU38
 293 0010 FBE7     		b	.L19
 294              	.L24:
 295 0012 00BF     		.align	2
 296              	.L23:
 297 0014 00480040 		.word	1073760256
 298              		.cfi_endproc
 299              	.LFE75:
 301              		.section	.text.HAL_UART_ErrorCallback,"ax",%progbits
 302              		.align	1
 303              		.global	HAL_UART_ErrorCallback
 304              		.syntax unified
 305              		.thumb
 306              		.thumb_func
 307              		.fpu softvfp
 309              	HAL_UART_ErrorCallback:
 310              	.LVL7:
 311              	.LFB76:
  70:Core/Src/stm32f1xx_it.c **** 
  71:Core/Src/stm32f1xx_it.c **** void HAL_UART_ErrorCallback(UART_HandleTypeDef *huart)
  72:Core/Src/stm32f1xx_it.c **** {
 312              		.loc 1 72 1 is_stmt 1 view -0
 313              		.cfi_startproc
 314              		@ args = 0, pretend = 0, frame = 0
 315              		@ frame_needed = 0, uses_anonymous_args = 0
 316              		.loc 1 72 1 is_stmt 0 view .LVU40
 317 0000 08B5     		push	{r3, lr}
 318              	.LCFI3:
 319              		.cfi_def_cfa_offset 8
 320              		.cfi_offset 3, -8
 321              		.cfi_offset 14, -4
  73:Core/Src/stm32f1xx_it.c ****     if (huart->Instance == USART3)
 322              		.loc 1 73 5 is_stmt 1 view .LVU41
 323              		.loc 1 73 14 is_stmt 0 view .LVU42
 324 0002 0268     		ldr	r2, [r0]
 325              		.loc 1 73 8 view .LVU43
 326 0004 034B     		ldr	r3, .L29
 327 0006 9A42     		cmp	r2, r3
 328 0008 00D0     		beq	.L28
 329              	.LVL8:
 330              	.L25:
  74:Core/Src/stm32f1xx_it.c ****     {
  75:Core/Src/stm32f1xx_it.c ****         BridgeApp_UartErrorCallback(huart);
  76:Core/Src/stm32f1xx_it.c ****     }
  77:Core/Src/stm32f1xx_it.c **** }
 331              		.loc 1 77 1 view .LVU44
 332 000a 08BD     		pop	{r3, pc}
 333              	.LVL9:
 334              	.L28:
  75:Core/Src/stm32f1xx_it.c ****     }
 335              		.loc 1 75 9 is_stmt 1 view .LVU45
 336 000c FFF7FEFF 		bl	BridgeApp_UartErrorCallback
 337              	.LVL10:
 338              		.loc 1 77 1 is_stmt 0 view .LVU46
 339 0010 FBE7     		b	.L25
ARM GAS  /tmp/ccq9QwpM.s 			page 8


 340              	.L30:
 341 0012 00BF     		.align	2
 342              	.L29:
 343 0014 00480040 		.word	1073760256
 344              		.cfi_endproc
 345              	.LFE76:
 347              		.section	.text.TIM4_IRQHandler,"ax",%progbits
 348              		.align	1
 349              		.global	TIM4_IRQHandler
 350              		.syntax unified
 351              		.thumb
 352              		.thumb_func
 353              		.fpu softvfp
 355              	TIM4_IRQHandler:
 356              	.LFB77:
  78:Core/Src/stm32f1xx_it.c **** void TIM4_IRQHandler(void)
  79:Core/Src/stm32f1xx_it.c **** {
 357              		.loc 1 79 1 is_stmt 1 view -0
 358              		.cfi_startproc
 359              		@ args = 0, pretend = 0, frame = 0
 360              		@ frame_needed = 0, uses_anonymous_args = 0
 361 0000 08B5     		push	{r3, lr}
 362              	.LCFI4:
 363              		.cfi_def_cfa_offset 8
 364              		.cfi_offset 3, -8
 365              		.cfi_offset 14, -4
  80:Core/Src/stm32f1xx_it.c ****     HAL_TIM_IRQHandler(&htim4);
 366              		.loc 1 80 5 view .LVU48
 367 0002 0248     		ldr	r0, .L33
 368 0004 FFF7FEFF 		bl	HAL_TIM_IRQHandler
 369              	.LVL11:
  81:Core/Src/stm32f1xx_it.c **** }
 370              		.loc 1 81 1 is_stmt 0 view .LVU49
 371 0008 08BD     		pop	{r3, pc}
 372              	.L34:
 373 000a 00BF     		.align	2
 374              	.L33:
 375 000c 00000000 		.word	htim4
 376              		.cfi_endproc
 377              	.LFE77:
 379              		.section	.text.HAL_TIM_PeriodElapsedCallback,"ax",%progbits
 380              		.align	1
 381              		.global	HAL_TIM_PeriodElapsedCallback
 382              		.syntax unified
 383              		.thumb
 384              		.thumb_func
 385              		.fpu softvfp
 387              	HAL_TIM_PeriodElapsedCallback:
 388              	.LVL12:
 389              	.LFB78:
  82:Core/Src/stm32f1xx_it.c **** 
  83:Core/Src/stm32f1xx_it.c **** 
  84:Core/Src/stm32f1xx_it.c **** void HAL_TIM_PeriodElapsedCallback(TIM_HandleTypeDef *htim)
  85:Core/Src/stm32f1xx_it.c **** {
 390              		.loc 1 85 1 is_stmt 1 view -0
 391              		.cfi_startproc
 392              		@ args = 0, pretend = 0, frame = 0
ARM GAS  /tmp/ccq9QwpM.s 			page 9


 393              		@ frame_needed = 0, uses_anonymous_args = 0
 394              		.loc 1 85 1 is_stmt 0 view .LVU51
 395 0000 10B5     		push	{r4, lr}
 396              	.LCFI5:
 397              		.cfi_def_cfa_offset 8
 398              		.cfi_offset 4, -8
 399              		.cfi_offset 14, -4
 400 0002 0446     		mov	r4, r0
  86:Core/Src/stm32f1xx_it.c ****     if(htim->Instance == TIM4)
 401              		.loc 1 86 5 is_stmt 1 view .LVU52
 402              		.loc 1 86 12 is_stmt 0 view .LVU53
 403 0004 0268     		ldr	r2, [r0]
 404              		.loc 1 86 7 view .LVU54
 405 0006 074B     		ldr	r3, .L41
 406 0008 9A42     		cmp	r2, r3
 407 000a 04D0     		beq	.L39
 408              	.LVL13:
 409              	.L36:
  87:Core/Src/stm32f1xx_it.c ****     {
  88:Core/Src/stm32f1xx_it.c ****        DiffSignal_TimerPeriodElapsedCallback(htim);
  89:Core/Src/stm32f1xx_it.c ****     }
  90:Core/Src/stm32f1xx_it.c ****      if (htim->Instance == TIM6)
 410              		.loc 1 90 6 is_stmt 1 view .LVU55
 411              		.loc 1 90 14 is_stmt 0 view .LVU56
 412 000c 2268     		ldr	r2, [r4]
 413              		.loc 1 90 9 view .LVU57
 414 000e 064B     		ldr	r3, .L41+4
 415 0010 9A42     		cmp	r2, r3
 416 0012 03D0     		beq	.L40
 417              	.L35:
  91:Core/Src/stm32f1xx_it.c ****     {
  92:Core/Src/stm32f1xx_it.c ****          UW_LinkRx_1msTick();
  93:Core/Src/stm32f1xx_it.c ****     }
  94:Core/Src/stm32f1xx_it.c **** }
 418              		.loc 1 94 1 view .LVU58
 419 0014 10BD     		pop	{r4, pc}
 420              	.LVL14:
 421              	.L39:
  88:Core/Src/stm32f1xx_it.c ****     }
 422              		.loc 1 88 8 is_stmt 1 view .LVU59
 423 0016 FFF7FEFF 		bl	DiffSignal_TimerPeriodElapsedCallback
 424              	.LVL15:
  88:Core/Src/stm32f1xx_it.c ****     }
 425              		.loc 1 88 8 is_stmt 0 view .LVU60
 426 001a F7E7     		b	.L36
 427              	.L40:
 428              	.LBB2:
  92:Core/Src/stm32f1xx_it.c ****     }
 429              		.loc 1 92 10 is_stmt 1 view .LVU61
 430 001c FFF7FEFF 		bl	UW_LinkRx_1msTick
 431              	.LVL16:
 432              	.LBE2:
 433              		.loc 1 94 1 is_stmt 0 view .LVU62
 434 0020 F8E7     		b	.L35
 435              	.L42:
 436 0022 00BF     		.align	2
 437              	.L41:
ARM GAS  /tmp/ccq9QwpM.s 			page 10


 438 0024 00080040 		.word	1073743872
 439 0028 00100040 		.word	1073745920
 440              		.cfi_endproc
 441              	.LFE78:
 443              		.section	.text.TIM6_IRQHandler,"ax",%progbits
 444              		.align	1
 445              		.global	TIM6_IRQHandler
 446              		.syntax unified
 447              		.thumb
 448              		.thumb_func
 449              		.fpu softvfp
 451              	TIM6_IRQHandler:
 452              	.LFB79:
  95:Core/Src/stm32f1xx_it.c **** void TIM6_DAC_IRQHandler(void)
  96:Core/Src/stm32f1xx_it.c **** {
 453              		.loc 1 96 1 is_stmt 1 view -0
 454              		.cfi_startproc
 455              		@ args = 0, pretend = 0, frame = 0
 456              		@ frame_needed = 0, uses_anonymous_args = 0
 457 0000 08B5     		push	{r3, lr}
 458              	.LCFI6:
 459              		.cfi_def_cfa_offset 8
 460              		.cfi_offset 3, -8
 461              		.cfi_offset 14, -4
  97:Core/Src/stm32f1xx_it.c ****     HAL_TIM_IRQHandler(&htim6);
 462              		.loc 1 97 5 view .LVU64
 463 0002 0248     		ldr	r0, .L45
 464 0004 FFF7FEFF 		bl	HAL_TIM_IRQHandler
 465              	.LVL17:
  98:Core/Src/stm32f1xx_it.c **** }...
 466              		.loc 1 98 1 is_stmt 0 view .LVU65
 467 0008 08BD     		pop	{r3, pc}
 468              	.L46:
 469 000a 00BF     		.align	2
 470              	.L45:
 471 000c 00000000 		.word	htim6
 472              		.cfi_endproc
 473              	.LFE79:
 475              		.text
 476              	.Letext0:
 477              		.file 2 "/opt/gcc-arm-none-eabi-9-2020-q2-update/arm-none-eabi/include/machine/_default_types.h"
 478              		.file 3 "/opt/gcc-arm-none-eabi-9-2020-q2-update/arm-none-eabi/include/sys/_stdint.h"
 479              		.file 4 "Drivers/CMSIS/Include/core_cm3.h"
 480              		.file 5 "Drivers/CMSIS/Device/ST/STM32F1xx/Include/system_stm32f1xx.h"
 481              		.file 6 "Drivers/CMSIS/Device/ST/STM32F1xx/Include/stm32f103xe.h"
 482              		.file 7 "Drivers/STM32F1xx_HAL_Driver/Inc/stm32f1xx_hal_def.h"
 483              		.file 8 "Drivers/STM32F1xx_HAL_Driver/Inc/stm32f1xx_hal_dma.h"
 484              		.file 9 "Drivers/STM32F1xx_HAL_Driver/Inc/stm32f1xx_hal_tim.h"
 485              		.file 10 "Drivers/STM32F1xx_HAL_Driver/Inc/stm32f1xx_hal_uart.h"
 486              		.file 11 "Drivers/STM32F1xx_HAL_Driver/Inc/stm32f1xx_hal.h"
 487              		.file 12 "Core/Inc/uart3_drv.h"
 488              		.file 13 "Core/Inc/tim.h"
 489              		.file 14 "diff_signal/diff_signal.h"
 490              		.file 15 "bridge_protocol/bridge_app.h"
 491              		.file 16 "Drivers/STM32F1xx_HAL_Driver/Inc/stm32f1xx_hal_cortex.h"
ARM GAS  /tmp/ccq9QwpM.s 			page 11

