ARM GAS  /tmp/ccSIbcpN.s 			page 1


   1              		.cpu cortex-m3
   2              		.eabi_attribute 20, 1
   3              		.eabi_attribute 21, 1
   4              		.eabi_attribute 23, 3
   5              		.eabi_attribute 24, 1
   6              		.eabi_attribute 25, 1
   7              		.eabi_attribute 26, 1
   8              		.eabi_attribute 30, 1
   9              		.eabi_attribute 34, 1
  10              		.eabi_attribute 18, 4
  11              		.file	"stm32f1xx_it.c"
  12              		.text
  13              	.Ltext0:
  14              		.cfi_sections	.debug_frame
  15              		.section	.text.HAL_TIM_PeriodElapsedCallback,"ax",%progbits
  16              		.align	1
  17              		.global	HAL_TIM_PeriodElapsedCallback
  18              		.arch armv7-m
  19              		.syntax unified
  20              		.thumb
  21              		.thumb_func
  22              		.fpu softvfp
  24              	HAL_TIM_PeriodElapsedCallback:
  25              	.LVL0:
  26              	.LFB67:
  27              		.file 1 "Core/Src/stm32f1xx_it.c"
   1:Core/Src/stm32f1xx_it.c **** /* USER CODE BEGIN Header */
   2:Core/Src/stm32f1xx_it.c **** /**
   3:Core/Src/stm32f1xx_it.c ****  ******************************************************************************
   4:Core/Src/stm32f1xx_it.c ****  * @file    stm32f1xx_it.c
   5:Core/Src/stm32f1xx_it.c ****  * @brief   Interrupt Service Routines.
   6:Core/Src/stm32f1xx_it.c ****  ******************************************************************************
   7:Core/Src/stm32f1xx_it.c ****  * @attention
   8:Core/Src/stm32f1xx_it.c ****  *
   9:Core/Src/stm32f1xx_it.c ****  * <h2><center>&copy; Copyright (c) 2025 STMicroelectronics.
  10:Core/Src/stm32f1xx_it.c ****  * All rights reserved.</center></h2>
  11:Core/Src/stm32f1xx_it.c ****  *
  12:Core/Src/stm32f1xx_it.c ****  * This software component is licensed by ST under BSD 3-Clause license,
  13:Core/Src/stm32f1xx_it.c ****  * the "License"; You may not use this file except in compliance with the
  14:Core/Src/stm32f1xx_it.c ****  * License. You may obtain a copy of the License at:
  15:Core/Src/stm32f1xx_it.c ****  *                        opensource.org/licenses/BSD-3-Clause
  16:Core/Src/stm32f1xx_it.c ****  *
  17:Core/Src/stm32f1xx_it.c ****  ******************************************************************************
  18:Core/Src/stm32f1xx_it.c ****  */
  19:Core/Src/stm32f1xx_it.c **** /* USER CODE END Header */
  20:Core/Src/stm32f1xx_it.c **** 
  21:Core/Src/stm32f1xx_it.c **** /* Includes ------------------------------------------------------------------*/
  22:Core/Src/stm32f1xx_it.c **** #include "main.h"
  23:Core/Src/stm32f1xx_it.c **** #include "tim.h"
  24:Core/Src/stm32f1xx_it.c **** #include "stm32f1xx_it.h"
  25:Core/Src/stm32f1xx_it.c **** #include "diff_signal_rx.h"
  26:Core/Src/stm32f1xx_it.c **** #include "stm32f1xx_hal_adc.h"
  27:Core/Src/stm32f1xx_it.c **** #include "soft_timer.h"
  28:Core/Src/stm32f1xx_it.c **** #include "SEGGER_RTT.h"
  29:Core/Src/stm32f1xx_it.c **** extern TIM_HandleTypeDef htim6;
  30:Core/Src/stm32f1xx_it.c **** extern TIM_HandleTypeDef htim2;
  31:Core/Src/stm32f1xx_it.c **** extern ADC_HandleTypeDef hadc1;
ARM GAS  /tmp/ccSIbcpN.s 			page 2


  32:Core/Src/stm32f1xx_it.c **** /* Private includes ----------------------------------------------------------*/
  33:Core/Src/stm32f1xx_it.c **** /* USER CODE BEGIN Includes */
  34:Core/Src/stm32f1xx_it.c **** /* USER CODE END Includes */
  35:Core/Src/stm32f1xx_it.c **** 
  36:Core/Src/stm32f1xx_it.c **** /* Private typedef -----------------------------------------------------------*/
  37:Core/Src/stm32f1xx_it.c **** /* USER CODE BEGIN TD */
  38:Core/Src/stm32f1xx_it.c **** 
  39:Core/Src/stm32f1xx_it.c **** /* USER CODE END TD */
  40:Core/Src/stm32f1xx_it.c **** 
  41:Core/Src/stm32f1xx_it.c **** /* Private define ------------------------------------------------------------*/
  42:Core/Src/stm32f1xx_it.c **** /* USER CODE BEGIN PD */
  43:Core/Src/stm32f1xx_it.c **** 
  44:Core/Src/stm32f1xx_it.c **** /* USER CODE END PD */
  45:Core/Src/stm32f1xx_it.c **** 
  46:Core/Src/stm32f1xx_it.c **** /* Private macro -------------------------------------------------------------*/
  47:Core/Src/stm32f1xx_it.c **** /* USER CODE BEGIN PM */
  48:Core/Src/stm32f1xx_it.c **** 
  49:Core/Src/stm32f1xx_it.c **** /* USER CODE END PM */
  50:Core/Src/stm32f1xx_it.c **** 
  51:Core/Src/stm32f1xx_it.c **** /* Private variables ---------------------------------------------------------*/
  52:Core/Src/stm32f1xx_it.c **** /* USER CODE BEGIN PV */
  53:Core/Src/stm32f1xx_it.c **** 
  54:Core/Src/stm32f1xx_it.c **** /* USER CODE END PV */
  55:Core/Src/stm32f1xx_it.c **** 
  56:Core/Src/stm32f1xx_it.c **** /* Private function prototypes -----------------------------------------------*/
  57:Core/Src/stm32f1xx_it.c **** /* USER CODE BEGIN PFP */
  58:Core/Src/stm32f1xx_it.c **** 
  59:Core/Src/stm32f1xx_it.c **** /* USER CODE END PFP */
  60:Core/Src/stm32f1xx_it.c **** 
  61:Core/Src/stm32f1xx_it.c **** /* Private user code ---------------------------------------------------------*/
  62:Core/Src/stm32f1xx_it.c **** /* USER CODE BEGIN 0 */
  63:Core/Src/stm32f1xx_it.c **** 
  64:Core/Src/stm32f1xx_it.c **** /* USER CODE END 0 */
  65:Core/Src/stm32f1xx_it.c **** 
  66:Core/Src/stm32f1xx_it.c **** /* External variables --------------------------------------------------------*/
  67:Core/Src/stm32f1xx_it.c **** 
  68:Core/Src/stm32f1xx_it.c **** /* USER CODE BEGIN EV */
  69:Core/Src/stm32f1xx_it.c **** 
  70:Core/Src/stm32f1xx_it.c **** /* USER CODE END EV */
  71:Core/Src/stm32f1xx_it.c **** 
  72:Core/Src/stm32f1xx_it.c **** void HAL_TIM_PeriodElapsedCallback(TIM_HandleTypeDef *htim)
  73:Core/Src/stm32f1xx_it.c **** {
  28              		.loc 1 73 1 view -0
  29              		.cfi_startproc
  30              		@ args = 0, pretend = 0, frame = 0
  31              		@ frame_needed = 0, uses_anonymous_args = 0
  32              		.loc 1 73 1 is_stmt 0 view .LVU1
  33 0000 10B5     		push	{r4, lr}
  34              	.LCFI0:
  35              		.cfi_def_cfa_offset 8
  36              		.cfi_offset 4, -8
  37              		.cfi_offset 14, -4
  38 0002 0446     		mov	r4, r0
  74:Core/Src/stm32f1xx_it.c ****   if (htim->Instance == TIM6)
  39              		.loc 1 74 3 is_stmt 1 view .LVU2
  40              		.loc 1 74 11 is_stmt 0 view .LVU3
  41 0004 0268     		ldr	r2, [r0]
ARM GAS  /tmp/ccSIbcpN.s 			page 3


  42              		.loc 1 74 6 view .LVU4
  43 0006 074B     		ldr	r3, .L7
  44 0008 9A42     		cmp	r2, r3
  45 000a 04D0     		beq	.L5
  46              	.LVL1:
  47              	.L2:
  75:Core/Src/stm32f1xx_it.c ****   {
  76:Core/Src/stm32f1xx_it.c ****     
  77:Core/Src/stm32f1xx_it.c ****     SoftTimer_Tick();
  78:Core/Src/stm32f1xx_it.c ****   // myprintf("hello_world\n");
  79:Core/Src/stm32f1xx_it.c ****   }
  80:Core/Src/stm32f1xx_it.c ****   if (htim->Instance == TIM2)
  48              		.loc 1 80 3 is_stmt 1 view .LVU5
  49              		.loc 1 80 11 is_stmt 0 view .LVU6
  50 000c 2368     		ldr	r3, [r4]
  51              		.loc 1 80 6 view .LVU7
  52 000e B3F1804F 		cmp	r3, #1073741824
  53 0012 03D0     		beq	.L6
  54              	.L1:
  81:Core/Src/stm32f1xx_it.c ****   {
  82:Core/Src/stm32f1xx_it.c ****   // myprintf("hello_world\n");
  83:Core/Src/stm32f1xx_it.c ****     // 每 BIT_DURATION_US 微秒触发一次 ADC 转换
  84:Core/Src/stm32f1xx_it.c ****     HAL_ADC_Start_IT(&hadc1);
  85:Core/Src/stm32f1xx_it.c ****   }
  86:Core/Src/stm32f1xx_it.c **** }
  55              		.loc 1 86 1 view .LVU8
  56 0014 10BD     		pop	{r4, pc}
  57              	.LVL2:
  58              	.L5:
  77:Core/Src/stm32f1xx_it.c ****   // myprintf("hello_world\n");
  59              		.loc 1 77 5 is_stmt 1 view .LVU9
  60 0016 FFF7FEFF 		bl	SoftTimer_Tick
  61              	.LVL3:
  77:Core/Src/stm32f1xx_it.c ****   // myprintf("hello_world\n");
  62              		.loc 1 77 5 is_stmt 0 view .LVU10
  63 001a F7E7     		b	.L2
  64              	.L6:
  84:Core/Src/stm32f1xx_it.c ****   }
  65              		.loc 1 84 5 is_stmt 1 view .LVU11
  66 001c 0248     		ldr	r0, .L7+4
  67 001e FFF7FEFF 		bl	HAL_ADC_Start_IT
  68              	.LVL4:
  69              		.loc 1 86 1 is_stmt 0 view .LVU12
  70 0022 F7E7     		b	.L1
  71              	.L8:
  72              		.align	2
  73              	.L7:
  74 0024 00100040 		.word	1073745920
  75 0028 00000000 		.word	hadc1
  76              		.cfi_endproc
  77              	.LFE67:
  79              		.section	.text.EXTI1_IRQHandler,"ax",%progbits
  80              		.align	1
  81              		.global	EXTI1_IRQHandler
  82              		.syntax unified
  83              		.thumb
  84              		.thumb_func
ARM GAS  /tmp/ccSIbcpN.s 			page 4


  85              		.fpu softvfp
  87              	EXTI1_IRQHandler:
  88              	.LFB68:
  87:Core/Src/stm32f1xx_it.c **** 
  88:Core/Src/stm32f1xx_it.c **** void EXTI1_IRQHandler(void)
  89:Core/Src/stm32f1xx_it.c **** {
  89              		.loc 1 89 1 is_stmt 1 view -0
  90              		.cfi_startproc
  91              		@ args = 0, pretend = 0, frame = 0
  92              		@ frame_needed = 0, uses_anonymous_args = 0
  93 0000 08B5     		push	{r3, lr}
  94              	.LCFI1:
  95              		.cfi_def_cfa_offset 8
  96              		.cfi_offset 3, -8
  97              		.cfi_offset 14, -4
  90:Core/Src/stm32f1xx_it.c ****   HAL_GPIO_EXTI_IRQHandler(GPIO_PIN_1);
  98              		.loc 1 90 3 view .LVU14
  99 0002 0220     		movs	r0, #2
 100 0004 FFF7FEFF 		bl	HAL_GPIO_EXTI_IRQHandler
 101              	.LVL5:
  91:Core/Src/stm32f1xx_it.c **** }
 102              		.loc 1 91 1 is_stmt 0 view .LVU15
 103 0008 08BD     		pop	{r3, pc}
 104              		.cfi_endproc
 105              	.LFE68:
 107              		.section	.text.TIM2_IRQHandler,"ax",%progbits
 108              		.align	1
 109              		.global	TIM2_IRQHandler
 110              		.syntax unified
 111              		.thumb
 112              		.thumb_func
 113              		.fpu softvfp
 115              	TIM2_IRQHandler:
 116              	.LFB69:
  92:Core/Src/stm32f1xx_it.c **** 
  93:Core/Src/stm32f1xx_it.c **** void TIM2_IRQHandler(void)
  94:Core/Src/stm32f1xx_it.c **** {
 117              		.loc 1 94 1 is_stmt 1 view -0
 118              		.cfi_startproc
 119              		@ args = 0, pretend = 0, frame = 0
 120              		@ frame_needed = 0, uses_anonymous_args = 0
 121 0000 08B5     		push	{r3, lr}
 122              	.LCFI2:
 123              		.cfi_def_cfa_offset 8
 124              		.cfi_offset 3, -8
 125              		.cfi_offset 14, -4
  95:Core/Src/stm32f1xx_it.c ****   HAL_TIM_IRQHandler(&htim2);
 126              		.loc 1 95 3 view .LVU17
 127 0002 0248     		ldr	r0, .L13
 128 0004 FFF7FEFF 		bl	HAL_TIM_IRQHandler
 129              	.LVL6:
  96:Core/Src/stm32f1xx_it.c **** }
 130              		.loc 1 96 1 is_stmt 0 view .LVU18
 131 0008 08BD     		pop	{r3, pc}
 132              	.L14:
 133 000a 00BF     		.align	2
 134              	.L13:
ARM GAS  /tmp/ccSIbcpN.s 			page 5


 135 000c 00000000 		.word	htim2
 136              		.cfi_endproc
 137              	.LFE69:
 139              		.section	.text.ADC1_2_IRQHandler,"ax",%progbits
 140              		.align	1
 141              		.global	ADC1_2_IRQHandler
 142              		.syntax unified
 143              		.thumb
 144              		.thumb_func
 145              		.fpu softvfp
 147              	ADC1_2_IRQHandler:
 148              	.LFB70:
  97:Core/Src/stm32f1xx_it.c **** 
  98:Core/Src/stm32f1xx_it.c **** void ADC1_2_IRQHandler(void)
  99:Core/Src/stm32f1xx_it.c **** {
 149              		.loc 1 99 1 is_stmt 1 view -0
 150              		.cfi_startproc
 151              		@ args = 0, pretend = 0, frame = 0
 152              		@ frame_needed = 0, uses_anonymous_args = 0
 153 0000 08B5     		push	{r3, lr}
 154              	.LCFI3:
 155              		.cfi_def_cfa_offset 8
 156              		.cfi_offset 3, -8
 157              		.cfi_offset 14, -4
 100:Core/Src/stm32f1xx_it.c ****   HAL_ADC_IRQHandler(&hadc1);
 158              		.loc 1 100 3 view .LVU20
 159 0002 0248     		ldr	r0, .L17
 160 0004 FFF7FEFF 		bl	HAL_ADC_IRQHandler
 161              	.LVL7:
 101:Core/Src/stm32f1xx_it.c **** }
 162              		.loc 1 101 1 is_stmt 0 view .LVU21
 163 0008 08BD     		pop	{r3, pc}
 164              	.L18:
 165 000a 00BF     		.align	2
 166              	.L17:
 167 000c 00000000 		.word	hadc1
 168              		.cfi_endproc
 169              	.LFE70:
 171              		.section	.text.TIM6_IRQHandler,"ax",%progbits
 172              		.align	1
 173              		.global	TIM6_IRQHandler
 174              		.syntax unified
 175              		.thumb
 176              		.thumb_func
 177              		.fpu softvfp
 179              	TIM6_IRQHandler:
 180              	.LFB71:
 102:Core/Src/stm32f1xx_it.c **** 
 103:Core/Src/stm32f1xx_it.c **** void TIM6_DAC_IRQHandler(void)
 104:Core/Src/stm32f1xx_it.c **** {
 181              		.loc 1 104 1 is_stmt 1 view -0
 182              		.cfi_startproc
 183              		@ args = 0, pretend = 0, frame = 0
 184              		@ frame_needed = 0, uses_anonymous_args = 0
 185 0000 08B5     		push	{r3, lr}
 186              	.LCFI4:
 187              		.cfi_def_cfa_offset 8
ARM GAS  /tmp/ccSIbcpN.s 			page 6


 188              		.cfi_offset 3, -8
 189              		.cfi_offset 14, -4
 105:Core/Src/stm32f1xx_it.c ****   /* 调用 HAL 库的中断处理入口，会进而调用 HAL_TIM_PeriodElapsedCallback */
 106:Core/Src/stm32f1xx_it.c ****   HAL_TIM_IRQHandler(&htim6);
 190              		.loc 1 106 3 view .LVU23
 191 0002 0248     		ldr	r0, .L21
 192 0004 FFF7FEFF 		bl	HAL_TIM_IRQHandler
 193              	.LVL8:
 107:Core/Src/stm32f1xx_it.c **** }
 194              		.loc 1 107 1 is_stmt 0 view .LVU24
 195 0008 08BD     		pop	{r3, pc}
 196              	.L22:
 197 000a 00BF     		.align	2
 198              	.L21:
 199 000c 00000000 		.word	htim6
 200              		.cfi_endproc
 201              	.LFE71:
 203              		.section	.text.NMI_Handler,"ax",%progbits
 204              		.align	1
 205              		.global	NMI_Handler
 206              		.syntax unified
 207              		.thumb
 208              		.thumb_func
 209              		.fpu softvfp
 211              	NMI_Handler:
 212              	.LFB72:
 108:Core/Src/stm32f1xx_it.c **** 
 109:Core/Src/stm32f1xx_it.c **** /******************************************************************************/
 110:Core/Src/stm32f1xx_it.c **** /*           Cortex-M3 Processor Interruption and Exception Handlers          */
 111:Core/Src/stm32f1xx_it.c **** /******************************************************************************/
 112:Core/Src/stm32f1xx_it.c **** /**
 113:Core/Src/stm32f1xx_it.c ****  * @brief This function handles Non maskable interrupt.
 114:Core/Src/stm32f1xx_it.c ****  */
 115:Core/Src/stm32f1xx_it.c **** void NMI_Handler(void)
 116:Core/Src/stm32f1xx_it.c **** {
 213              		.loc 1 116 1 is_stmt 1 view -0
 214              		.cfi_startproc
 215              		@ Volatile: function does not return.
 216              		@ args = 0, pretend = 0, frame = 0
 217              		@ frame_needed = 0, uses_anonymous_args = 0
 218              		@ link register save eliminated.
 219              	.L24:
 117:Core/Src/stm32f1xx_it.c ****   /* USER CODE BEGIN NonMaskableInt_IRQn 0 */
 118:Core/Src/stm32f1xx_it.c **** 
 119:Core/Src/stm32f1xx_it.c ****   /* USER CODE END NonMaskableInt_IRQn 0 */
 120:Core/Src/stm32f1xx_it.c ****   /* USER CODE BEGIN NonMaskableInt_IRQn 1 */
 121:Core/Src/stm32f1xx_it.c ****   while (1)
 220              		.loc 1 121 3 discriminator 1 view .LVU26
 122:Core/Src/stm32f1xx_it.c ****   {
 123:Core/Src/stm32f1xx_it.c ****   }
 221              		.loc 1 123 3 discriminator 1 view .LVU27
 121:Core/Src/stm32f1xx_it.c ****   {
 222              		.loc 1 121 9 discriminator 1 view .LVU28
 223 0000 FEE7     		b	.L24
 224              		.cfi_endproc
 225              	.LFE72:
 227              		.section	.text.HardFault_Handler,"ax",%progbits
ARM GAS  /tmp/ccSIbcpN.s 			page 7


 228              		.align	1
 229              		.global	HardFault_Handler
 230              		.syntax unified
 231              		.thumb
 232              		.thumb_func
 233              		.fpu softvfp
 235              	HardFault_Handler:
 236              	.LFB73:
 124:Core/Src/stm32f1xx_it.c ****   /* USER CODE END NonMaskableInt_IRQn 1 */
 125:Core/Src/stm32f1xx_it.c **** }
 126:Core/Src/stm32f1xx_it.c **** 
 127:Core/Src/stm32f1xx_it.c **** /**
 128:Core/Src/stm32f1xx_it.c ****  * @brief This function handles Hard fault interrupt.
 129:Core/Src/stm32f1xx_it.c ****  */
 130:Core/Src/stm32f1xx_it.c **** void HardFault_Handler(void)
 131:Core/Src/stm32f1xx_it.c **** {
 237              		.loc 1 131 1 view -0
 238              		.cfi_startproc
 239              		@ Volatile: function does not return.
 240              		@ args = 0, pretend = 0, frame = 0
 241              		@ frame_needed = 0, uses_anonymous_args = 0
 242              		@ link register save eliminated.
 243              	.L26:
 132:Core/Src/stm32f1xx_it.c ****   /* USER CODE BEGIN HardFault_IRQn 0 */
 133:Core/Src/stm32f1xx_it.c **** 
 134:Core/Src/stm32f1xx_it.c ****   /* USER CODE END HardFault_IRQn 0 */
 135:Core/Src/stm32f1xx_it.c ****   while (1)
 244              		.loc 1 135 3 discriminator 1 view .LVU30
 136:Core/Src/stm32f1xx_it.c ****   {
 137:Core/Src/stm32f1xx_it.c ****     /* USER CODE BEGIN W1_HardFault_IRQn 0 */
 138:Core/Src/stm32f1xx_it.c ****     /* USER CODE END W1_HardFault_IRQn 0 */
 139:Core/Src/stm32f1xx_it.c ****   }
 245              		.loc 1 139 3 discriminator 1 view .LVU31
 135:Core/Src/stm32f1xx_it.c ****   {
 246              		.loc 1 135 9 discriminator 1 view .LVU32
 247 0000 FEE7     		b	.L26
 248              		.cfi_endproc
 249              	.LFE73:
 251              		.section	.text.MemManage_Handler,"ax",%progbits
 252              		.align	1
 253              		.global	MemManage_Handler
 254              		.syntax unified
 255              		.thumb
 256              		.thumb_func
 257              		.fpu softvfp
 259              	MemManage_Handler:
 260              	.LFB74:
 140:Core/Src/stm32f1xx_it.c **** }
 141:Core/Src/stm32f1xx_it.c **** 
 142:Core/Src/stm32f1xx_it.c **** /**
 143:Core/Src/stm32f1xx_it.c ****  * @brief This function handles Memory management fault.
 144:Core/Src/stm32f1xx_it.c ****  */
 145:Core/Src/stm32f1xx_it.c **** void MemManage_Handler(void)
 146:Core/Src/stm32f1xx_it.c **** {
 261              		.loc 1 146 1 view -0
 262              		.cfi_startproc
 263              		@ Volatile: function does not return.
ARM GAS  /tmp/ccSIbcpN.s 			page 8


 264              		@ args = 0, pretend = 0, frame = 0
 265              		@ frame_needed = 0, uses_anonymous_args = 0
 266              		@ link register save eliminated.
 267              	.L28:
 147:Core/Src/stm32f1xx_it.c ****   /* USER CODE BEGIN MemoryManagement_IRQn 0 */
 148:Core/Src/stm32f1xx_it.c **** 
 149:Core/Src/stm32f1xx_it.c ****   /* USER CODE END MemoryManagement_IRQn 0 */
 150:Core/Src/stm32f1xx_it.c ****   while (1)
 268              		.loc 1 150 3 discriminator 1 view .LVU34
 151:Core/Src/stm32f1xx_it.c ****   {
 152:Core/Src/stm32f1xx_it.c ****     /* USER CODE BEGIN W1_MemoryManagement_IRQn 0 */
 153:Core/Src/stm32f1xx_it.c ****     /* USER CODE END W1_MemoryManagement_IRQn 0 */
 154:Core/Src/stm32f1xx_it.c ****   }
 269              		.loc 1 154 3 discriminator 1 view .LVU35
 150:Core/Src/stm32f1xx_it.c ****   {
 270              		.loc 1 150 9 discriminator 1 view .LVU36
 271 0000 FEE7     		b	.L28
 272              		.cfi_endproc
 273              	.LFE74:
 275              		.section	.text.BusFault_Handler,"ax",%progbits
 276              		.align	1
 277              		.global	BusFault_Handler
 278              		.syntax unified
 279              		.thumb
 280              		.thumb_func
 281              		.fpu softvfp
 283              	BusFault_Handler:
 284              	.LFB75:
 155:Core/Src/stm32f1xx_it.c **** }
 156:Core/Src/stm32f1xx_it.c **** 
 157:Core/Src/stm32f1xx_it.c **** /**
 158:Core/Src/stm32f1xx_it.c ****  * @brief This function handles Prefetch fault, memory access fault.
 159:Core/Src/stm32f1xx_it.c ****  */
 160:Core/Src/stm32f1xx_it.c **** void BusFault_Handler(void)
 161:Core/Src/stm32f1xx_it.c **** {
 285              		.loc 1 161 1 view -0
 286              		.cfi_startproc
 287              		@ Volatile: function does not return.
 288              		@ args = 0, pretend = 0, frame = 0
 289              		@ frame_needed = 0, uses_anonymous_args = 0
 290              		@ link register save eliminated.
 291              	.L30:
 162:Core/Src/stm32f1xx_it.c ****   /* USER CODE BEGIN BusFault_IRQn 0 */
 163:Core/Src/stm32f1xx_it.c **** 
 164:Core/Src/stm32f1xx_it.c ****   /* USER CODE END BusFault_IRQn 0 */
 165:Core/Src/stm32f1xx_it.c ****   while (1)
 292              		.loc 1 165 3 discriminator 1 view .LVU38
 166:Core/Src/stm32f1xx_it.c ****   {
 167:Core/Src/stm32f1xx_it.c ****     /* USER CODE BEGIN W1_BusFault_IRQn 0 */
 168:Core/Src/stm32f1xx_it.c ****     /* USER CODE END W1_BusFault_IRQn 0 */
 169:Core/Src/stm32f1xx_it.c ****   }
 293              		.loc 1 169 3 discriminator 1 view .LVU39
 165:Core/Src/stm32f1xx_it.c ****   {
 294              		.loc 1 165 9 discriminator 1 view .LVU40
 295 0000 FEE7     		b	.L30
 296              		.cfi_endproc
 297              	.LFE75:
ARM GAS  /tmp/ccSIbcpN.s 			page 9


 299              		.section	.text.UsageFault_Handler,"ax",%progbits
 300              		.align	1
 301              		.global	UsageFault_Handler
 302              		.syntax unified
 303              		.thumb
 304              		.thumb_func
 305              		.fpu softvfp
 307              	UsageFault_Handler:
 308              	.LFB76:
 170:Core/Src/stm32f1xx_it.c **** }
 171:Core/Src/stm32f1xx_it.c **** 
 172:Core/Src/stm32f1xx_it.c **** /**
 173:Core/Src/stm32f1xx_it.c ****  * @brief This function handles Undefined instruction or illegal state.
 174:Core/Src/stm32f1xx_it.c ****  */
 175:Core/Src/stm32f1xx_it.c **** void UsageFault_Handler(void)
 176:Core/Src/stm32f1xx_it.c **** {
 309              		.loc 1 176 1 view -0
 310              		.cfi_startproc
 311              		@ Volatile: function does not return.
 312              		@ args = 0, pretend = 0, frame = 0
 313              		@ frame_needed = 0, uses_anonymous_args = 0
 314              		@ link register save eliminated.
 315              	.L32:
 177:Core/Src/stm32f1xx_it.c ****   /* USER CODE BEGIN UsageFault_IRQn 0 */
 178:Core/Src/stm32f1xx_it.c **** 
 179:Core/Src/stm32f1xx_it.c ****   /* USER CODE END UsageFault_IRQn 0 */
 180:Core/Src/stm32f1xx_it.c ****   while (1)
 316              		.loc 1 180 3 discriminator 1 view .LVU42
 181:Core/Src/stm32f1xx_it.c ****   {
 182:Core/Src/stm32f1xx_it.c ****     /* USER CODE BEGIN W1_UsageFault_IRQn 0 */
 183:Core/Src/stm32f1xx_it.c ****     /* USER CODE END W1_UsageFault_IRQn 0 */
 184:Core/Src/stm32f1xx_it.c ****   }
 317              		.loc 1 184 3 discriminator 1 view .LVU43
 180:Core/Src/stm32f1xx_it.c ****   {
 318              		.loc 1 180 9 discriminator 1 view .LVU44
 319 0000 FEE7     		b	.L32
 320              		.cfi_endproc
 321              	.LFE76:
 323              		.section	.text.SVC_Handler,"ax",%progbits
 324              		.align	1
 325              		.global	SVC_Handler
 326              		.syntax unified
 327              		.thumb
 328              		.thumb_func
 329              		.fpu softvfp
 331              	SVC_Handler:
 332              	.LFB77:
 185:Core/Src/stm32f1xx_it.c **** }
 186:Core/Src/stm32f1xx_it.c **** 
 187:Core/Src/stm32f1xx_it.c **** /**
 188:Core/Src/stm32f1xx_it.c ****  * @brief This function handles System service call via SWI instruction.
 189:Core/Src/stm32f1xx_it.c ****  */
 190:Core/Src/stm32f1xx_it.c **** void SVC_Handler(void)
 191:Core/Src/stm32f1xx_it.c **** {
 333              		.loc 1 191 1 view -0
 334              		.cfi_startproc
 335              		@ args = 0, pretend = 0, frame = 0
ARM GAS  /tmp/ccSIbcpN.s 			page 10


 336              		@ frame_needed = 0, uses_anonymous_args = 0
 337              		@ link register save eliminated.
 192:Core/Src/stm32f1xx_it.c ****   /* USER CODE BEGIN SVCall_IRQn 0 */
 193:Core/Src/stm32f1xx_it.c **** 
 194:Core/Src/stm32f1xx_it.c ****   /* USER CODE END SVCall_IRQn 0 */
 195:Core/Src/stm32f1xx_it.c ****   /* USER CODE BEGIN SVCall_IRQn 1 */
 196:Core/Src/stm32f1xx_it.c **** 
 197:Core/Src/stm32f1xx_it.c ****   /* USER CODE END SVCall_IRQn 1 */
 198:Core/Src/stm32f1xx_it.c **** }
 338              		.loc 1 198 1 view .LVU46
 339 0000 7047     		bx	lr
 340              		.cfi_endproc
 341              	.LFE77:
 343              		.section	.text.DebugMon_Handler,"ax",%progbits
 344              		.align	1
 345              		.global	DebugMon_Handler
 346              		.syntax unified
 347              		.thumb
 348              		.thumb_func
 349              		.fpu softvfp
 351              	DebugMon_Handler:
 352              	.LFB78:
 199:Core/Src/stm32f1xx_it.c **** 
 200:Core/Src/stm32f1xx_it.c **** /**
 201:Core/Src/stm32f1xx_it.c ****  * @brief This function handles Debug monitor.
 202:Core/Src/stm32f1xx_it.c ****  */
 203:Core/Src/stm32f1xx_it.c **** void DebugMon_Handler(void)
 204:Core/Src/stm32f1xx_it.c **** {
 353              		.loc 1 204 1 view -0
 354              		.cfi_startproc
 355              		@ args = 0, pretend = 0, frame = 0
 356              		@ frame_needed = 0, uses_anonymous_args = 0
 357              		@ link register save eliminated.
 205:Core/Src/stm32f1xx_it.c ****   /* USER CODE BEGIN DebugMonitor_IRQn 0 */
 206:Core/Src/stm32f1xx_it.c **** 
 207:Core/Src/stm32f1xx_it.c ****   /* USER CODE END DebugMonitor_IRQn 0 */
 208:Core/Src/stm32f1xx_it.c ****   /* USER CODE BEGIN DebugMonitor_IRQn 1 */
 209:Core/Src/stm32f1xx_it.c **** 
 210:Core/Src/stm32f1xx_it.c ****   /* USER CODE END DebugMonitor_IRQn 1 */
 211:Core/Src/stm32f1xx_it.c **** }
 358              		.loc 1 211 1 view .LVU48
 359 0000 7047     		bx	lr
 360              		.cfi_endproc
 361              	.LFE78:
 363              		.section	.text.PendSV_Handler,"ax",%progbits
 364              		.align	1
 365              		.global	PendSV_Handler
 366              		.syntax unified
 367              		.thumb
 368              		.thumb_func
 369              		.fpu softvfp
 371              	PendSV_Handler:
 372              	.LFB79:
 212:Core/Src/stm32f1xx_it.c **** 
 213:Core/Src/stm32f1xx_it.c **** /**
 214:Core/Src/stm32f1xx_it.c ****  * @brief This function handles Pendable request for system service.
 215:Core/Src/stm32f1xx_it.c ****  */
ARM GAS  /tmp/ccSIbcpN.s 			page 11


 216:Core/Src/stm32f1xx_it.c **** void PendSV_Handler(void)
 217:Core/Src/stm32f1xx_it.c **** {
 373              		.loc 1 217 1 view -0
 374              		.cfi_startproc
 375              		@ args = 0, pretend = 0, frame = 0
 376              		@ frame_needed = 0, uses_anonymous_args = 0
 377              		@ link register save eliminated.
 218:Core/Src/stm32f1xx_it.c ****   /* USER CODE BEGIN PendSV_IRQn 0 */
 219:Core/Src/stm32f1xx_it.c **** 
 220:Core/Src/stm32f1xx_it.c ****   /* USER CODE END PendSV_IRQn 0 */
 221:Core/Src/stm32f1xx_it.c ****   /* USER CODE BEGIN PendSV_IRQn 1 */
 222:Core/Src/stm32f1xx_it.c **** 
 223:Core/Src/stm32f1xx_it.c ****   /* USER CODE END PendSV_IRQn 1 */
 224:Core/Src/stm32f1xx_it.c **** }
 378              		.loc 1 224 1 view .LVU50
 379 0000 7047     		bx	lr
 380              		.cfi_endproc
 381              	.LFE79:
 383              		.section	.text.SysTick_Handler,"ax",%progbits
 384              		.align	1
 385              		.global	SysTick_Handler
 386              		.syntax unified
 387              		.thumb
 388              		.thumb_func
 389              		.fpu softvfp
 391              	SysTick_Handler:
 392              	.LFB80:
 225:Core/Src/stm32f1xx_it.c **** 
 226:Core/Src/stm32f1xx_it.c **** /**
 227:Core/Src/stm32f1xx_it.c ****  * @brief This function handles System tick timer.
 228:Core/Src/stm32f1xx_it.c ****  */
 229:Core/Src/stm32f1xx_it.c **** void SysTick_Handler(void)
 230:Core/Src/stm32f1xx_it.c **** {
 393              		.loc 1 230 1 view -0
 394              		.cfi_startproc
 395              		@ args = 0, pretend = 0, frame = 0
 396              		@ frame_needed = 0, uses_anonymous_args = 0
 397 0000 08B5     		push	{r3, lr}
 398              	.LCFI5:
 399              		.cfi_def_cfa_offset 8
 400              		.cfi_offset 3, -8
 401              		.cfi_offset 14, -4
 231:Core/Src/stm32f1xx_it.c ****   /* USER CODE BEGIN SysTick_IRQn 0 */
 232:Core/Src/stm32f1xx_it.c **** 
 233:Core/Src/stm32f1xx_it.c ****   /* USER CODE END SysTick_IRQn 0 */
 234:Core/Src/stm32f1xx_it.c ****   HAL_IncTick();
 402              		.loc 1 234 3 view .LVU52
 403 0002 FFF7FEFF 		bl	HAL_IncTick
 404              	.LVL9:
 235:Core/Src/stm32f1xx_it.c ****   /* USER CODE BEGIN SysTick_IRQn 1 */
 236:Core/Src/stm32f1xx_it.c **** 
 237:Core/Src/stm32f1xx_it.c ****   /* USER CODE END SysTick_IRQn 1 */
 238:Core/Src/stm32f1xx_it.c **** }
 405              		.loc 1 238 1 is_stmt 0 view .LVU53
 406 0006 08BD     		pop	{r3, pc}
 407              		.cfi_endproc
 408              	.LFE80:
ARM GAS  /tmp/ccSIbcpN.s 			page 12


 410              		.text
 411              	.Letext0:
 412              		.file 2 "/opt/gcc-arm-none-eabi-9-2020-q2-update/arm-none-eabi/include/machine/_default_types.h"
 413              		.file 3 "/opt/gcc-arm-none-eabi-9-2020-q2-update/arm-none-eabi/include/sys/_stdint.h"
 414              		.file 4 "Drivers/CMSIS/Include/core_cm3.h"
 415              		.file 5 "Drivers/CMSIS/Device/ST/STM32F1xx/Include/system_stm32f1xx.h"
 416              		.file 6 "Drivers/CMSIS/Device/ST/STM32F1xx/Include/stm32f103xe.h"
 417              		.file 7 "Drivers/CMSIS/Device/ST/STM32F1xx/Include/stm32f1xx.h"
 418              		.file 8 "Drivers/STM32F1xx_HAL_Driver/Inc/stm32f1xx_hal_def.h"
 419              		.file 9 "Drivers/STM32F1xx_HAL_Driver/Inc/stm32f1xx_hal_dma.h"
 420              		.file 10 "Drivers/STM32F1xx_HAL_Driver/Inc/stm32f1xx_hal_adc.h"
 421              		.file 11 "Drivers/STM32F1xx_HAL_Driver/Inc/stm32f1xx_hal_tim.h"
 422              		.file 12 "Drivers/STM32F1xx_HAL_Driver/Inc/stm32f1xx_hal.h"
 423              		.file 13 "Core/Inc/tim.h"
 424              		.file 14 "diff_signal/diff_signal_rx.h"
 425              		.file 15 "Drivers/STM32F1xx_HAL_Driver/Inc/stm32f1xx_hal_gpio.h"
 426              		.file 16 "sensor_device/soft_timer.h"
ARM GAS  /tmp/ccSIbcpN.s 			page 13


DEFINED SYMBOLS
                            *ABS*:0000000000000000 stm32f1xx_it.c
     /tmp/ccSIbcpN.s:16     .text.HAL_TIM_PeriodElapsedCallback:0000000000000000 $t
     /tmp/ccSIbcpN.s:24     .text.HAL_TIM_PeriodElapsedCallback:0000000000000000 HAL_TIM_PeriodElapsedCallback
     /tmp/ccSIbcpN.s:74     .text.HAL_TIM_PeriodElapsedCallback:0000000000000024 $d
     /tmp/ccSIbcpN.s:80     .text.EXTI1_IRQHandler:0000000000000000 $t
     /tmp/ccSIbcpN.s:87     .text.EXTI1_IRQHandler:0000000000000000 EXTI1_IRQHandler
     /tmp/ccSIbcpN.s:108    .text.TIM2_IRQHandler:0000000000000000 $t
     /tmp/ccSIbcpN.s:115    .text.TIM2_IRQHandler:0000000000000000 TIM2_IRQHandler
     /tmp/ccSIbcpN.s:135    .text.TIM2_IRQHandler:000000000000000c $d
     /tmp/ccSIbcpN.s:140    .text.ADC1_2_IRQHandler:0000000000000000 $t
     /tmp/ccSIbcpN.s:147    .text.ADC1_2_IRQHandler:0000000000000000 ADC1_2_IRQHandler
     /tmp/ccSIbcpN.s:167    .text.ADC1_2_IRQHandler:000000000000000c $d
     /tmp/ccSIbcpN.s:172    .text.TIM6_IRQHandler:0000000000000000 $t
     /tmp/ccSIbcpN.s:179    .text.TIM6_IRQHandler:0000000000000000 TIM6_IRQHandler
     /tmp/ccSIbcpN.s:199    .text.TIM6_IRQHandler:000000000000000c $d
     /tmp/ccSIbcpN.s:204    .text.NMI_Handler:0000000000000000 $t
     /tmp/ccSIbcpN.s:211    .text.NMI_Handler:0000000000000000 NMI_Handler
     /tmp/ccSIbcpN.s:228    .text.HardFault_Handler:0000000000000000 $t
     /tmp/ccSIbcpN.s:235    .text.HardFault_Handler:0000000000000000 HardFault_Handler
     /tmp/ccSIbcpN.s:252    .text.MemManage_Handler:0000000000000000 $t
     /tmp/ccSIbcpN.s:259    .text.MemManage_Handler:0000000000000000 MemManage_Handler
     /tmp/ccSIbcpN.s:276    .text.BusFault_Handler:0000000000000000 $t
     /tmp/ccSIbcpN.s:283    .text.BusFault_Handler:0000000000000000 BusFault_Handler
     /tmp/ccSIbcpN.s:300    .text.UsageFault_Handler:0000000000000000 $t
     /tmp/ccSIbcpN.s:307    .text.UsageFault_Handler:0000000000000000 UsageFault_Handler
     /tmp/ccSIbcpN.s:324    .text.SVC_Handler:0000000000000000 $t
     /tmp/ccSIbcpN.s:331    .text.SVC_Handler:0000000000000000 SVC_Handler
     /tmp/ccSIbcpN.s:344    .text.DebugMon_Handler:0000000000000000 $t
     /tmp/ccSIbcpN.s:351    .text.DebugMon_Handler:0000000000000000 DebugMon_Handler
     /tmp/ccSIbcpN.s:364    .text.PendSV_Handler:0000000000000000 $t
     /tmp/ccSIbcpN.s:371    .text.PendSV_Handler:0000000000000000 PendSV_Handler
     /tmp/ccSIbcpN.s:384    .text.SysTick_Handler:0000000000000000 $t
     /tmp/ccSIbcpN.s:391    .text.SysTick_Handler:0000000000000000 SysTick_Handler

UNDEFINED SYMBOLS
SoftTimer_Tick
HAL_ADC_Start_IT
hadc1
HAL_GPIO_EXTI_IRQHandler
HAL_TIM_IRQHandler
htim2
HAL_ADC_IRQHandler
htim6
HAL_IncTick
