ARM GAS  /tmp/ccRdeGPu.s 			page 1


   1              		.cpu cortex-m3
   2              		.eabi_attribute 20, 1
   3              		.eabi_attribute 21, 1
   4              		.eabi_attribute 23, 3
   5              		.eabi_attribute 24, 1
   6              		.eabi_attribute 25, 1
   7              		.eabi_attribute 26, 1
   8              		.eabi_attribute 30, 1
   9              		.eabi_attribute 34, 1
  10              		.eabi_attribute 18, 4
  11              		.file	"tim.c"
  12              		.text
  13              	.Ltext0:
  14              		.cfi_sections	.debug_frame
  15              		.section	.text.HAL_TIM_PWM_MspInit,"ax",%progbits
  16              		.align	1
  17              		.global	HAL_TIM_PWM_MspInit
  18              		.arch armv7-m
  19              		.syntax unified
  20              		.thumb
  21              		.thumb_func
  22              		.fpu softvfp
  24              	HAL_TIM_PWM_MspInit:
  25              	.LVL0:
  26              	.LFB68:
  27              		.file 1 "Core/Src/tim.c"
   1:Core/Src/tim.c **** /**
   2:Core/Src/tim.c ****   ******************************************************************************
   3:Core/Src/tim.c ****   * @file    tim.c
   4:Core/Src/tim.c ****   * @brief   This file provides code for the configuration
   5:Core/Src/tim.c ****   *          of the TIM instances.
   6:Core/Src/tim.c ****   ******************************************************************************
   7:Core/Src/tim.c ****   * @attention
   8:Core/Src/tim.c ****   *
   9:Core/Src/tim.c ****   * <h2><center>&copy; Copyright (c) 2025 STMicroelectronics.
  10:Core/Src/tim.c ****   * All rights reserved.</center></h2>
  11:Core/Src/tim.c ****   *
  12:Core/Src/tim.c ****   * This software component is licensed by ST under BSD 3-Clause license,
  13:Core/Src/tim.c ****   * the "License"; You may not use this file except in compliance with the
  14:Core/Src/tim.c ****   * License. You may obtain a copy of the License at:
  15:Core/Src/tim.c ****   *                        opensource.org/licenses/BSD-3-Clause
  16:Core/Src/tim.c ****   *
  17:Core/Src/tim.c ****   ******************************************************************************
  18:Core/Src/tim.c ****   */
  19:Core/Src/tim.c **** 
  20:Core/Src/tim.c **** /* Includes ------------------------------------------------------------------*/
  21:Core/Src/tim.c **** #include "tim.h"
  22:Core/Src/tim.c **** 
  23:Core/Src/tim.c **** /* USER CODE BEGIN 0 */
  24:Core/Src/tim.c **** 
  25:Core/Src/tim.c **** /* USER CODE END 0 */
  26:Core/Src/tim.c **** 
  27:Core/Src/tim.c **** TIM_HandleTypeDef htim1;
  28:Core/Src/tim.c **** TIM_HandleTypeDef htim2;
  29:Core/Src/tim.c **** TIM_HandleTypeDef htim3;
  30:Core/Src/tim.c **** TIM_HandleTypeDef htim8;
  31:Core/Src/tim.c **** 
ARM GAS  /tmp/ccRdeGPu.s 			page 2


  32:Core/Src/tim.c **** /* TIM1 init function */
  33:Core/Src/tim.c **** void MX_TIM1_Init(void)
  34:Core/Src/tim.c **** {
  35:Core/Src/tim.c ****   TIM_MasterConfigTypeDef sMasterConfig = {0};
  36:Core/Src/tim.c ****   TIM_OC_InitTypeDef sConfigOC = {0};
  37:Core/Src/tim.c ****   TIM_BreakDeadTimeConfigTypeDef sBreakDeadTimeConfig = {0};
  38:Core/Src/tim.c **** 
  39:Core/Src/tim.c ****   htim1.Instance = TIM1;
  40:Core/Src/tim.c ****   htim1.Init.Prescaler = 71;
  41:Core/Src/tim.c ****   htim1.Init.CounterMode = TIM_COUNTERMODE_UP;
  42:Core/Src/tim.c ****   htim1.Init.Period = 9;
  43:Core/Src/tim.c ****   htim1.Init.ClockDivision = TIM_CLOCKDIVISION_DIV1;
  44:Core/Src/tim.c ****   htim1.Init.RepetitionCounter = 0;
  45:Core/Src/tim.c ****   htim1.Init.AutoReloadPreload = TIM_AUTORELOAD_PRELOAD_DISABLE;
  46:Core/Src/tim.c ****   if (HAL_TIM_PWM_Init(&htim1) != HAL_OK)
  47:Core/Src/tim.c ****   {
  48:Core/Src/tim.c ****     Error_Handler();
  49:Core/Src/tim.c ****   }
  50:Core/Src/tim.c ****   sMasterConfig.MasterOutputTrigger = TIM_TRGO_RESET;
  51:Core/Src/tim.c ****   sMasterConfig.MasterSlaveMode = TIM_MASTERSLAVEMODE_DISABLE;
  52:Core/Src/tim.c ****   if (HAL_TIMEx_MasterConfigSynchronization(&htim1, &sMasterConfig) != HAL_OK)
  53:Core/Src/tim.c ****   {
  54:Core/Src/tim.c ****     Error_Handler();
  55:Core/Src/tim.c ****   }
  56:Core/Src/tim.c ****   sConfigOC.OCMode = TIM_OCMODE_PWM1;
  57:Core/Src/tim.c ****   sConfigOC.Pulse = 0;
  58:Core/Src/tim.c ****   sConfigOC.OCPolarity = TIM_OCPOLARITY_HIGH;
  59:Core/Src/tim.c ****   sConfigOC.OCNPolarity = TIM_OCNPOLARITY_HIGH;
  60:Core/Src/tim.c ****   sConfigOC.OCFastMode = TIM_OCFAST_DISABLE;
  61:Core/Src/tim.c ****   sConfigOC.OCIdleState = TIM_OCIDLESTATE_RESET;
  62:Core/Src/tim.c ****   sConfigOC.OCNIdleState = TIM_OCNIDLESTATE_RESET;
  63:Core/Src/tim.c ****   if (HAL_TIM_PWM_ConfigChannel(&htim1, &sConfigOC, TIM_CHANNEL_1) != HAL_OK)
  64:Core/Src/tim.c ****   {
  65:Core/Src/tim.c ****     Error_Handler();
  66:Core/Src/tim.c ****   }
  67:Core/Src/tim.c ****   sBreakDeadTimeConfig.OffStateRunMode = TIM_OSSR_DISABLE;
  68:Core/Src/tim.c ****   sBreakDeadTimeConfig.OffStateIDLEMode = TIM_OSSI_DISABLE;
  69:Core/Src/tim.c ****   sBreakDeadTimeConfig.LockLevel = TIM_LOCKLEVEL_OFF;
  70:Core/Src/tim.c ****   sBreakDeadTimeConfig.DeadTime = 0;
  71:Core/Src/tim.c ****   sBreakDeadTimeConfig.BreakState = TIM_BREAK_DISABLE;
  72:Core/Src/tim.c ****   sBreakDeadTimeConfig.BreakPolarity = TIM_BREAKPOLARITY_HIGH;
  73:Core/Src/tim.c ****   sBreakDeadTimeConfig.AutomaticOutput = TIM_AUTOMATICOUTPUT_DISABLE;
  74:Core/Src/tim.c ****   if (HAL_TIMEx_ConfigBreakDeadTime(&htim1, &sBreakDeadTimeConfig) != HAL_OK)
  75:Core/Src/tim.c ****   {
  76:Core/Src/tim.c ****     Error_Handler();
  77:Core/Src/tim.c ****   }
  78:Core/Src/tim.c ****   HAL_TIM_MspPostInit(&htim1);
  79:Core/Src/tim.c **** 
  80:Core/Src/tim.c **** }
  81:Core/Src/tim.c **** 
  82:Core/Src/tim.c **** /* TIM3 init function */
  83:Core/Src/tim.c **** void MX_TIM3_Init(void)
  84:Core/Src/tim.c **** {
  85:Core/Src/tim.c ****   TIM_MasterConfigTypeDef sMasterConfig = {0};
  86:Core/Src/tim.c ****   TIM_OC_InitTypeDef sConfigOC = {0};
  87:Core/Src/tim.c **** 
  88:Core/Src/tim.c ****   htim3.Instance = TIM3;
ARM GAS  /tmp/ccRdeGPu.s 			page 3


  89:Core/Src/tim.c ****   htim3.Init.Prescaler = 71;
  90:Core/Src/tim.c ****   htim3.Init.CounterMode = TIM_COUNTERMODE_UP;
  91:Core/Src/tim.c ****   htim3.Init.Period = 9;
  92:Core/Src/tim.c ****   htim3.Init.ClockDivision = TIM_CLOCKDIVISION_DIV1;
  93:Core/Src/tim.c ****   htim3.Init.AutoReloadPreload = TIM_AUTORELOAD_PRELOAD_DISABLE;
  94:Core/Src/tim.c ****   if (HAL_TIM_PWM_Init(&htim3) != HAL_OK)
  95:Core/Src/tim.c ****   {
  96:Core/Src/tim.c ****     Error_Handler();
  97:Core/Src/tim.c ****   }
  98:Core/Src/tim.c ****   sMasterConfig.MasterOutputTrigger = TIM_TRGO_RESET;
  99:Core/Src/tim.c ****   sMasterConfig.MasterSlaveMode = TIM_MASTERSLAVEMODE_DISABLE;
 100:Core/Src/tim.c ****   if (HAL_TIMEx_MasterConfigSynchronization(&htim3, &sMasterConfig) != HAL_OK)
 101:Core/Src/tim.c ****   {
 102:Core/Src/tim.c ****     Error_Handler();
 103:Core/Src/tim.c ****   }
 104:Core/Src/tim.c ****   sConfigOC.OCMode = TIM_OCMODE_PWM1;
 105:Core/Src/tim.c ****   sConfigOC.Pulse = 0;
 106:Core/Src/tim.c ****   sConfigOC.OCPolarity = TIM_OCPOLARITY_HIGH;
 107:Core/Src/tim.c ****   sConfigOC.OCFastMode = TIM_OCFAST_DISABLE;
 108:Core/Src/tim.c ****   if (HAL_TIM_PWM_ConfigChannel(&htim3, &sConfigOC, TIM_CHANNEL_2) != HAL_OK)
 109:Core/Src/tim.c ****   {
 110:Core/Src/tim.c ****     Error_Handler();
 111:Core/Src/tim.c ****   }
 112:Core/Src/tim.c ****   if (HAL_TIM_PWM_ConfigChannel(&htim3, &sConfigOC, TIM_CHANNEL_3) != HAL_OK)
 113:Core/Src/tim.c ****   {
 114:Core/Src/tim.c ****     Error_Handler();
 115:Core/Src/tim.c ****   }
 116:Core/Src/tim.c ****   HAL_TIM_MspPostInit(&htim3);
 117:Core/Src/tim.c **** 
 118:Core/Src/tim.c **** }
 119:Core/Src/tim.c **** /* TIM8 init function */
 120:Core/Src/tim.c **** void MX_TIM8_Init(void)
 121:Core/Src/tim.c **** {
 122:Core/Src/tim.c ****   TIM_MasterConfigTypeDef sMasterConfig = {0};
 123:Core/Src/tim.c ****   TIM_OC_InitTypeDef sConfigOC = {0};
 124:Core/Src/tim.c ****   TIM_BreakDeadTimeConfigTypeDef sBreakDeadTimeConfig = {0};
 125:Core/Src/tim.c **** 
 126:Core/Src/tim.c ****   htim8.Instance = TIM8;
 127:Core/Src/tim.c ****   htim8.Init.Prescaler = 0;
 128:Core/Src/tim.c ****   htim8.Init.CounterMode = TIM_COUNTERMODE_UP;
 129:Core/Src/tim.c ****   htim8.Init.Period = 65535;
 130:Core/Src/tim.c ****   htim8.Init.ClockDivision = TIM_CLOCKDIVISION_DIV1;
 131:Core/Src/tim.c ****   htim8.Init.RepetitionCounter = 0;
 132:Core/Src/tim.c ****   htim8.Init.AutoReloadPreload = TIM_AUTORELOAD_PRELOAD_DISABLE;
 133:Core/Src/tim.c ****   if (HAL_TIM_PWM_Init(&htim8) != HAL_OK)
 134:Core/Src/tim.c ****   {
 135:Core/Src/tim.c ****     Error_Handler();
 136:Core/Src/tim.c ****   }
 137:Core/Src/tim.c ****   sMasterConfig.MasterOutputTrigger = TIM_TRGO_RESET;
 138:Core/Src/tim.c ****   sMasterConfig.MasterSlaveMode = TIM_MASTERSLAVEMODE_DISABLE;
 139:Core/Src/tim.c ****   if (HAL_TIMEx_MasterConfigSynchronization(&htim8, &sMasterConfig) != HAL_OK)
 140:Core/Src/tim.c ****   {
 141:Core/Src/tim.c ****     Error_Handler();
 142:Core/Src/tim.c ****   }
 143:Core/Src/tim.c ****   sConfigOC.OCMode = TIM_OCMODE_PWM1;
 144:Core/Src/tim.c ****   sConfigOC.Pulse = 0;
 145:Core/Src/tim.c ****   sConfigOC.OCPolarity = TIM_OCPOLARITY_HIGH;
ARM GAS  /tmp/ccRdeGPu.s 			page 4


 146:Core/Src/tim.c ****   sConfigOC.OCNPolarity = TIM_OCNPOLARITY_HIGH;
 147:Core/Src/tim.c ****   sConfigOC.OCFastMode = TIM_OCFAST_DISABLE;
 148:Core/Src/tim.c ****   sConfigOC.OCIdleState = TIM_OCIDLESTATE_RESET;
 149:Core/Src/tim.c ****   sConfigOC.OCNIdleState = TIM_OCNIDLESTATE_RESET;
 150:Core/Src/tim.c ****   if (HAL_TIM_PWM_ConfigChannel(&htim8, &sConfigOC, TIM_CHANNEL_2) != HAL_OK)
 151:Core/Src/tim.c ****   {
 152:Core/Src/tim.c ****     Error_Handler();
 153:Core/Src/tim.c ****   }
 154:Core/Src/tim.c ****   sBreakDeadTimeConfig.OffStateRunMode = TIM_OSSR_DISABLE;
 155:Core/Src/tim.c ****   sBreakDeadTimeConfig.OffStateIDLEMode = TIM_OSSI_DISABLE;
 156:Core/Src/tim.c ****   sBreakDeadTimeConfig.LockLevel = TIM_LOCKLEVEL_OFF;
 157:Core/Src/tim.c ****   sBreakDeadTimeConfig.DeadTime = 0;
 158:Core/Src/tim.c ****   sBreakDeadTimeConfig.BreakState = TIM_BREAK_DISABLE;
 159:Core/Src/tim.c ****   sBreakDeadTimeConfig.BreakPolarity = TIM_BREAKPOLARITY_HIGH;
 160:Core/Src/tim.c ****   sBreakDeadTimeConfig.AutomaticOutput = TIM_AUTOMATICOUTPUT_DISABLE;
 161:Core/Src/tim.c ****   if (HAL_TIMEx_ConfigBreakDeadTime(&htim8, &sBreakDeadTimeConfig) != HAL_OK)
 162:Core/Src/tim.c ****   {
 163:Core/Src/tim.c ****     Error_Handler();
 164:Core/Src/tim.c ****   }
 165:Core/Src/tim.c ****   HAL_TIM_MspPostInit(&htim8);
 166:Core/Src/tim.c **** 
 167:Core/Src/tim.c **** }
 168:Core/Src/tim.c **** 
 169:Core/Src/tim.c **** void HAL_TIM_PWM_MspInit(TIM_HandleTypeDef* tim_pwmHandle)
 170:Core/Src/tim.c **** {
  28              		.loc 1 170 1 view -0
  29              		.cfi_startproc
  30              		@ args = 0, pretend = 0, frame = 16
  31              		@ frame_needed = 0, uses_anonymous_args = 0
  32              		@ link register save eliminated.
  33              		.loc 1 170 1 is_stmt 0 view .LVU1
  34 0000 84B0     		sub	sp, sp, #16
  35              	.LCFI0:
  36              		.cfi_def_cfa_offset 16
 171:Core/Src/tim.c **** 
 172:Core/Src/tim.c ****   if(tim_pwmHandle->Instance==TIM1)
  37              		.loc 1 172 3 is_stmt 1 view .LVU2
  38              		.loc 1 172 19 is_stmt 0 view .LVU3
  39 0002 0368     		ldr	r3, [r0]
  40              		.loc 1 172 5 view .LVU4
  41 0004 154A     		ldr	r2, .L9
  42 0006 9342     		cmp	r3, r2
  43 0008 07D0     		beq	.L6
 173:Core/Src/tim.c ****   {
 174:Core/Src/tim.c ****   /* USER CODE BEGIN TIM1_MspInit 0 */
 175:Core/Src/tim.c **** 
 176:Core/Src/tim.c ****   /* USER CODE END TIM1_MspInit 0 */
 177:Core/Src/tim.c ****     /* TIM1 clock enable */
 178:Core/Src/tim.c ****     __HAL_RCC_TIM1_CLK_ENABLE();
 179:Core/Src/tim.c ****   /* USER CODE BEGIN TIM1_MspInit 1 */
 180:Core/Src/tim.c **** 
 181:Core/Src/tim.c ****   /* USER CODE END TIM1_MspInit 1 */
 182:Core/Src/tim.c ****   }
 183:Core/Src/tim.c ****   else if(tim_pwmHandle->Instance==TIM3)
  44              		.loc 1 183 8 is_stmt 1 view .LVU5
  45              		.loc 1 183 10 is_stmt 0 view .LVU6
  46 000a 154A     		ldr	r2, .L9+4
ARM GAS  /tmp/ccRdeGPu.s 			page 5


  47 000c 9342     		cmp	r3, r2
  48 000e 0FD0     		beq	.L7
 184:Core/Src/tim.c ****   {
 185:Core/Src/tim.c ****   /* USER CODE BEGIN TIM3_MspInit 0 */
 186:Core/Src/tim.c **** 
 187:Core/Src/tim.c ****   /* USER CODE END TIM3_MspInit 0 */
 188:Core/Src/tim.c ****     /* TIM3 clock enable */
 189:Core/Src/tim.c ****     __HAL_RCC_TIM3_CLK_ENABLE();
 190:Core/Src/tim.c ****   /* USER CODE BEGIN TIM3_MspInit 1 */
 191:Core/Src/tim.c **** 
 192:Core/Src/tim.c ****   /* USER CODE END TIM3_MspInit 1 */
 193:Core/Src/tim.c ****   }
 194:Core/Src/tim.c ****   else if(tim_pwmHandle->Instance==TIM8)
  49              		.loc 1 194 8 is_stmt 1 view .LVU7
  50              		.loc 1 194 10 is_stmt 0 view .LVU8
  51 0010 144A     		ldr	r2, .L9+8
  52 0012 9342     		cmp	r3, r2
  53 0014 17D0     		beq	.L8
  54              	.L1:
 195:Core/Src/tim.c ****   {
 196:Core/Src/tim.c ****   /* USER CODE BEGIN TIM8_MspInit 0 */
 197:Core/Src/tim.c **** 
 198:Core/Src/tim.c ****   /* USER CODE END TIM8_MspInit 0 */
 199:Core/Src/tim.c ****     /* TIM8 clock enable */
 200:Core/Src/tim.c ****     __HAL_RCC_TIM8_CLK_ENABLE();
 201:Core/Src/tim.c ****   /* USER CODE BEGIN TIM8_MspInit 1 */
 202:Core/Src/tim.c **** 
 203:Core/Src/tim.c ****   /* USER CODE END TIM8_MspInit 1 */
 204:Core/Src/tim.c ****   }
 205:Core/Src/tim.c **** }
  55              		.loc 1 205 1 view .LVU9
  56 0016 04B0     		add	sp, sp, #16
  57              	.LCFI1:
  58              		.cfi_remember_state
  59              		.cfi_def_cfa_offset 0
  60              		@ sp needed
  61 0018 7047     		bx	lr
  62              	.L6:
  63              	.LCFI2:
  64              		.cfi_restore_state
 178:Core/Src/tim.c ****   /* USER CODE BEGIN TIM1_MspInit 1 */
  65              		.loc 1 178 5 is_stmt 1 view .LVU10
  66              	.LBB2:
 178:Core/Src/tim.c ****   /* USER CODE BEGIN TIM1_MspInit 1 */
  67              		.loc 1 178 5 view .LVU11
 178:Core/Src/tim.c ****   /* USER CODE BEGIN TIM1_MspInit 1 */
  68              		.loc 1 178 5 view .LVU12
  69 001a 134B     		ldr	r3, .L9+12
  70 001c 9A69     		ldr	r2, [r3, #24]
  71 001e 42F40062 		orr	r2, r2, #2048
  72 0022 9A61     		str	r2, [r3, #24]
 178:Core/Src/tim.c ****   /* USER CODE BEGIN TIM1_MspInit 1 */
  73              		.loc 1 178 5 view .LVU13
  74 0024 9B69     		ldr	r3, [r3, #24]
  75 0026 03F40063 		and	r3, r3, #2048
  76 002a 0193     		str	r3, [sp, #4]
 178:Core/Src/tim.c ****   /* USER CODE BEGIN TIM1_MspInit 1 */
ARM GAS  /tmp/ccRdeGPu.s 			page 6


  77              		.loc 1 178 5 view .LVU14
  78 002c 019B     		ldr	r3, [sp, #4]
  79              	.LBE2:
 178:Core/Src/tim.c ****   /* USER CODE BEGIN TIM1_MspInit 1 */
  80              		.loc 1 178 5 view .LVU15
  81 002e F2E7     		b	.L1
  82              	.L7:
 189:Core/Src/tim.c ****   /* USER CODE BEGIN TIM3_MspInit 1 */
  83              		.loc 1 189 5 view .LVU16
  84              	.LBB3:
 189:Core/Src/tim.c ****   /* USER CODE BEGIN TIM3_MspInit 1 */
  85              		.loc 1 189 5 view .LVU17
 189:Core/Src/tim.c ****   /* USER CODE BEGIN TIM3_MspInit 1 */
  86              		.loc 1 189 5 view .LVU18
  87 0030 0D4B     		ldr	r3, .L9+12
  88 0032 DA69     		ldr	r2, [r3, #28]
  89 0034 42F00202 		orr	r2, r2, #2
  90 0038 DA61     		str	r2, [r3, #28]
 189:Core/Src/tim.c ****   /* USER CODE BEGIN TIM3_MspInit 1 */
  91              		.loc 1 189 5 view .LVU19
  92 003a DB69     		ldr	r3, [r3, #28]
  93 003c 03F00203 		and	r3, r3, #2
  94 0040 0293     		str	r3, [sp, #8]
 189:Core/Src/tim.c ****   /* USER CODE BEGIN TIM3_MspInit 1 */
  95              		.loc 1 189 5 view .LVU20
  96 0042 029B     		ldr	r3, [sp, #8]
  97              	.LBE3:
 189:Core/Src/tim.c ****   /* USER CODE BEGIN TIM3_MspInit 1 */
  98              		.loc 1 189 5 view .LVU21
  99 0044 E7E7     		b	.L1
 100              	.L8:
 200:Core/Src/tim.c ****   /* USER CODE BEGIN TIM8_MspInit 1 */
 101              		.loc 1 200 5 view .LVU22
 102              	.LBB4:
 200:Core/Src/tim.c ****   /* USER CODE BEGIN TIM8_MspInit 1 */
 103              		.loc 1 200 5 view .LVU23
 200:Core/Src/tim.c ****   /* USER CODE BEGIN TIM8_MspInit 1 */
 104              		.loc 1 200 5 view .LVU24
 105 0046 084B     		ldr	r3, .L9+12
 106 0048 9A69     		ldr	r2, [r3, #24]
 107 004a 42F40052 		orr	r2, r2, #8192
 108 004e 9A61     		str	r2, [r3, #24]
 200:Core/Src/tim.c ****   /* USER CODE BEGIN TIM8_MspInit 1 */
 109              		.loc 1 200 5 view .LVU25
 110 0050 9B69     		ldr	r3, [r3, #24]
 111 0052 03F40053 		and	r3, r3, #8192
 112 0056 0393     		str	r3, [sp, #12]
 200:Core/Src/tim.c ****   /* USER CODE BEGIN TIM8_MspInit 1 */
 113              		.loc 1 200 5 view .LVU26
 114 0058 039B     		ldr	r3, [sp, #12]
 115              	.LBE4:
 200:Core/Src/tim.c ****   /* USER CODE BEGIN TIM8_MspInit 1 */
 116              		.loc 1 200 5 view .LVU27
 117              		.loc 1 205 1 is_stmt 0 view .LVU28
 118 005a DCE7     		b	.L1
 119              	.L10:
 120              		.align	2
ARM GAS  /tmp/ccRdeGPu.s 			page 7


 121              	.L9:
 122 005c 002C0140 		.word	1073818624
 123 0060 00040040 		.word	1073742848
 124 0064 00340140 		.word	1073820672
 125 0068 00100240 		.word	1073876992
 126              		.cfi_endproc
 127              	.LFE68:
 129              		.section	.text.HAL_TIM_MspPostInit,"ax",%progbits
 130              		.align	1
 131              		.global	HAL_TIM_MspPostInit
 132              		.syntax unified
 133              		.thumb
 134              		.thumb_func
 135              		.fpu softvfp
 137              	HAL_TIM_MspPostInit:
 138              	.LVL1:
 139              	.LFB69:
 206:Core/Src/tim.c **** void HAL_TIM_MspPostInit(TIM_HandleTypeDef* timHandle)
 207:Core/Src/tim.c **** {
 140              		.loc 1 207 1 is_stmt 1 view -0
 141              		.cfi_startproc
 142              		@ args = 0, pretend = 0, frame = 32
 143              		@ frame_needed = 0, uses_anonymous_args = 0
 144              		.loc 1 207 1 is_stmt 0 view .LVU30
 145 0000 10B5     		push	{r4, lr}
 146              	.LCFI3:
 147              		.cfi_def_cfa_offset 8
 148              		.cfi_offset 4, -8
 149              		.cfi_offset 14, -4
 150 0002 88B0     		sub	sp, sp, #32
 151              	.LCFI4:
 152              		.cfi_def_cfa_offset 40
 208:Core/Src/tim.c **** 
 209:Core/Src/tim.c ****   GPIO_InitTypeDef GPIO_InitStruct = {0};
 153              		.loc 1 209 3 is_stmt 1 view .LVU31
 154              		.loc 1 209 20 is_stmt 0 view .LVU32
 155 0004 0023     		movs	r3, #0
 156 0006 0493     		str	r3, [sp, #16]
 157 0008 0593     		str	r3, [sp, #20]
 158 000a 0693     		str	r3, [sp, #24]
 159 000c 0793     		str	r3, [sp, #28]
 210:Core/Src/tim.c ****   if(timHandle->Instance==TIM1)
 160              		.loc 1 210 3 is_stmt 1 view .LVU33
 161              		.loc 1 210 15 is_stmt 0 view .LVU34
 162 000e 0368     		ldr	r3, [r0]
 163              		.loc 1 210 5 view .LVU35
 164 0010 2C4A     		ldr	r2, .L19
 165 0012 9342     		cmp	r3, r2
 166 0014 07D0     		beq	.L16
 211:Core/Src/tim.c ****   {
 212:Core/Src/tim.c ****   /* USER CODE BEGIN TIM1_MspPostInit 0 */
 213:Core/Src/tim.c **** 
 214:Core/Src/tim.c ****   /* USER CODE END TIM1_MspPostInit 0 */
 215:Core/Src/tim.c ****     __HAL_RCC_GPIOA_CLK_ENABLE();
 216:Core/Src/tim.c ****     /**TIM1 GPIO Configuration
 217:Core/Src/tim.c ****     PA8     ------> TIM1_CH1
 218:Core/Src/tim.c ****     */
ARM GAS  /tmp/ccRdeGPu.s 			page 8


 219:Core/Src/tim.c ****     GPIO_InitStruct.Pin = GPIO_PIN_8;
 220:Core/Src/tim.c ****     GPIO_InitStruct.Mode = GPIO_MODE_AF_PP;
 221:Core/Src/tim.c ****     GPIO_InitStruct.Speed = GPIO_SPEED_FREQ_LOW;
 222:Core/Src/tim.c ****     HAL_GPIO_Init(GPIOA, &GPIO_InitStruct);
 223:Core/Src/tim.c **** 
 224:Core/Src/tim.c ****   /* USER CODE BEGIN TIM1_MspPostInit 1 */
 225:Core/Src/tim.c **** 
 226:Core/Src/tim.c ****   /* USER CODE END TIM1_MspPostInit 1 */
 227:Core/Src/tim.c ****   }
 228:Core/Src/tim.c ****   else if(timHandle->Instance==TIM3)
 167              		.loc 1 228 8 is_stmt 1 view .LVU36
 168              		.loc 1 228 10 is_stmt 0 view .LVU37
 169 0016 2C4A     		ldr	r2, .L19+4
 170 0018 9342     		cmp	r3, r2
 171 001a 19D0     		beq	.L17
 229:Core/Src/tim.c ****   {
 230:Core/Src/tim.c ****   /* USER CODE BEGIN TIM3_MspPostInit 0 */
 231:Core/Src/tim.c **** 
 232:Core/Src/tim.c ****   /* USER CODE END TIM3_MspPostInit 0 */
 233:Core/Src/tim.c **** 
 234:Core/Src/tim.c ****     __HAL_RCC_GPIOA_CLK_ENABLE();
 235:Core/Src/tim.c ****     __HAL_RCC_GPIOB_CLK_ENABLE();
 236:Core/Src/tim.c ****     /**TIM3 GPIO Configuration
 237:Core/Src/tim.c ****     PA7     ------> TIM3_CH2
 238:Core/Src/tim.c ****     PB0     ------> TIM3_CH3
 239:Core/Src/tim.c ****     */
 240:Core/Src/tim.c ****     GPIO_InitStruct.Pin = GPIO_PIN_7;
 241:Core/Src/tim.c ****     GPIO_InitStruct.Mode = GPIO_MODE_AF_PP;
 242:Core/Src/tim.c ****     GPIO_InitStruct.Speed = GPIO_SPEED_FREQ_LOW;
 243:Core/Src/tim.c ****     HAL_GPIO_Init(GPIOA, &GPIO_InitStruct);
 244:Core/Src/tim.c **** 
 245:Core/Src/tim.c ****     GPIO_InitStruct.Pin = GPIO_PIN_0;
 246:Core/Src/tim.c ****     GPIO_InitStruct.Mode = GPIO_MODE_AF_PP;
 247:Core/Src/tim.c ****     GPIO_InitStruct.Speed = GPIO_SPEED_FREQ_LOW;
 248:Core/Src/tim.c ****     HAL_GPIO_Init(GPIOB, &GPIO_InitStruct);
 249:Core/Src/tim.c **** 
 250:Core/Src/tim.c ****   /* USER CODE BEGIN TIM3_MspPostInit 1 */
 251:Core/Src/tim.c **** 
 252:Core/Src/tim.c ****   /* USER CODE END TIM3_MspPostInit 1 */
 253:Core/Src/tim.c ****   }
 254:Core/Src/tim.c ****   else if(timHandle->Instance==TIM8)
 172              		.loc 1 254 8 is_stmt 1 view .LVU38
 173              		.loc 1 254 10 is_stmt 0 view .LVU39
 174 001c 2B4A     		ldr	r2, .L19+8
 175 001e 9342     		cmp	r3, r2
 176 0020 3BD0     		beq	.L18
 177              	.LVL2:
 178              	.L11:
 255:Core/Src/tim.c ****   {
 256:Core/Src/tim.c ****   /* USER CODE BEGIN TIM8_MspPostInit 0 */
 257:Core/Src/tim.c **** 
 258:Core/Src/tim.c ****   /* USER CODE END TIM8_MspPostInit 0 */
 259:Core/Src/tim.c **** 
 260:Core/Src/tim.c ****     __HAL_RCC_GPIOC_CLK_ENABLE();
 261:Core/Src/tim.c ****     /**TIM8 GPIO Configuration
 262:Core/Src/tim.c ****     PC7     ------> TIM8_CH2
 263:Core/Src/tim.c ****     */
ARM GAS  /tmp/ccRdeGPu.s 			page 9


 264:Core/Src/tim.c ****     GPIO_InitStruct.Pin = GPIO_PIN_7;
 265:Core/Src/tim.c ****     GPIO_InitStruct.Mode = GPIO_MODE_AF_PP;
 266:Core/Src/tim.c ****     GPIO_InitStruct.Speed = GPIO_SPEED_FREQ_LOW;
 267:Core/Src/tim.c ****     HAL_GPIO_Init(GPIOC, &GPIO_InitStruct);
 268:Core/Src/tim.c **** 
 269:Core/Src/tim.c ****   /* USER CODE BEGIN TIM8_MspPostInit 1 */
 270:Core/Src/tim.c **** 
 271:Core/Src/tim.c ****   /* USER CODE END TIM8_MspPostInit 1 */
 272:Core/Src/tim.c ****   }
 273:Core/Src/tim.c **** 
 274:Core/Src/tim.c **** }
 179              		.loc 1 274 1 view .LVU40
 180 0022 08B0     		add	sp, sp, #32
 181              	.LCFI5:
 182              		.cfi_remember_state
 183              		.cfi_def_cfa_offset 8
 184              		@ sp needed
 185 0024 10BD     		pop	{r4, pc}
 186              	.LVL3:
 187              	.L16:
 188              	.LCFI6:
 189              		.cfi_restore_state
 215:Core/Src/tim.c ****     /**TIM1 GPIO Configuration
 190              		.loc 1 215 5 is_stmt 1 view .LVU41
 191              	.LBB5:
 215:Core/Src/tim.c ****     /**TIM1 GPIO Configuration
 192              		.loc 1 215 5 view .LVU42
 215:Core/Src/tim.c ****     /**TIM1 GPIO Configuration
 193              		.loc 1 215 5 view .LVU43
 194 0026 2A4B     		ldr	r3, .L19+12
 195 0028 9A69     		ldr	r2, [r3, #24]
 196 002a 42F00402 		orr	r2, r2, #4
 197 002e 9A61     		str	r2, [r3, #24]
 215:Core/Src/tim.c ****     /**TIM1 GPIO Configuration
 198              		.loc 1 215 5 view .LVU44
 199 0030 9B69     		ldr	r3, [r3, #24]
 200 0032 03F00403 		and	r3, r3, #4
 201 0036 0093     		str	r3, [sp]
 215:Core/Src/tim.c ****     /**TIM1 GPIO Configuration
 202              		.loc 1 215 5 view .LVU45
 203 0038 009B     		ldr	r3, [sp]
 204              	.LBE5:
 215:Core/Src/tim.c ****     /**TIM1 GPIO Configuration
 205              		.loc 1 215 5 view .LVU46
 219:Core/Src/tim.c ****     GPIO_InitStruct.Mode = GPIO_MODE_AF_PP;
 206              		.loc 1 219 5 view .LVU47
 219:Core/Src/tim.c ****     GPIO_InitStruct.Mode = GPIO_MODE_AF_PP;
 207              		.loc 1 219 25 is_stmt 0 view .LVU48
 208 003a 4FF48073 		mov	r3, #256
 209 003e 0493     		str	r3, [sp, #16]
 220:Core/Src/tim.c ****     GPIO_InitStruct.Speed = GPIO_SPEED_FREQ_LOW;
 210              		.loc 1 220 5 is_stmt 1 view .LVU49
 220:Core/Src/tim.c ****     GPIO_InitStruct.Speed = GPIO_SPEED_FREQ_LOW;
 211              		.loc 1 220 26 is_stmt 0 view .LVU50
 212 0040 0223     		movs	r3, #2
 213 0042 0593     		str	r3, [sp, #20]
 221:Core/Src/tim.c ****     HAL_GPIO_Init(GPIOA, &GPIO_InitStruct);
ARM GAS  /tmp/ccRdeGPu.s 			page 10


 214              		.loc 1 221 5 is_stmt 1 view .LVU51
 221:Core/Src/tim.c ****     HAL_GPIO_Init(GPIOA, &GPIO_InitStruct);
 215              		.loc 1 221 27 is_stmt 0 view .LVU52
 216 0044 0793     		str	r3, [sp, #28]
 222:Core/Src/tim.c **** 
 217              		.loc 1 222 5 is_stmt 1 view .LVU53
 218 0046 04A9     		add	r1, sp, #16
 219 0048 2248     		ldr	r0, .L19+16
 220              	.LVL4:
 222:Core/Src/tim.c **** 
 221              		.loc 1 222 5 is_stmt 0 view .LVU54
 222 004a FFF7FEFF 		bl	HAL_GPIO_Init
 223              	.LVL5:
 224 004e E8E7     		b	.L11
 225              	.LVL6:
 226              	.L17:
 234:Core/Src/tim.c ****     __HAL_RCC_GPIOB_CLK_ENABLE();
 227              		.loc 1 234 5 is_stmt 1 view .LVU55
 228              	.LBB6:
 234:Core/Src/tim.c ****     __HAL_RCC_GPIOB_CLK_ENABLE();
 229              		.loc 1 234 5 view .LVU56
 234:Core/Src/tim.c ****     __HAL_RCC_GPIOB_CLK_ENABLE();
 230              		.loc 1 234 5 view .LVU57
 231 0050 1F4B     		ldr	r3, .L19+12
 232 0052 9A69     		ldr	r2, [r3, #24]
 233 0054 42F00402 		orr	r2, r2, #4
 234 0058 9A61     		str	r2, [r3, #24]
 234:Core/Src/tim.c ****     __HAL_RCC_GPIOB_CLK_ENABLE();
 235              		.loc 1 234 5 view .LVU58
 236 005a 9A69     		ldr	r2, [r3, #24]
 237 005c 02F00402 		and	r2, r2, #4
 238 0060 0192     		str	r2, [sp, #4]
 234:Core/Src/tim.c ****     __HAL_RCC_GPIOB_CLK_ENABLE();
 239              		.loc 1 234 5 view .LVU59
 240 0062 019A     		ldr	r2, [sp, #4]
 241              	.LBE6:
 234:Core/Src/tim.c ****     __HAL_RCC_GPIOB_CLK_ENABLE();
 242              		.loc 1 234 5 view .LVU60
 235:Core/Src/tim.c ****     /**TIM3 GPIO Configuration
 243              		.loc 1 235 5 view .LVU61
 244              	.LBB7:
 235:Core/Src/tim.c ****     /**TIM3 GPIO Configuration
 245              		.loc 1 235 5 view .LVU62
 235:Core/Src/tim.c ****     /**TIM3 GPIO Configuration
 246              		.loc 1 235 5 view .LVU63
 247 0064 9A69     		ldr	r2, [r3, #24]
 248 0066 42F00802 		orr	r2, r2, #8
 249 006a 9A61     		str	r2, [r3, #24]
 235:Core/Src/tim.c ****     /**TIM3 GPIO Configuration
 250              		.loc 1 235 5 view .LVU64
 251 006c 9B69     		ldr	r3, [r3, #24]
 252 006e 03F00803 		and	r3, r3, #8
 253 0072 0293     		str	r3, [sp, #8]
 235:Core/Src/tim.c ****     /**TIM3 GPIO Configuration
 254              		.loc 1 235 5 view .LVU65
 255 0074 029B     		ldr	r3, [sp, #8]
 256              	.LBE7:
ARM GAS  /tmp/ccRdeGPu.s 			page 11


 235:Core/Src/tim.c ****     /**TIM3 GPIO Configuration
 257              		.loc 1 235 5 view .LVU66
 240:Core/Src/tim.c ****     GPIO_InitStruct.Mode = GPIO_MODE_AF_PP;
 258              		.loc 1 240 5 view .LVU67
 240:Core/Src/tim.c ****     GPIO_InitStruct.Mode = GPIO_MODE_AF_PP;
 259              		.loc 1 240 25 is_stmt 0 view .LVU68
 260 0076 8023     		movs	r3, #128
 261 0078 0493     		str	r3, [sp, #16]
 241:Core/Src/tim.c ****     GPIO_InitStruct.Speed = GPIO_SPEED_FREQ_LOW;
 262              		.loc 1 241 5 is_stmt 1 view .LVU69
 241:Core/Src/tim.c ****     GPIO_InitStruct.Speed = GPIO_SPEED_FREQ_LOW;
 263              		.loc 1 241 26 is_stmt 0 view .LVU70
 264 007a 0224     		movs	r4, #2
 265 007c 0594     		str	r4, [sp, #20]
 242:Core/Src/tim.c ****     HAL_GPIO_Init(GPIOA, &GPIO_InitStruct);
 266              		.loc 1 242 5 is_stmt 1 view .LVU71
 242:Core/Src/tim.c ****     HAL_GPIO_Init(GPIOA, &GPIO_InitStruct);
 267              		.loc 1 242 27 is_stmt 0 view .LVU72
 268 007e 0794     		str	r4, [sp, #28]
 243:Core/Src/tim.c **** 
 269              		.loc 1 243 5 is_stmt 1 view .LVU73
 270 0080 04A9     		add	r1, sp, #16
 271 0082 1448     		ldr	r0, .L19+16
 272              	.LVL7:
 243:Core/Src/tim.c **** 
 273              		.loc 1 243 5 is_stmt 0 view .LVU74
 274 0084 FFF7FEFF 		bl	HAL_GPIO_Init
 275              	.LVL8:
 245:Core/Src/tim.c ****     GPIO_InitStruct.Mode = GPIO_MODE_AF_PP;
 276              		.loc 1 245 5 is_stmt 1 view .LVU75
 245:Core/Src/tim.c ****     GPIO_InitStruct.Mode = GPIO_MODE_AF_PP;
 277              		.loc 1 245 25 is_stmt 0 view .LVU76
 278 0088 0123     		movs	r3, #1
 279 008a 0493     		str	r3, [sp, #16]
 246:Core/Src/tim.c ****     GPIO_InitStruct.Speed = GPIO_SPEED_FREQ_LOW;
 280              		.loc 1 246 5 is_stmt 1 view .LVU77
 246:Core/Src/tim.c ****     GPIO_InitStruct.Speed = GPIO_SPEED_FREQ_LOW;
 281              		.loc 1 246 26 is_stmt 0 view .LVU78
 282 008c 0594     		str	r4, [sp, #20]
 247:Core/Src/tim.c ****     HAL_GPIO_Init(GPIOB, &GPIO_InitStruct);
 283              		.loc 1 247 5 is_stmt 1 view .LVU79
 247:Core/Src/tim.c ****     HAL_GPIO_Init(GPIOB, &GPIO_InitStruct);
 284              		.loc 1 247 27 is_stmt 0 view .LVU80
 285 008e 0794     		str	r4, [sp, #28]
 248:Core/Src/tim.c **** 
 286              		.loc 1 248 5 is_stmt 1 view .LVU81
 287 0090 04A9     		add	r1, sp, #16
 288 0092 1148     		ldr	r0, .L19+20
 289 0094 FFF7FEFF 		bl	HAL_GPIO_Init
 290              	.LVL9:
 291 0098 C3E7     		b	.L11
 292              	.LVL10:
 293              	.L18:
 260:Core/Src/tim.c ****     /**TIM8 GPIO Configuration
 294              		.loc 1 260 5 view .LVU82
 295              	.LBB8:
 260:Core/Src/tim.c ****     /**TIM8 GPIO Configuration
ARM GAS  /tmp/ccRdeGPu.s 			page 12


 296              		.loc 1 260 5 view .LVU83
 260:Core/Src/tim.c ****     /**TIM8 GPIO Configuration
 297              		.loc 1 260 5 view .LVU84
 298 009a 0D4B     		ldr	r3, .L19+12
 299 009c 9A69     		ldr	r2, [r3, #24]
 300 009e 42F01002 		orr	r2, r2, #16
 301 00a2 9A61     		str	r2, [r3, #24]
 260:Core/Src/tim.c ****     /**TIM8 GPIO Configuration
 302              		.loc 1 260 5 view .LVU85
 303 00a4 9B69     		ldr	r3, [r3, #24]
 304 00a6 03F01003 		and	r3, r3, #16
 305 00aa 0393     		str	r3, [sp, #12]
 260:Core/Src/tim.c ****     /**TIM8 GPIO Configuration
 306              		.loc 1 260 5 view .LVU86
 307 00ac 039B     		ldr	r3, [sp, #12]
 308              	.LBE8:
 260:Core/Src/tim.c ****     /**TIM8 GPIO Configuration
 309              		.loc 1 260 5 view .LVU87
 264:Core/Src/tim.c ****     GPIO_InitStruct.Mode = GPIO_MODE_AF_PP;
 310              		.loc 1 264 5 view .LVU88
 264:Core/Src/tim.c ****     GPIO_InitStruct.Mode = GPIO_MODE_AF_PP;
 311              		.loc 1 264 25 is_stmt 0 view .LVU89
 312 00ae 8023     		movs	r3, #128
 313 00b0 0493     		str	r3, [sp, #16]
 265:Core/Src/tim.c ****     GPIO_InitStruct.Speed = GPIO_SPEED_FREQ_LOW;
 314              		.loc 1 265 5 is_stmt 1 view .LVU90
 265:Core/Src/tim.c ****     GPIO_InitStruct.Speed = GPIO_SPEED_FREQ_LOW;
 315              		.loc 1 265 26 is_stmt 0 view .LVU91
 316 00b2 0223     		movs	r3, #2
 317 00b4 0593     		str	r3, [sp, #20]
 266:Core/Src/tim.c ****     HAL_GPIO_Init(GPIOC, &GPIO_InitStruct);
 318              		.loc 1 266 5 is_stmt 1 view .LVU92
 266:Core/Src/tim.c ****     HAL_GPIO_Init(GPIOC, &GPIO_InitStruct);
 319              		.loc 1 266 27 is_stmt 0 view .LVU93
 320 00b6 0793     		str	r3, [sp, #28]
 267:Core/Src/tim.c **** 
 321              		.loc 1 267 5 is_stmt 1 view .LVU94
 322 00b8 04A9     		add	r1, sp, #16
 323 00ba 0848     		ldr	r0, .L19+24
 324              	.LVL11:
 267:Core/Src/tim.c **** 
 325              		.loc 1 267 5 is_stmt 0 view .LVU95
 326 00bc FFF7FEFF 		bl	HAL_GPIO_Init
 327              	.LVL12:
 328              		.loc 1 274 1 view .LVU96
 329 00c0 AFE7     		b	.L11
 330              	.L20:
 331 00c2 00BF     		.align	2
 332              	.L19:
 333 00c4 002C0140 		.word	1073818624
 334 00c8 00040040 		.word	1073742848
 335 00cc 00340140 		.word	1073820672
 336 00d0 00100240 		.word	1073876992
 337 00d4 00080140 		.word	1073809408
 338 00d8 000C0140 		.word	1073810432
 339 00dc 00100140 		.word	1073811456
 340              		.cfi_endproc
ARM GAS  /tmp/ccRdeGPu.s 			page 13


 341              	.LFE69:
 343              		.section	.text.MX_TIM1_Init,"ax",%progbits
 344              		.align	1
 345              		.global	MX_TIM1_Init
 346              		.syntax unified
 347              		.thumb
 348              		.thumb_func
 349              		.fpu softvfp
 351              	MX_TIM1_Init:
 352              	.LFB65:
  34:Core/Src/tim.c ****   TIM_MasterConfigTypeDef sMasterConfig = {0};
 353              		.loc 1 34 1 is_stmt 1 view -0
 354              		.cfi_startproc
 355              		@ args = 0, pretend = 0, frame = 72
 356              		@ frame_needed = 0, uses_anonymous_args = 0
 357 0000 10B5     		push	{r4, lr}
 358              	.LCFI7:
 359              		.cfi_def_cfa_offset 8
 360              		.cfi_offset 4, -8
 361              		.cfi_offset 14, -4
 362 0002 92B0     		sub	sp, sp, #72
 363              	.LCFI8:
 364              		.cfi_def_cfa_offset 80
  35:Core/Src/tim.c ****   TIM_OC_InitTypeDef sConfigOC = {0};
 365              		.loc 1 35 3 view .LVU98
  35:Core/Src/tim.c ****   TIM_OC_InitTypeDef sConfigOC = {0};
 366              		.loc 1 35 27 is_stmt 0 view .LVU99
 367 0004 0024     		movs	r4, #0
 368 0006 1094     		str	r4, [sp, #64]
 369 0008 1194     		str	r4, [sp, #68]
  36:Core/Src/tim.c ****   TIM_BreakDeadTimeConfigTypeDef sBreakDeadTimeConfig = {0};
 370              		.loc 1 36 3 is_stmt 1 view .LVU100
  36:Core/Src/tim.c ****   TIM_BreakDeadTimeConfigTypeDef sBreakDeadTimeConfig = {0};
 371              		.loc 1 36 22 is_stmt 0 view .LVU101
 372 000a 0994     		str	r4, [sp, #36]
 373 000c 0A94     		str	r4, [sp, #40]
 374 000e 0B94     		str	r4, [sp, #44]
 375 0010 0C94     		str	r4, [sp, #48]
 376 0012 0D94     		str	r4, [sp, #52]
 377 0014 0E94     		str	r4, [sp, #56]
 378 0016 0F94     		str	r4, [sp, #60]
  37:Core/Src/tim.c **** 
 379              		.loc 1 37 3 is_stmt 1 view .LVU102
  37:Core/Src/tim.c **** 
 380              		.loc 1 37 34 is_stmt 0 view .LVU103
 381 0018 2022     		movs	r2, #32
 382 001a 2146     		mov	r1, r4
 383 001c 01A8     		add	r0, sp, #4
 384 001e FFF7FEFF 		bl	memset
 385              	.LVL13:
  39:Core/Src/tim.c ****   htim1.Init.Prescaler = 71;
 386              		.loc 1 39 3 is_stmt 1 view .LVU104
  39:Core/Src/tim.c ****   htim1.Init.Prescaler = 71;
 387              		.loc 1 39 18 is_stmt 0 view .LVU105
 388 0022 2248     		ldr	r0, .L31
 389 0024 224B     		ldr	r3, .L31+4
 390 0026 0360     		str	r3, [r0]
ARM GAS  /tmp/ccRdeGPu.s 			page 14


  40:Core/Src/tim.c ****   htim1.Init.CounterMode = TIM_COUNTERMODE_UP;
 391              		.loc 1 40 3 is_stmt 1 view .LVU106
  40:Core/Src/tim.c ****   htim1.Init.CounterMode = TIM_COUNTERMODE_UP;
 392              		.loc 1 40 24 is_stmt 0 view .LVU107
 393 0028 4723     		movs	r3, #71
 394 002a 4360     		str	r3, [r0, #4]
  41:Core/Src/tim.c ****   htim1.Init.Period = 9;
 395              		.loc 1 41 3 is_stmt 1 view .LVU108
  41:Core/Src/tim.c ****   htim1.Init.Period = 9;
 396              		.loc 1 41 26 is_stmt 0 view .LVU109
 397 002c 8460     		str	r4, [r0, #8]
  42:Core/Src/tim.c ****   htim1.Init.ClockDivision = TIM_CLOCKDIVISION_DIV1;
 398              		.loc 1 42 3 is_stmt 1 view .LVU110
  42:Core/Src/tim.c ****   htim1.Init.ClockDivision = TIM_CLOCKDIVISION_DIV1;
 399              		.loc 1 42 21 is_stmt 0 view .LVU111
 400 002e 0923     		movs	r3, #9
 401 0030 C360     		str	r3, [r0, #12]
  43:Core/Src/tim.c ****   htim1.Init.RepetitionCounter = 0;
 402              		.loc 1 43 3 is_stmt 1 view .LVU112
  43:Core/Src/tim.c ****   htim1.Init.RepetitionCounter = 0;
 403              		.loc 1 43 28 is_stmt 0 view .LVU113
 404 0032 0461     		str	r4, [r0, #16]
  44:Core/Src/tim.c ****   htim1.Init.AutoReloadPreload = TIM_AUTORELOAD_PRELOAD_DISABLE;
 405              		.loc 1 44 3 is_stmt 1 view .LVU114
  44:Core/Src/tim.c ****   htim1.Init.AutoReloadPreload = TIM_AUTORELOAD_PRELOAD_DISABLE;
 406              		.loc 1 44 32 is_stmt 0 view .LVU115
 407 0034 4461     		str	r4, [r0, #20]
  45:Core/Src/tim.c ****   if (HAL_TIM_PWM_Init(&htim1) != HAL_OK)
 408              		.loc 1 45 3 is_stmt 1 view .LVU116
  45:Core/Src/tim.c ****   if (HAL_TIM_PWM_Init(&htim1) != HAL_OK)
 409              		.loc 1 45 32 is_stmt 0 view .LVU117
 410 0036 8461     		str	r4, [r0, #24]
  46:Core/Src/tim.c ****   {
 411              		.loc 1 46 3 is_stmt 1 view .LVU118
  46:Core/Src/tim.c ****   {
 412              		.loc 1 46 7 is_stmt 0 view .LVU119
 413 0038 FFF7FEFF 		bl	HAL_TIM_PWM_Init
 414              	.LVL14:
  46:Core/Src/tim.c ****   {
 415              		.loc 1 46 6 view .LVU120
 416 003c 0028     		cmp	r0, #0
 417 003e 29D1     		bne	.L27
 418              	.L22:
  50:Core/Src/tim.c ****   sMasterConfig.MasterSlaveMode = TIM_MASTERSLAVEMODE_DISABLE;
 419              		.loc 1 50 3 is_stmt 1 view .LVU121
  50:Core/Src/tim.c ****   sMasterConfig.MasterSlaveMode = TIM_MASTERSLAVEMODE_DISABLE;
 420              		.loc 1 50 37 is_stmt 0 view .LVU122
 421 0040 0023     		movs	r3, #0
 422 0042 1093     		str	r3, [sp, #64]
  51:Core/Src/tim.c ****   if (HAL_TIMEx_MasterConfigSynchronization(&htim1, &sMasterConfig) != HAL_OK)
 423              		.loc 1 51 3 is_stmt 1 view .LVU123
  51:Core/Src/tim.c ****   if (HAL_TIMEx_MasterConfigSynchronization(&htim1, &sMasterConfig) != HAL_OK)
 424              		.loc 1 51 33 is_stmt 0 view .LVU124
 425 0044 1193     		str	r3, [sp, #68]
  52:Core/Src/tim.c ****   {
 426              		.loc 1 52 3 is_stmt 1 view .LVU125
  52:Core/Src/tim.c ****   {
ARM GAS  /tmp/ccRdeGPu.s 			page 15


 427              		.loc 1 52 7 is_stmt 0 view .LVU126
 428 0046 10A9     		add	r1, sp, #64
 429 0048 1848     		ldr	r0, .L31
 430 004a FFF7FEFF 		bl	HAL_TIMEx_MasterConfigSynchronization
 431              	.LVL15:
  52:Core/Src/tim.c ****   {
 432              		.loc 1 52 6 view .LVU127
 433 004e 20BB     		cbnz	r0, .L28
 434              	.L23:
  56:Core/Src/tim.c ****   sConfigOC.Pulse = 0;
 435              		.loc 1 56 3 is_stmt 1 view .LVU128
  56:Core/Src/tim.c ****   sConfigOC.Pulse = 0;
 436              		.loc 1 56 20 is_stmt 0 view .LVU129
 437 0050 6023     		movs	r3, #96
 438 0052 0993     		str	r3, [sp, #36]
  57:Core/Src/tim.c ****   sConfigOC.OCPolarity = TIM_OCPOLARITY_HIGH;
 439              		.loc 1 57 3 is_stmt 1 view .LVU130
  57:Core/Src/tim.c ****   sConfigOC.OCPolarity = TIM_OCPOLARITY_HIGH;
 440              		.loc 1 57 19 is_stmt 0 view .LVU131
 441 0054 0022     		movs	r2, #0
 442 0056 0A92     		str	r2, [sp, #40]
  58:Core/Src/tim.c ****   sConfigOC.OCNPolarity = TIM_OCNPOLARITY_HIGH;
 443              		.loc 1 58 3 is_stmt 1 view .LVU132
  58:Core/Src/tim.c ****   sConfigOC.OCNPolarity = TIM_OCNPOLARITY_HIGH;
 444              		.loc 1 58 24 is_stmt 0 view .LVU133
 445 0058 0B92     		str	r2, [sp, #44]
  59:Core/Src/tim.c ****   sConfigOC.OCFastMode = TIM_OCFAST_DISABLE;
 446              		.loc 1 59 3 is_stmt 1 view .LVU134
  59:Core/Src/tim.c ****   sConfigOC.OCFastMode = TIM_OCFAST_DISABLE;
 447              		.loc 1 59 25 is_stmt 0 view .LVU135
 448 005a 0C92     		str	r2, [sp, #48]
  60:Core/Src/tim.c ****   sConfigOC.OCIdleState = TIM_OCIDLESTATE_RESET;
 449              		.loc 1 60 3 is_stmt 1 view .LVU136
  60:Core/Src/tim.c ****   sConfigOC.OCIdleState = TIM_OCIDLESTATE_RESET;
 450              		.loc 1 60 24 is_stmt 0 view .LVU137
 451 005c 0D92     		str	r2, [sp, #52]
  61:Core/Src/tim.c ****   sConfigOC.OCNIdleState = TIM_OCNIDLESTATE_RESET;
 452              		.loc 1 61 3 is_stmt 1 view .LVU138
  61:Core/Src/tim.c ****   sConfigOC.OCNIdleState = TIM_OCNIDLESTATE_RESET;
 453              		.loc 1 61 25 is_stmt 0 view .LVU139
 454 005e 0E92     		str	r2, [sp, #56]
  62:Core/Src/tim.c ****   if (HAL_TIM_PWM_ConfigChannel(&htim1, &sConfigOC, TIM_CHANNEL_1) != HAL_OK)
 455              		.loc 1 62 3 is_stmt 1 view .LVU140
  62:Core/Src/tim.c ****   if (HAL_TIM_PWM_ConfigChannel(&htim1, &sConfigOC, TIM_CHANNEL_1) != HAL_OK)
 456              		.loc 1 62 26 is_stmt 0 view .LVU141
 457 0060 0F92     		str	r2, [sp, #60]
  63:Core/Src/tim.c ****   {
 458              		.loc 1 63 3 is_stmt 1 view .LVU142
  63:Core/Src/tim.c ****   {
 459              		.loc 1 63 7 is_stmt 0 view .LVU143
 460 0062 09A9     		add	r1, sp, #36
 461 0064 1148     		ldr	r0, .L31
 462 0066 FFF7FEFF 		bl	HAL_TIM_PWM_ConfigChannel
 463              	.LVL16:
  63:Core/Src/tim.c ****   {
 464              		.loc 1 63 6 view .LVU144
 465 006a C8B9     		cbnz	r0, .L29
ARM GAS  /tmp/ccRdeGPu.s 			page 16


 466              	.L24:
  67:Core/Src/tim.c ****   sBreakDeadTimeConfig.OffStateIDLEMode = TIM_OSSI_DISABLE;
 467              		.loc 1 67 3 is_stmt 1 view .LVU145
  67:Core/Src/tim.c ****   sBreakDeadTimeConfig.OffStateIDLEMode = TIM_OSSI_DISABLE;
 468              		.loc 1 67 40 is_stmt 0 view .LVU146
 469 006c 0023     		movs	r3, #0
 470 006e 0193     		str	r3, [sp, #4]
  68:Core/Src/tim.c ****   sBreakDeadTimeConfig.LockLevel = TIM_LOCKLEVEL_OFF;
 471              		.loc 1 68 3 is_stmt 1 view .LVU147
  68:Core/Src/tim.c ****   sBreakDeadTimeConfig.LockLevel = TIM_LOCKLEVEL_OFF;
 472              		.loc 1 68 41 is_stmt 0 view .LVU148
 473 0070 0293     		str	r3, [sp, #8]
  69:Core/Src/tim.c ****   sBreakDeadTimeConfig.DeadTime = 0;
 474              		.loc 1 69 3 is_stmt 1 view .LVU149
  69:Core/Src/tim.c ****   sBreakDeadTimeConfig.DeadTime = 0;
 475              		.loc 1 69 34 is_stmt 0 view .LVU150
 476 0072 0393     		str	r3, [sp, #12]
  70:Core/Src/tim.c ****   sBreakDeadTimeConfig.BreakState = TIM_BREAK_DISABLE;
 477              		.loc 1 70 3 is_stmt 1 view .LVU151
  70:Core/Src/tim.c ****   sBreakDeadTimeConfig.BreakState = TIM_BREAK_DISABLE;
 478              		.loc 1 70 33 is_stmt 0 view .LVU152
 479 0074 0493     		str	r3, [sp, #16]
  71:Core/Src/tim.c ****   sBreakDeadTimeConfig.BreakPolarity = TIM_BREAKPOLARITY_HIGH;
 480              		.loc 1 71 3 is_stmt 1 view .LVU153
  71:Core/Src/tim.c ****   sBreakDeadTimeConfig.BreakPolarity = TIM_BREAKPOLARITY_HIGH;
 481              		.loc 1 71 35 is_stmt 0 view .LVU154
 482 0076 0593     		str	r3, [sp, #20]
  72:Core/Src/tim.c ****   sBreakDeadTimeConfig.AutomaticOutput = TIM_AUTOMATICOUTPUT_DISABLE;
 483              		.loc 1 72 3 is_stmt 1 view .LVU155
  72:Core/Src/tim.c ****   sBreakDeadTimeConfig.AutomaticOutput = TIM_AUTOMATICOUTPUT_DISABLE;
 484              		.loc 1 72 38 is_stmt 0 view .LVU156
 485 0078 4FF40052 		mov	r2, #8192
 486 007c 0692     		str	r2, [sp, #24]
  73:Core/Src/tim.c ****   if (HAL_TIMEx_ConfigBreakDeadTime(&htim1, &sBreakDeadTimeConfig) != HAL_OK)
 487              		.loc 1 73 3 is_stmt 1 view .LVU157
  73:Core/Src/tim.c ****   if (HAL_TIMEx_ConfigBreakDeadTime(&htim1, &sBreakDeadTimeConfig) != HAL_OK)
 488              		.loc 1 73 40 is_stmt 0 view .LVU158
 489 007e 0893     		str	r3, [sp, #32]
  74:Core/Src/tim.c ****   {
 490              		.loc 1 74 3 is_stmt 1 view .LVU159
  74:Core/Src/tim.c ****   {
 491              		.loc 1 74 7 is_stmt 0 view .LVU160
 492 0080 01A9     		add	r1, sp, #4
 493 0082 0A48     		ldr	r0, .L31
 494 0084 FFF7FEFF 		bl	HAL_TIMEx_ConfigBreakDeadTime
 495              	.LVL17:
  74:Core/Src/tim.c ****   {
 496              		.loc 1 74 6 view .LVU161
 497 0088 68B9     		cbnz	r0, .L30
 498              	.L25:
  78:Core/Src/tim.c **** 
 499              		.loc 1 78 3 is_stmt 1 view .LVU162
 500 008a 0848     		ldr	r0, .L31
 501 008c FFF7FEFF 		bl	HAL_TIM_MspPostInit
 502              	.LVL18:
  80:Core/Src/tim.c **** 
 503              		.loc 1 80 1 is_stmt 0 view .LVU163
ARM GAS  /tmp/ccRdeGPu.s 			page 17


 504 0090 12B0     		add	sp, sp, #72
 505              	.LCFI9:
 506              		.cfi_remember_state
 507              		.cfi_def_cfa_offset 8
 508              		@ sp needed
 509 0092 10BD     		pop	{r4, pc}
 510              	.L27:
 511              	.LCFI10:
 512              		.cfi_restore_state
  48:Core/Src/tim.c ****   }
 513              		.loc 1 48 5 is_stmt 1 view .LVU164
 514 0094 FFF7FEFF 		bl	Error_Handler
 515              	.LVL19:
 516 0098 D2E7     		b	.L22
 517              	.L28:
  54:Core/Src/tim.c ****   }
 518              		.loc 1 54 5 view .LVU165
 519 009a FFF7FEFF 		bl	Error_Handler
 520              	.LVL20:
 521 009e D7E7     		b	.L23
 522              	.L29:
  65:Core/Src/tim.c ****   }
 523              		.loc 1 65 5 view .LVU166
 524 00a0 FFF7FEFF 		bl	Error_Handler
 525              	.LVL21:
 526 00a4 E2E7     		b	.L24
 527              	.L30:
  76:Core/Src/tim.c ****   }
 528              		.loc 1 76 5 view .LVU167
 529 00a6 FFF7FEFF 		bl	Error_Handler
 530              	.LVL22:
 531 00aa EEE7     		b	.L25
 532              	.L32:
 533              		.align	2
 534              	.L31:
 535 00ac 00000000 		.word	htim1
 536 00b0 002C0140 		.word	1073818624
 537              		.cfi_endproc
 538              	.LFE65:
 540              		.section	.text.MX_TIM3_Init,"ax",%progbits
 541              		.align	1
 542              		.global	MX_TIM3_Init
 543              		.syntax unified
 544              		.thumb
 545              		.thumb_func
 546              		.fpu softvfp
 548              	MX_TIM3_Init:
 549              	.LFB66:
  84:Core/Src/tim.c ****   TIM_MasterConfigTypeDef sMasterConfig = {0};
 550              		.loc 1 84 1 view -0
 551              		.cfi_startproc
 552              		@ args = 0, pretend = 0, frame = 40
 553              		@ frame_needed = 0, uses_anonymous_args = 0
 554 0000 00B5     		push	{lr}
 555              	.LCFI11:
 556              		.cfi_def_cfa_offset 4
 557              		.cfi_offset 14, -4
ARM GAS  /tmp/ccRdeGPu.s 			page 18


 558 0002 8BB0     		sub	sp, sp, #44
 559              	.LCFI12:
 560              		.cfi_def_cfa_offset 48
  85:Core/Src/tim.c ****   TIM_OC_InitTypeDef sConfigOC = {0};
 561              		.loc 1 85 3 view .LVU169
  85:Core/Src/tim.c ****   TIM_OC_InitTypeDef sConfigOC = {0};
 562              		.loc 1 85 27 is_stmt 0 view .LVU170
 563 0004 0023     		movs	r3, #0
 564 0006 0893     		str	r3, [sp, #32]
 565 0008 0993     		str	r3, [sp, #36]
  86:Core/Src/tim.c **** 
 566              		.loc 1 86 3 is_stmt 1 view .LVU171
  86:Core/Src/tim.c **** 
 567              		.loc 1 86 22 is_stmt 0 view .LVU172
 568 000a 0193     		str	r3, [sp, #4]
 569 000c 0293     		str	r3, [sp, #8]
 570 000e 0393     		str	r3, [sp, #12]
 571 0010 0493     		str	r3, [sp, #16]
 572 0012 0593     		str	r3, [sp, #20]
 573 0014 0693     		str	r3, [sp, #24]
 574 0016 0793     		str	r3, [sp, #28]
  88:Core/Src/tim.c ****   htim3.Init.Prescaler = 71;
 575              		.loc 1 88 3 is_stmt 1 view .LVU173
  88:Core/Src/tim.c ****   htim3.Init.Prescaler = 71;
 576              		.loc 1 88 18 is_stmt 0 view .LVU174
 577 0018 1C48     		ldr	r0, .L43
 578 001a 1D4A     		ldr	r2, .L43+4
 579 001c 0260     		str	r2, [r0]
  89:Core/Src/tim.c ****   htim3.Init.CounterMode = TIM_COUNTERMODE_UP;
 580              		.loc 1 89 3 is_stmt 1 view .LVU175
  89:Core/Src/tim.c ****   htim3.Init.CounterMode = TIM_COUNTERMODE_UP;
 581              		.loc 1 89 24 is_stmt 0 view .LVU176
 582 001e 4722     		movs	r2, #71
 583 0020 4260     		str	r2, [r0, #4]
  90:Core/Src/tim.c ****   htim3.Init.Period = 9;
 584              		.loc 1 90 3 is_stmt 1 view .LVU177
  90:Core/Src/tim.c ****   htim3.Init.Period = 9;
 585              		.loc 1 90 26 is_stmt 0 view .LVU178
 586 0022 8360     		str	r3, [r0, #8]
  91:Core/Src/tim.c ****   htim3.Init.ClockDivision = TIM_CLOCKDIVISION_DIV1;
 587              		.loc 1 91 3 is_stmt 1 view .LVU179
  91:Core/Src/tim.c ****   htim3.Init.ClockDivision = TIM_CLOCKDIVISION_DIV1;
 588              		.loc 1 91 21 is_stmt 0 view .LVU180
 589 0024 0922     		movs	r2, #9
 590 0026 C260     		str	r2, [r0, #12]
  92:Core/Src/tim.c ****   htim3.Init.AutoReloadPreload = TIM_AUTORELOAD_PRELOAD_DISABLE;
 591              		.loc 1 92 3 is_stmt 1 view .LVU181
  92:Core/Src/tim.c ****   htim3.Init.AutoReloadPreload = TIM_AUTORELOAD_PRELOAD_DISABLE;
 592              		.loc 1 92 28 is_stmt 0 view .LVU182
 593 0028 0361     		str	r3, [r0, #16]
  93:Core/Src/tim.c ****   if (HAL_TIM_PWM_Init(&htim3) != HAL_OK)
 594              		.loc 1 93 3 is_stmt 1 view .LVU183
  93:Core/Src/tim.c ****   if (HAL_TIM_PWM_Init(&htim3) != HAL_OK)
 595              		.loc 1 93 32 is_stmt 0 view .LVU184
 596 002a 8361     		str	r3, [r0, #24]
  94:Core/Src/tim.c ****   {
 597              		.loc 1 94 3 is_stmt 1 view .LVU185
ARM GAS  /tmp/ccRdeGPu.s 			page 19


  94:Core/Src/tim.c ****   {
 598              		.loc 1 94 7 is_stmt 0 view .LVU186
 599 002c FFF7FEFF 		bl	HAL_TIM_PWM_Init
 600              	.LVL23:
  94:Core/Src/tim.c ****   {
 601              		.loc 1 94 6 view .LVU187
 602 0030 00BB     		cbnz	r0, .L39
 603              	.L34:
  98:Core/Src/tim.c ****   sMasterConfig.MasterSlaveMode = TIM_MASTERSLAVEMODE_DISABLE;
 604              		.loc 1 98 3 is_stmt 1 view .LVU188
  98:Core/Src/tim.c ****   sMasterConfig.MasterSlaveMode = TIM_MASTERSLAVEMODE_DISABLE;
 605              		.loc 1 98 37 is_stmt 0 view .LVU189
 606 0032 0023     		movs	r3, #0
 607 0034 0893     		str	r3, [sp, #32]
  99:Core/Src/tim.c ****   if (HAL_TIMEx_MasterConfigSynchronization(&htim3, &sMasterConfig) != HAL_OK)
 608              		.loc 1 99 3 is_stmt 1 view .LVU190
  99:Core/Src/tim.c ****   if (HAL_TIMEx_MasterConfigSynchronization(&htim3, &sMasterConfig) != HAL_OK)
 609              		.loc 1 99 33 is_stmt 0 view .LVU191
 610 0036 0993     		str	r3, [sp, #36]
 100:Core/Src/tim.c ****   {
 611              		.loc 1 100 3 is_stmt 1 view .LVU192
 100:Core/Src/tim.c ****   {
 612              		.loc 1 100 7 is_stmt 0 view .LVU193
 613 0038 08A9     		add	r1, sp, #32
 614 003a 1448     		ldr	r0, .L43
 615 003c FFF7FEFF 		bl	HAL_TIMEx_MasterConfigSynchronization
 616              	.LVL24:
 100:Core/Src/tim.c ****   {
 617              		.loc 1 100 6 view .LVU194
 618 0040 D8B9     		cbnz	r0, .L40
 619              	.L35:
 104:Core/Src/tim.c ****   sConfigOC.Pulse = 0;
 620              		.loc 1 104 3 is_stmt 1 view .LVU195
 104:Core/Src/tim.c ****   sConfigOC.Pulse = 0;
 621              		.loc 1 104 20 is_stmt 0 view .LVU196
 622 0042 6023     		movs	r3, #96
 623 0044 0193     		str	r3, [sp, #4]
 105:Core/Src/tim.c ****   sConfigOC.OCPolarity = TIM_OCPOLARITY_HIGH;
 624              		.loc 1 105 3 is_stmt 1 view .LVU197
 105:Core/Src/tim.c ****   sConfigOC.OCPolarity = TIM_OCPOLARITY_HIGH;
 625              		.loc 1 105 19 is_stmt 0 view .LVU198
 626 0046 0023     		movs	r3, #0
 627 0048 0293     		str	r3, [sp, #8]
 106:Core/Src/tim.c ****   sConfigOC.OCFastMode = TIM_OCFAST_DISABLE;
 628              		.loc 1 106 3 is_stmt 1 view .LVU199
 106:Core/Src/tim.c ****   sConfigOC.OCFastMode = TIM_OCFAST_DISABLE;
 629              		.loc 1 106 24 is_stmt 0 view .LVU200
 630 004a 0393     		str	r3, [sp, #12]
 107:Core/Src/tim.c ****   if (HAL_TIM_PWM_ConfigChannel(&htim3, &sConfigOC, TIM_CHANNEL_2) != HAL_OK)
 631              		.loc 1 107 3 is_stmt 1 view .LVU201
 107:Core/Src/tim.c ****   if (HAL_TIM_PWM_ConfigChannel(&htim3, &sConfigOC, TIM_CHANNEL_2) != HAL_OK)
 632              		.loc 1 107 24 is_stmt 0 view .LVU202
 633 004c 0593     		str	r3, [sp, #20]
 108:Core/Src/tim.c ****   {
 634              		.loc 1 108 3 is_stmt 1 view .LVU203
 108:Core/Src/tim.c ****   {
 635              		.loc 1 108 7 is_stmt 0 view .LVU204
ARM GAS  /tmp/ccRdeGPu.s 			page 20


 636 004e 0422     		movs	r2, #4
 637 0050 0DEB0201 		add	r1, sp, r2
 638 0054 0D48     		ldr	r0, .L43
 639 0056 FFF7FEFF 		bl	HAL_TIM_PWM_ConfigChannel
 640              	.LVL25:
 108:Core/Src/tim.c ****   {
 641              		.loc 1 108 6 view .LVU205
 642 005a 88B9     		cbnz	r0, .L41
 643              	.L36:
 112:Core/Src/tim.c ****   {
 644              		.loc 1 112 3 is_stmt 1 view .LVU206
 112:Core/Src/tim.c ****   {
 645              		.loc 1 112 7 is_stmt 0 view .LVU207
 646 005c 0822     		movs	r2, #8
 647 005e 01A9     		add	r1, sp, #4
 648 0060 0A48     		ldr	r0, .L43
 649 0062 FFF7FEFF 		bl	HAL_TIM_PWM_ConfigChannel
 650              	.LVL26:
 112:Core/Src/tim.c ****   {
 651              		.loc 1 112 6 view .LVU208
 652 0066 70B9     		cbnz	r0, .L42
 653              	.L37:
 116:Core/Src/tim.c **** 
 654              		.loc 1 116 3 is_stmt 1 view .LVU209
 655 0068 0848     		ldr	r0, .L43
 656 006a FFF7FEFF 		bl	HAL_TIM_MspPostInit
 657              	.LVL27:
 118:Core/Src/tim.c **** /* TIM8 init function */
 658              		.loc 1 118 1 is_stmt 0 view .LVU210
 659 006e 0BB0     		add	sp, sp, #44
 660              	.LCFI13:
 661              		.cfi_remember_state
 662              		.cfi_def_cfa_offset 4
 663              		@ sp needed
 664 0070 5DF804FB 		ldr	pc, [sp], #4
 665              	.L39:
 666              	.LCFI14:
 667              		.cfi_restore_state
  96:Core/Src/tim.c ****   }
 668              		.loc 1 96 5 is_stmt 1 view .LVU211
 669 0074 FFF7FEFF 		bl	Error_Handler
 670              	.LVL28:
 671 0078 DBE7     		b	.L34
 672              	.L40:
 102:Core/Src/tim.c ****   }
 673              		.loc 1 102 5 view .LVU212
 674 007a FFF7FEFF 		bl	Error_Handler
 675              	.LVL29:
 676 007e E0E7     		b	.L35
 677              	.L41:
 110:Core/Src/tim.c ****   }
 678              		.loc 1 110 5 view .LVU213
 679 0080 FFF7FEFF 		bl	Error_Handler
 680              	.LVL30:
 681 0084 EAE7     		b	.L36
 682              	.L42:
 114:Core/Src/tim.c ****   }
ARM GAS  /tmp/ccRdeGPu.s 			page 21


 683              		.loc 1 114 5 view .LVU214
 684 0086 FFF7FEFF 		bl	Error_Handler
 685              	.LVL31:
 686 008a EDE7     		b	.L37
 687              	.L44:
 688              		.align	2
 689              	.L43:
 690 008c 00000000 		.word	htim3
 691 0090 00040040 		.word	1073742848
 692              		.cfi_endproc
 693              	.LFE66:
 695              		.section	.text.MX_TIM8_Init,"ax",%progbits
 696              		.align	1
 697              		.global	MX_TIM8_Init
 698              		.syntax unified
 699              		.thumb
 700              		.thumb_func
 701              		.fpu softvfp
 703              	MX_TIM8_Init:
 704              	.LFB67:
 121:Core/Src/tim.c ****   TIM_MasterConfigTypeDef sMasterConfig = {0};
 705              		.loc 1 121 1 view -0
 706              		.cfi_startproc
 707              		@ args = 0, pretend = 0, frame = 72
 708              		@ frame_needed = 0, uses_anonymous_args = 0
 709 0000 10B5     		push	{r4, lr}
 710              	.LCFI15:
 711              		.cfi_def_cfa_offset 8
 712              		.cfi_offset 4, -8
 713              		.cfi_offset 14, -4
 714 0002 92B0     		sub	sp, sp, #72
 715              	.LCFI16:
 716              		.cfi_def_cfa_offset 80
 122:Core/Src/tim.c ****   TIM_OC_InitTypeDef sConfigOC = {0};
 717              		.loc 1 122 3 view .LVU216
 122:Core/Src/tim.c ****   TIM_OC_InitTypeDef sConfigOC = {0};
 718              		.loc 1 122 27 is_stmt 0 view .LVU217
 719 0004 0024     		movs	r4, #0
 720 0006 1094     		str	r4, [sp, #64]
 721 0008 1194     		str	r4, [sp, #68]
 123:Core/Src/tim.c ****   TIM_BreakDeadTimeConfigTypeDef sBreakDeadTimeConfig = {0};
 722              		.loc 1 123 3 is_stmt 1 view .LVU218
 123:Core/Src/tim.c ****   TIM_BreakDeadTimeConfigTypeDef sBreakDeadTimeConfig = {0};
 723              		.loc 1 123 22 is_stmt 0 view .LVU219
 724 000a 0994     		str	r4, [sp, #36]
 725 000c 0A94     		str	r4, [sp, #40]
 726 000e 0B94     		str	r4, [sp, #44]
 727 0010 0C94     		str	r4, [sp, #48]
 728 0012 0D94     		str	r4, [sp, #52]
 729 0014 0E94     		str	r4, [sp, #56]
 730 0016 0F94     		str	r4, [sp, #60]
 124:Core/Src/tim.c **** 
 731              		.loc 1 124 3 is_stmt 1 view .LVU220
 124:Core/Src/tim.c **** 
 732              		.loc 1 124 34 is_stmt 0 view .LVU221
 733 0018 2022     		movs	r2, #32
 734 001a 2146     		mov	r1, r4
ARM GAS  /tmp/ccRdeGPu.s 			page 22


 735 001c 01A8     		add	r0, sp, #4
 736 001e FFF7FEFF 		bl	memset
 737              	.LVL32:
 126:Core/Src/tim.c ****   htim8.Init.Prescaler = 0;
 738              		.loc 1 126 3 is_stmt 1 view .LVU222
 126:Core/Src/tim.c ****   htim8.Init.Prescaler = 0;
 739              		.loc 1 126 18 is_stmt 0 view .LVU223
 740 0022 2348     		ldr	r0, .L55
 741 0024 234B     		ldr	r3, .L55+4
 742 0026 0360     		str	r3, [r0]
 127:Core/Src/tim.c ****   htim8.Init.CounterMode = TIM_COUNTERMODE_UP;
 743              		.loc 1 127 3 is_stmt 1 view .LVU224
 127:Core/Src/tim.c ****   htim8.Init.CounterMode = TIM_COUNTERMODE_UP;
 744              		.loc 1 127 24 is_stmt 0 view .LVU225
 745 0028 4460     		str	r4, [r0, #4]
 128:Core/Src/tim.c ****   htim8.Init.Period = 65535;
 746              		.loc 1 128 3 is_stmt 1 view .LVU226
 128:Core/Src/tim.c ****   htim8.Init.Period = 65535;
 747              		.loc 1 128 26 is_stmt 0 view .LVU227
 748 002a 8460     		str	r4, [r0, #8]
 129:Core/Src/tim.c ****   htim8.Init.ClockDivision = TIM_CLOCKDIVISION_DIV1;
 749              		.loc 1 129 3 is_stmt 1 view .LVU228
 129:Core/Src/tim.c ****   htim8.Init.ClockDivision = TIM_CLOCKDIVISION_DIV1;
 750              		.loc 1 129 21 is_stmt 0 view .LVU229
 751 002c 4FF6FF73 		movw	r3, #65535
 752 0030 C360     		str	r3, [r0, #12]
 130:Core/Src/tim.c ****   htim8.Init.RepetitionCounter = 0;
 753              		.loc 1 130 3 is_stmt 1 view .LVU230
 130:Core/Src/tim.c ****   htim8.Init.RepetitionCounter = 0;
 754              		.loc 1 130 28 is_stmt 0 view .LVU231
 755 0032 0461     		str	r4, [r0, #16]
 131:Core/Src/tim.c ****   htim8.Init.AutoReloadPreload = TIM_AUTORELOAD_PRELOAD_DISABLE;
 756              		.loc 1 131 3 is_stmt 1 view .LVU232
 131:Core/Src/tim.c ****   htim8.Init.AutoReloadPreload = TIM_AUTORELOAD_PRELOAD_DISABLE;
 757              		.loc 1 131 32 is_stmt 0 view .LVU233
 758 0034 4461     		str	r4, [r0, #20]
 132:Core/Src/tim.c ****   if (HAL_TIM_PWM_Init(&htim8) != HAL_OK)
 759              		.loc 1 132 3 is_stmt 1 view .LVU234
 132:Core/Src/tim.c ****   if (HAL_TIM_PWM_Init(&htim8) != HAL_OK)
 760              		.loc 1 132 32 is_stmt 0 view .LVU235
 761 0036 8461     		str	r4, [r0, #24]
 133:Core/Src/tim.c ****   {
 762              		.loc 1 133 3 is_stmt 1 view .LVU236
 133:Core/Src/tim.c ****   {
 763              		.loc 1 133 7 is_stmt 0 view .LVU237
 764 0038 FFF7FEFF 		bl	HAL_TIM_PWM_Init
 765              	.LVL33:
 133:Core/Src/tim.c ****   {
 766              		.loc 1 133 6 view .LVU238
 767 003c 0028     		cmp	r0, #0
 768 003e 2AD1     		bne	.L51
 769              	.L46:
 137:Core/Src/tim.c ****   sMasterConfig.MasterSlaveMode = TIM_MASTERSLAVEMODE_DISABLE;
 770              		.loc 1 137 3 is_stmt 1 view .LVU239
 137:Core/Src/tim.c ****   sMasterConfig.MasterSlaveMode = TIM_MASTERSLAVEMODE_DISABLE;
 771              		.loc 1 137 37 is_stmt 0 view .LVU240
 772 0040 0023     		movs	r3, #0
ARM GAS  /tmp/ccRdeGPu.s 			page 23


 773 0042 1093     		str	r3, [sp, #64]
 138:Core/Src/tim.c ****   if (HAL_TIMEx_MasterConfigSynchronization(&htim8, &sMasterConfig) != HAL_OK)
 774              		.loc 1 138 3 is_stmt 1 view .LVU241
 138:Core/Src/tim.c ****   if (HAL_TIMEx_MasterConfigSynchronization(&htim8, &sMasterConfig) != HAL_OK)
 775              		.loc 1 138 33 is_stmt 0 view .LVU242
 776 0044 1193     		str	r3, [sp, #68]
 139:Core/Src/tim.c ****   {
 777              		.loc 1 139 3 is_stmt 1 view .LVU243
 139:Core/Src/tim.c ****   {
 778              		.loc 1 139 7 is_stmt 0 view .LVU244
 779 0046 10A9     		add	r1, sp, #64
 780 0048 1948     		ldr	r0, .L55
 781 004a FFF7FEFF 		bl	HAL_TIMEx_MasterConfigSynchronization
 782              	.LVL34:
 139:Core/Src/tim.c ****   {
 783              		.loc 1 139 6 view .LVU245
 784 004e 28BB     		cbnz	r0, .L52
 785              	.L47:
 143:Core/Src/tim.c ****   sConfigOC.Pulse = 0;
 786              		.loc 1 143 3 is_stmt 1 view .LVU246
 143:Core/Src/tim.c ****   sConfigOC.Pulse = 0;
 787              		.loc 1 143 20 is_stmt 0 view .LVU247
 788 0050 6023     		movs	r3, #96
 789 0052 0993     		str	r3, [sp, #36]
 144:Core/Src/tim.c ****   sConfigOC.OCPolarity = TIM_OCPOLARITY_HIGH;
 790              		.loc 1 144 3 is_stmt 1 view .LVU248
 144:Core/Src/tim.c ****   sConfigOC.OCPolarity = TIM_OCPOLARITY_HIGH;
 791              		.loc 1 144 19 is_stmt 0 view .LVU249
 792 0054 0023     		movs	r3, #0
 793 0056 0A93     		str	r3, [sp, #40]
 145:Core/Src/tim.c ****   sConfigOC.OCNPolarity = TIM_OCNPOLARITY_HIGH;
 794              		.loc 1 145 3 is_stmt 1 view .LVU250
 145:Core/Src/tim.c ****   sConfigOC.OCNPolarity = TIM_OCNPOLARITY_HIGH;
 795              		.loc 1 145 24 is_stmt 0 view .LVU251
 796 0058 0B93     		str	r3, [sp, #44]
 146:Core/Src/tim.c ****   sConfigOC.OCFastMode = TIM_OCFAST_DISABLE;
 797              		.loc 1 146 3 is_stmt 1 view .LVU252
 146:Core/Src/tim.c ****   sConfigOC.OCFastMode = TIM_OCFAST_DISABLE;
 798              		.loc 1 146 25 is_stmt 0 view .LVU253
 799 005a 0C93     		str	r3, [sp, #48]
 147:Core/Src/tim.c ****   sConfigOC.OCIdleState = TIM_OCIDLESTATE_RESET;
 800              		.loc 1 147 3 is_stmt 1 view .LVU254
 147:Core/Src/tim.c ****   sConfigOC.OCIdleState = TIM_OCIDLESTATE_RESET;
 801              		.loc 1 147 24 is_stmt 0 view .LVU255
 802 005c 0D93     		str	r3, [sp, #52]
 148:Core/Src/tim.c ****   sConfigOC.OCNIdleState = TIM_OCNIDLESTATE_RESET;
 803              		.loc 1 148 3 is_stmt 1 view .LVU256
 148:Core/Src/tim.c ****   sConfigOC.OCNIdleState = TIM_OCNIDLESTATE_RESET;
 804              		.loc 1 148 25 is_stmt 0 view .LVU257
 805 005e 0E93     		str	r3, [sp, #56]
 149:Core/Src/tim.c ****   if (HAL_TIM_PWM_ConfigChannel(&htim8, &sConfigOC, TIM_CHANNEL_2) != HAL_OK)
 806              		.loc 1 149 3 is_stmt 1 view .LVU258
 149:Core/Src/tim.c ****   if (HAL_TIM_PWM_ConfigChannel(&htim8, &sConfigOC, TIM_CHANNEL_2) != HAL_OK)
 807              		.loc 1 149 26 is_stmt 0 view .LVU259
 808 0060 0F93     		str	r3, [sp, #60]
 150:Core/Src/tim.c ****   {
 809              		.loc 1 150 3 is_stmt 1 view .LVU260
ARM GAS  /tmp/ccRdeGPu.s 			page 24


 150:Core/Src/tim.c ****   {
 810              		.loc 1 150 7 is_stmt 0 view .LVU261
 811 0062 0422     		movs	r2, #4
 812 0064 09A9     		add	r1, sp, #36
 813 0066 1248     		ldr	r0, .L55
 814 0068 FFF7FEFF 		bl	HAL_TIM_PWM_ConfigChannel
 815              	.LVL35:
 150:Core/Src/tim.c ****   {
 816              		.loc 1 150 6 view .LVU262
 817 006c C8B9     		cbnz	r0, .L53
 818              	.L48:
 154:Core/Src/tim.c ****   sBreakDeadTimeConfig.OffStateIDLEMode = TIM_OSSI_DISABLE;
 819              		.loc 1 154 3 is_stmt 1 view .LVU263
 154:Core/Src/tim.c ****   sBreakDeadTimeConfig.OffStateIDLEMode = TIM_OSSI_DISABLE;
 820              		.loc 1 154 40 is_stmt 0 view .LVU264
 821 006e 0023     		movs	r3, #0
 822 0070 0193     		str	r3, [sp, #4]
 155:Core/Src/tim.c ****   sBreakDeadTimeConfig.LockLevel = TIM_LOCKLEVEL_OFF;
 823              		.loc 1 155 3 is_stmt 1 view .LVU265
 155:Core/Src/tim.c ****   sBreakDeadTimeConfig.LockLevel = TIM_LOCKLEVEL_OFF;
 824              		.loc 1 155 41 is_stmt 0 view .LVU266
 825 0072 0293     		str	r3, [sp, #8]
 156:Core/Src/tim.c ****   sBreakDeadTimeConfig.DeadTime = 0;
 826              		.loc 1 156 3 is_stmt 1 view .LVU267
 156:Core/Src/tim.c ****   sBreakDeadTimeConfig.DeadTime = 0;
 827              		.loc 1 156 34 is_stmt 0 view .LVU268
 828 0074 0393     		str	r3, [sp, #12]
 157:Core/Src/tim.c ****   sBreakDeadTimeConfig.BreakState = TIM_BREAK_DISABLE;
 829              		.loc 1 157 3 is_stmt 1 view .LVU269
 157:Core/Src/tim.c ****   sBreakDeadTimeConfig.BreakState = TIM_BREAK_DISABLE;
 830              		.loc 1 157 33 is_stmt 0 view .LVU270
 831 0076 0493     		str	r3, [sp, #16]
 158:Core/Src/tim.c ****   sBreakDeadTimeConfig.BreakPolarity = TIM_BREAKPOLARITY_HIGH;
 832              		.loc 1 158 3 is_stmt 1 view .LVU271
 158:Core/Src/tim.c ****   sBreakDeadTimeConfig.BreakPolarity = TIM_BREAKPOLARITY_HIGH;
 833              		.loc 1 158 35 is_stmt 0 view .LVU272
 834 0078 0593     		str	r3, [sp, #20]
 159:Core/Src/tim.c ****   sBreakDeadTimeConfig.AutomaticOutput = TIM_AUTOMATICOUTPUT_DISABLE;
 835              		.loc 1 159 3 is_stmt 1 view .LVU273
 159:Core/Src/tim.c ****   sBreakDeadTimeConfig.AutomaticOutput = TIM_AUTOMATICOUTPUT_DISABLE;
 836              		.loc 1 159 38 is_stmt 0 view .LVU274
 837 007a 4FF40052 		mov	r2, #8192
 838 007e 0692     		str	r2, [sp, #24]
 160:Core/Src/tim.c ****   if (HAL_TIMEx_ConfigBreakDeadTime(&htim8, &sBreakDeadTimeConfig) != HAL_OK)
 839              		.loc 1 160 3 is_stmt 1 view .LVU275
 160:Core/Src/tim.c ****   if (HAL_TIMEx_ConfigBreakDeadTime(&htim8, &sBreakDeadTimeConfig) != HAL_OK)
 840              		.loc 1 160 40 is_stmt 0 view .LVU276
 841 0080 0893     		str	r3, [sp, #32]
 161:Core/Src/tim.c ****   {
 842              		.loc 1 161 3 is_stmt 1 view .LVU277
 161:Core/Src/tim.c ****   {
 843              		.loc 1 161 7 is_stmt 0 view .LVU278
 844 0082 01A9     		add	r1, sp, #4
 845 0084 0A48     		ldr	r0, .L55
 846 0086 FFF7FEFF 		bl	HAL_TIMEx_ConfigBreakDeadTime
 847              	.LVL36:
 161:Core/Src/tim.c ****   {
ARM GAS  /tmp/ccRdeGPu.s 			page 25


 848              		.loc 1 161 6 view .LVU279
 849 008a 68B9     		cbnz	r0, .L54
 850              	.L49:
 165:Core/Src/tim.c **** 
 851              		.loc 1 165 3 is_stmt 1 view .LVU280
 852 008c 0848     		ldr	r0, .L55
 853 008e FFF7FEFF 		bl	HAL_TIM_MspPostInit
 854              	.LVL37:
 167:Core/Src/tim.c **** 
 855              		.loc 1 167 1 is_stmt 0 view .LVU281
 856 0092 12B0     		add	sp, sp, #72
 857              	.LCFI17:
 858              		.cfi_remember_state
 859              		.cfi_def_cfa_offset 8
 860              		@ sp needed
 861 0094 10BD     		pop	{r4, pc}
 862              	.L51:
 863              	.LCFI18:
 864              		.cfi_restore_state
 135:Core/Src/tim.c ****   }
 865              		.loc 1 135 5 is_stmt 1 view .LVU282
 866 0096 FFF7FEFF 		bl	Error_Handler
 867              	.LVL38:
 868 009a D1E7     		b	.L46
 869              	.L52:
 141:Core/Src/tim.c ****   }
 870              		.loc 1 141 5 view .LVU283
 871 009c FFF7FEFF 		bl	Error_Handler
 872              	.LVL39:
 873 00a0 D6E7     		b	.L47
 874              	.L53:
 152:Core/Src/tim.c ****   }
 875              		.loc 1 152 5 view .LVU284
 876 00a2 FFF7FEFF 		bl	Error_Handler
 877              	.LVL40:
 878 00a6 E2E7     		b	.L48
 879              	.L54:
 163:Core/Src/tim.c ****   }
 880              		.loc 1 163 5 view .LVU285
 881 00a8 FFF7FEFF 		bl	Error_Handler
 882              	.LVL41:
 883 00ac EEE7     		b	.L49
 884              	.L56:
 885 00ae 00BF     		.align	2
 886              	.L55:
 887 00b0 00000000 		.word	htim8
 888 00b4 00340140 		.word	1073820672
 889              		.cfi_endproc
 890              	.LFE67:
 892              		.section	.text.HAL_TIM_PWM_MspDeInit,"ax",%progbits
 893              		.align	1
 894              		.global	HAL_TIM_PWM_MspDeInit
 895              		.syntax unified
 896              		.thumb
 897              		.thumb_func
 898              		.fpu softvfp
 900              	HAL_TIM_PWM_MspDeInit:
ARM GAS  /tmp/ccRdeGPu.s 			page 26


 901              	.LVL42:
 902              	.LFB70:
 275:Core/Src/tim.c **** 
 276:Core/Src/tim.c **** void HAL_TIM_PWM_MspDeInit(TIM_HandleTypeDef* tim_pwmHandle)
 277:Core/Src/tim.c **** {
 903              		.loc 1 277 1 view -0
 904              		.cfi_startproc
 905              		@ args = 0, pretend = 0, frame = 0
 906              		@ frame_needed = 0, uses_anonymous_args = 0
 907              		@ link register save eliminated.
 278:Core/Src/tim.c **** 
 279:Core/Src/tim.c ****   if(tim_pwmHandle->Instance==TIM1)
 908              		.loc 1 279 3 view .LVU287
 909              		.loc 1 279 19 is_stmt 0 view .LVU288
 910 0000 0368     		ldr	r3, [r0]
 911              		.loc 1 279 5 view .LVU289
 912 0002 0F4A     		ldr	r2, .L64
 913 0004 9342     		cmp	r3, r2
 914 0006 06D0     		beq	.L61
 280:Core/Src/tim.c ****   {
 281:Core/Src/tim.c ****   /* USER CODE BEGIN TIM1_MspDeInit 0 */
 282:Core/Src/tim.c **** 
 283:Core/Src/tim.c ****   /* USER CODE END TIM1_MspDeInit 0 */
 284:Core/Src/tim.c ****     /* Peripheral clock disable */
 285:Core/Src/tim.c ****     __HAL_RCC_TIM1_CLK_DISABLE();
 286:Core/Src/tim.c ****   /* USER CODE BEGIN TIM1_MspDeInit 1 */
 287:Core/Src/tim.c **** 
 288:Core/Src/tim.c ****   /* USER CODE END TIM1_MspDeInit 1 */
 289:Core/Src/tim.c ****   }
 290:Core/Src/tim.c ****   else if(tim_pwmHandle->Instance==TIM3)
 915              		.loc 1 290 8 is_stmt 1 view .LVU290
 916              		.loc 1 290 10 is_stmt 0 view .LVU291
 917 0008 0E4A     		ldr	r2, .L64+4
 918 000a 9342     		cmp	r3, r2
 919 000c 0AD0     		beq	.L62
 291:Core/Src/tim.c ****   {
 292:Core/Src/tim.c ****   /* USER CODE BEGIN TIM3_MspDeInit 0 */
 293:Core/Src/tim.c **** 
 294:Core/Src/tim.c ****   /* USER CODE END TIM3_MspDeInit 0 */
 295:Core/Src/tim.c ****     /* Peripheral clock disable */
 296:Core/Src/tim.c ****     __HAL_RCC_TIM3_CLK_DISABLE();
 297:Core/Src/tim.c ****   /* USER CODE BEGIN TIM3_MspDeInit 1 */
 298:Core/Src/tim.c **** 
 299:Core/Src/tim.c ****   /* USER CODE END TIM3_MspDeInit 1 */
 300:Core/Src/tim.c ****   }
 301:Core/Src/tim.c ****   else if(tim_pwmHandle->Instance==TIM8)
 920              		.loc 1 301 8 is_stmt 1 view .LVU292
 921              		.loc 1 301 10 is_stmt 0 view .LVU293
 922 000e 0E4A     		ldr	r2, .L64+8
 923 0010 9342     		cmp	r3, r2
 924 0012 0ED0     		beq	.L63
 925              	.L57:
 302:Core/Src/tim.c ****   {
 303:Core/Src/tim.c ****   /* USER CODE BEGIN TIM8_MspDeInit 0 */
 304:Core/Src/tim.c **** 
 305:Core/Src/tim.c ****   /* USER CODE END TIM8_MspDeInit 0 */
 306:Core/Src/tim.c ****     /* Peripheral clock disable */
ARM GAS  /tmp/ccRdeGPu.s 			page 27


 307:Core/Src/tim.c ****     __HAL_RCC_TIM8_CLK_DISABLE();
 308:Core/Src/tim.c ****   /* USER CODE BEGIN TIM8_MspDeInit 1 */
 309:Core/Src/tim.c **** 
 310:Core/Src/tim.c ****   /* USER CODE END TIM8_MspDeInit 1 */
 311:Core/Src/tim.c ****   }
 312:Core/Src/tim.c **** }
 926              		.loc 1 312 1 view .LVU294
 927 0014 7047     		bx	lr
 928              	.L61:
 285:Core/Src/tim.c ****   /* USER CODE BEGIN TIM1_MspDeInit 1 */
 929              		.loc 1 285 5 is_stmt 1 view .LVU295
 930 0016 02F56442 		add	r2, r2, #58368
 931 001a 9369     		ldr	r3, [r2, #24]
 932 001c 23F40063 		bic	r3, r3, #2048
 933 0020 9361     		str	r3, [r2, #24]
 934 0022 7047     		bx	lr
 935              	.L62:
 296:Core/Src/tim.c ****   /* USER CODE BEGIN TIM3_MspDeInit 1 */
 936              		.loc 1 296 5 view .LVU296
 937 0024 02F50332 		add	r2, r2, #134144
 938 0028 D369     		ldr	r3, [r2, #28]
 939 002a 23F00203 		bic	r3, r3, #2
 940 002e D361     		str	r3, [r2, #28]
 941 0030 7047     		bx	lr
 942              	.L63:
 307:Core/Src/tim.c ****   /* USER CODE BEGIN TIM8_MspDeInit 1 */
 943              		.loc 1 307 5 view .LVU297
 944 0032 02F55C42 		add	r2, r2, #56320
 945 0036 9369     		ldr	r3, [r2, #24]
 946 0038 23F40053 		bic	r3, r3, #8192
 947 003c 9361     		str	r3, [r2, #24]
 948              		.loc 1 312 1 is_stmt 0 view .LVU298
 949 003e E9E7     		b	.L57
 950              	.L65:
 951              		.align	2
 952              	.L64:
 953 0040 002C0140 		.word	1073818624
 954 0044 00040040 		.word	1073742848
 955 0048 00340140 		.word	1073820672
 956              		.cfi_endproc
 957              	.LFE70:
 959              		.comm	htim8,72,4
 960              		.comm	htim3,72,4
 961              		.comm	htim2,72,4
 962              		.comm	htim1,72,4
 963              		.text
 964              	.Letext0:
 965              		.file 2 "/opt/gcc-arm-none-eabi-9-2020-q2-update/arm-none-eabi/include/machine/_default_types.h"
 966              		.file 3 "/opt/gcc-arm-none-eabi-9-2020-q2-update/arm-none-eabi/include/sys/_stdint.h"
 967              		.file 4 "Drivers/CMSIS/Include/core_cm3.h"
 968              		.file 5 "Drivers/CMSIS/Device/ST/STM32F1xx/Include/system_stm32f1xx.h"
 969              		.file 6 "Drivers/CMSIS/Device/ST/STM32F1xx/Include/stm32f103xe.h"
 970              		.file 7 "Drivers/STM32F1xx_HAL_Driver/Inc/stm32f1xx_hal_def.h"
 971              		.file 8 "Drivers/STM32F1xx_HAL_Driver/Inc/stm32f1xx_hal_gpio.h"
 972              		.file 9 "Drivers/STM32F1xx_HAL_Driver/Inc/stm32f1xx_hal_dma.h"
 973              		.file 10 "Drivers/STM32F1xx_HAL_Driver/Inc/stm32f1xx_hal_tim.h"
 974              		.file 11 "Drivers/STM32F1xx_HAL_Driver/Inc/stm32f1xx_hal.h"
ARM GAS  /tmp/ccRdeGPu.s 			page 28


 975              		.file 12 "Core/Inc/tim.h"
 976              		.file 13 "Drivers/STM32F1xx_HAL_Driver/Inc/stm32f1xx_hal_tim_ex.h"
 977              		.file 14 "Core/Inc/main.h"
 978              		.file 15 "<built-in>"
ARM GAS  /tmp/ccRdeGPu.s 			page 29


DEFINED SYMBOLS
                            *ABS*:0000000000000000 tim.c
     /tmp/ccRdeGPu.s:16     .text.HAL_TIM_PWM_MspInit:0000000000000000 $t
     /tmp/ccRdeGPu.s:24     .text.HAL_TIM_PWM_MspInit:0000000000000000 HAL_TIM_PWM_MspInit
     /tmp/ccRdeGPu.s:122    .text.HAL_TIM_PWM_MspInit:000000000000005c $d
     /tmp/ccRdeGPu.s:130    .text.HAL_TIM_MspPostInit:0000000000000000 $t
     /tmp/ccRdeGPu.s:137    .text.HAL_TIM_MspPostInit:0000000000000000 HAL_TIM_MspPostInit
     /tmp/ccRdeGPu.s:333    .text.HAL_TIM_MspPostInit:00000000000000c4 $d
     /tmp/ccRdeGPu.s:344    .text.MX_TIM1_Init:0000000000000000 $t
     /tmp/ccRdeGPu.s:351    .text.MX_TIM1_Init:0000000000000000 MX_TIM1_Init
     /tmp/ccRdeGPu.s:535    .text.MX_TIM1_Init:00000000000000ac $d
                            *COM*:0000000000000048 htim1
     /tmp/ccRdeGPu.s:541    .text.MX_TIM3_Init:0000000000000000 $t
     /tmp/ccRdeGPu.s:548    .text.MX_TIM3_Init:0000000000000000 MX_TIM3_Init
     /tmp/ccRdeGPu.s:690    .text.MX_TIM3_Init:000000000000008c $d
                            *COM*:0000000000000048 htim3
     /tmp/ccRdeGPu.s:696    .text.MX_TIM8_Init:0000000000000000 $t
     /tmp/ccRdeGPu.s:703    .text.MX_TIM8_Init:0000000000000000 MX_TIM8_Init
     /tmp/ccRdeGPu.s:887    .text.MX_TIM8_Init:00000000000000b0 $d
                            *COM*:0000000000000048 htim8
     /tmp/ccRdeGPu.s:893    .text.HAL_TIM_PWM_MspDeInit:0000000000000000 $t
     /tmp/ccRdeGPu.s:900    .text.HAL_TIM_PWM_MspDeInit:0000000000000000 HAL_TIM_PWM_MspDeInit
     /tmp/ccRdeGPu.s:953    .text.HAL_TIM_PWM_MspDeInit:0000000000000040 $d
                            *COM*:0000000000000048 htim2

UNDEFINED SYMBOLS
HAL_GPIO_Init
memset
HAL_TIM_PWM_Init
HAL_TIMEx_MasterConfigSynchronization
HAL_TIM_PWM_ConfigChannel
HAL_TIMEx_ConfigBreakDeadTime
Error_Handler
