ARM GAS  /tmp/ccu2ipg1.s 			page 1


   1              		.cpu cortex-m3
   2              		.eabi_attribute 20, 1
   3              		.eabi_attribute 21, 1
   4              		.eabi_attribute 23, 3
   5              		.eabi_attribute 24, 1
   6              		.eabi_attribute 25, 1
   7              		.eabi_attribute 26, 1
   8              		.eabi_attribute 30, 1
   9              		.eabi_attribute 34, 1
  10              		.eabi_attribute 18, 4
  11              		.file	"uart3_drv.c"
  12              		.text
  13              	.Ltext0:
  14              		.cfi_sections	.debug_frame
  15              		.section	.text.UART3_GPIO_Clock_NVIC_Init,"ax",%progbits
  16              		.align	1
  17              		.arch armv7-m
  18              		.syntax unified
  19              		.thumb
  20              		.thumb_func
  21              		.fpu softvfp
  23              	UART3_GPIO_Clock_NVIC_Init:
  24              	.LFB65:
  25              		.file 1 "Core/Src/uart3_drv.c"
   1:Core/Src/uart3_drv.c **** #include "uart3_drv.h"
   2:Core/Src/uart3_drv.c **** #include "SEGGER_RTT.h"
   3:Core/Src/uart3_drv.c **** #include "bridge_proto_cfg.h"
   4:Core/Src/uart3_drv.c **** UART_HandleTypeDef huart3;
   5:Core/Src/uart3_drv.c **** static void UART3_GPIO_Clock_NVIC_Init(void)
   6:Core/Src/uart3_drv.c **** {
  26              		.loc 1 6 1 view -0
  27              		.cfi_startproc
  28              		@ args = 0, pretend = 0, frame = 32
  29              		@ frame_needed = 0, uses_anonymous_args = 0
  30 0000 30B5     		push	{r4, r5, lr}
  31              	.LCFI0:
  32              		.cfi_def_cfa_offset 12
  33              		.cfi_offset 4, -12
  34              		.cfi_offset 5, -8
  35              		.cfi_offset 14, -4
  36 0002 89B0     		sub	sp, sp, #36
  37              	.LCFI1:
  38              		.cfi_def_cfa_offset 48
   7:Core/Src/uart3_drv.c ****     /* 时钟 */
   8:Core/Src/uart3_drv.c ****     __HAL_RCC_AFIO_CLK_ENABLE();
  39              		.loc 1 8 5 view .LVU1
  40              	.LBB2:
  41              		.loc 1 8 5 view .LVU2
  42              		.loc 1 8 5 view .LVU3
  43 0004 1E4B     		ldr	r3, .L3
  44 0006 9A69     		ldr	r2, [r3, #24]
  45 0008 42F00102 		orr	r2, r2, #1
  46 000c 9A61     		str	r2, [r3, #24]
  47              		.loc 1 8 5 view .LVU4
  48 000e 9A69     		ldr	r2, [r3, #24]
  49 0010 02F00102 		and	r2, r2, #1
  50 0014 0192     		str	r2, [sp, #4]
ARM GAS  /tmp/ccu2ipg1.s 			page 2


  51              		.loc 1 8 5 view .LVU5
  52 0016 019A     		ldr	r2, [sp, #4]
  53              	.LBE2:
  54              		.loc 1 8 5 view .LVU6
   9:Core/Src/uart3_drv.c ****     __HAL_RCC_GPIOB_CLK_ENABLE();     // 默认 PB10/PB11
  55              		.loc 1 9 5 view .LVU7
  56              	.LBB3:
  57              		.loc 1 9 5 view .LVU8
  58              		.loc 1 9 5 view .LVU9
  59 0018 9A69     		ldr	r2, [r3, #24]
  60 001a 42F00802 		orr	r2, r2, #8
  61 001e 9A61     		str	r2, [r3, #24]
  62              		.loc 1 9 5 view .LVU10
  63 0020 9A69     		ldr	r2, [r3, #24]
  64 0022 02F00802 		and	r2, r2, #8
  65 0026 0292     		str	r2, [sp, #8]
  66              		.loc 1 9 5 view .LVU11
  67 0028 029A     		ldr	r2, [sp, #8]
  68              	.LBE3:
  69              		.loc 1 9 5 view .LVU12
  10:Core/Src/uart3_drv.c ****     __HAL_RCC_USART3_CLK_ENABLE();
  70              		.loc 1 10 5 view .LVU13
  71              	.LBB4:
  72              		.loc 1 10 5 view .LVU14
  73              		.loc 1 10 5 view .LVU15
  74 002a DA69     		ldr	r2, [r3, #28]
  75 002c 42F48022 		orr	r2, r2, #262144
  76 0030 DA61     		str	r2, [r3, #28]
  77              		.loc 1 10 5 view .LVU16
  78 0032 DB69     		ldr	r3, [r3, #28]
  79 0034 03F48023 		and	r3, r3, #262144
  80 0038 0393     		str	r3, [sp, #12]
  81              		.loc 1 10 5 view .LVU17
  82 003a 039B     		ldr	r3, [sp, #12]
  83              	.LBE4:
  84              		.loc 1 10 5 view .LVU18
  11:Core/Src/uart3_drv.c **** 
  12:Core/Src/uart3_drv.c **** 
  13:Core/Src/uart3_drv.c ****     /* TX: PB10 AF-PP，高速 */
  14:Core/Src/uart3_drv.c ****     GPIO_InitTypeDef GPIO_InitStruct = {0};
  85              		.loc 1 14 5 view .LVU19
  86              		.loc 1 14 22 is_stmt 0 view .LVU20
  87 003c 0024     		movs	r4, #0
  88 003e 0694     		str	r4, [sp, #24]
  15:Core/Src/uart3_drv.c ****     GPIO_InitStruct.Pin   = GPIO_PIN_10;
  89              		.loc 1 15 5 is_stmt 1 view .LVU21
  90              		.loc 1 15 27 is_stmt 0 view .LVU22
  91 0040 4FF48063 		mov	r3, #1024
  92 0044 0493     		str	r3, [sp, #16]
  16:Core/Src/uart3_drv.c ****     GPIO_InitStruct.Mode  = GPIO_MODE_AF_PP;
  93              		.loc 1 16 5 is_stmt 1 view .LVU23
  94              		.loc 1 16 27 is_stmt 0 view .LVU24
  95 0046 0223     		movs	r3, #2
  96 0048 0593     		str	r3, [sp, #20]
  17:Core/Src/uart3_drv.c ****     GPIO_InitStruct.Speed = GPIO_SPEED_FREQ_HIGH;
  97              		.loc 1 17 5 is_stmt 1 view .LVU25
  98              		.loc 1 17 27 is_stmt 0 view .LVU26
ARM GAS  /tmp/ccu2ipg1.s 			page 3


  99 004a 0323     		movs	r3, #3
 100 004c 0793     		str	r3, [sp, #28]
  18:Core/Src/uart3_drv.c ****     HAL_GPIO_Init(GPIOB, &GPIO_InitStruct);
 101              		.loc 1 18 5 is_stmt 1 view .LVU27
 102 004e 0D4D     		ldr	r5, .L3+4
 103 0050 04A9     		add	r1, sp, #16
 104 0052 2846     		mov	r0, r5
 105 0054 FFF7FEFF 		bl	HAL_GPIO_Init
 106              	.LVL0:
  19:Core/Src/uart3_drv.c **** 
  20:Core/Src/uart3_drv.c ****     /* RX: PB11 输入浮空（F1 系列用输入+上/下拉由 ODR 决定；HAL 里用 Pull 参数
  21:Core/Src/uart3_drv.c ****     GPIO_InitStruct.Pin  = GPIO_PIN_11;
 107              		.loc 1 21 5 view .LVU28
 108              		.loc 1 21 26 is_stmt 0 view .LVU29
 109 0058 4FF40063 		mov	r3, #2048
 110 005c 0493     		str	r3, [sp, #16]
  22:Core/Src/uart3_drv.c ****     GPIO_InitStruct.Mode = GPIO_MODE_INPUT;
 111              		.loc 1 22 5 is_stmt 1 view .LVU30
 112              		.loc 1 22 26 is_stmt 0 view .LVU31
 113 005e 0594     		str	r4, [sp, #20]
  23:Core/Src/uart3_drv.c ****     GPIO_InitStruct.Pull = GPIO_NOPULL;   // 如线较长、干扰大，可改为 GPIO_PULLUP
 114              		.loc 1 23 5 is_stmt 1 view .LVU32
 115              		.loc 1 23 26 is_stmt 0 view .LVU33
 116 0060 0694     		str	r4, [sp, #24]
  24:Core/Src/uart3_drv.c ****     HAL_GPIO_Init(GPIOB, &GPIO_InitStruct);
 117              		.loc 1 24 5 is_stmt 1 view .LVU34
 118 0062 04A9     		add	r1, sp, #16
 119 0064 2846     		mov	r0, r5
 120 0066 FFF7FEFF 		bl	HAL_GPIO_Init
 121              	.LVL1:
  25:Core/Src/uart3_drv.c **** 
  26:Core/Src/uart3_drv.c ****     /* NVIC */
  27:Core/Src/uart3_drv.c ****     HAL_NVIC_SetPriority(USART3_IRQn, 1, 0);
 122              		.loc 1 27 5 view .LVU35
 123 006a 2246     		mov	r2, r4
 124 006c 0121     		movs	r1, #1
 125 006e 2720     		movs	r0, #39
 126 0070 FFF7FEFF 		bl	HAL_NVIC_SetPriority
 127              	.LVL2:
  28:Core/Src/uart3_drv.c ****     HAL_NVIC_EnableIRQ(USART3_IRQn);
 128              		.loc 1 28 5 view .LVU36
 129 0074 2720     		movs	r0, #39
 130 0076 FFF7FEFF 		bl	HAL_NVIC_EnableIRQ
 131              	.LVL3:
  29:Core/Src/uart3_drv.c **** }
 132              		.loc 1 29 1 is_stmt 0 view .LVU37
 133 007a 09B0     		add	sp, sp, #36
 134              	.LCFI2:
 135              		.cfi_def_cfa_offset 12
 136              		@ sp needed
 137 007c 30BD     		pop	{r4, r5, pc}
 138              	.L4:
 139 007e 00BF     		.align	2
 140              	.L3:
 141 0080 00100240 		.word	1073876992
 142 0084 000C0140 		.word	1073810432
 143              		.cfi_endproc
ARM GAS  /tmp/ccu2ipg1.s 			page 4


 144              	.LFE65:
 146              		.section	.rodata.USART3_Driver_Init.str1.4,"aMS",%progbits,1
 147              		.align	2
 148              	.LC0:
 149 0000 75617274 		.ascii	"uart_init_error\012\000"
 149      5F696E69 
 149      745F6572 
 149      726F720A 
 149      00
 150              		.section	.text.USART3_Driver_Init,"ax",%progbits
 151              		.align	1
 152              		.global	USART3_Driver_Init
 153              		.syntax unified
 154              		.thumb
 155              		.thumb_func
 156              		.fpu softvfp
 158              	USART3_Driver_Init:
 159              	.LVL4:
 160              	.LFB66:
  30:Core/Src/uart3_drv.c **** 
  31:Core/Src/uart3_drv.c **** /* ===== 对外函数实现 ===== */
  32:Core/Src/uart3_drv.c **** 
  33:Core/Src/uart3_drv.c **** void USART3_Driver_Init(uint32_t baudrate)
  34:Core/Src/uart3_drv.c **** {
 161              		.loc 1 34 1 is_stmt 1 view -0
 162              		.cfi_startproc
 163              		@ args = 0, pretend = 0, frame = 0
 164              		@ frame_needed = 0, uses_anonymous_args = 0
 165              		.loc 1 34 1 is_stmt 0 view .LVU39
 166 0000 10B5     		push	{r4, lr}
 167              	.LCFI3:
 168              		.cfi_def_cfa_offset 8
 169              		.cfi_offset 4, -8
 170              		.cfi_offset 14, -4
 171 0002 0446     		mov	r4, r0
  35:Core/Src/uart3_drv.c ****     UART3_GPIO_Clock_NVIC_Init();
 172              		.loc 1 35 5 is_stmt 1 view .LVU40
 173 0004 FFF7FEFF 		bl	UART3_GPIO_Clock_NVIC_Init
 174              	.LVL5:
  36:Core/Src/uart3_drv.c **** 
  37:Core/Src/uart3_drv.c ****     huart3.Instance          = USART3;
 175              		.loc 1 37 5 view .LVU41
 176              		.loc 1 37 30 is_stmt 0 view .LVU42
 177 0008 0F48     		ldr	r0, .L9
 178 000a 104B     		ldr	r3, .L9+4
 179 000c 0360     		str	r3, [r0]
  38:Core/Src/uart3_drv.c ****     huart3.Init.BaudRate     = baudrate;
 180              		.loc 1 38 5 is_stmt 1 view .LVU43
 181              		.loc 1 38 30 is_stmt 0 view .LVU44
 182 000e 4460     		str	r4, [r0, #4]
  39:Core/Src/uart3_drv.c ****     huart3.Init.WordLength   = UART_WORDLENGTH_8B;
 183              		.loc 1 39 5 is_stmt 1 view .LVU45
 184              		.loc 1 39 30 is_stmt 0 view .LVU46
 185 0010 0023     		movs	r3, #0
 186 0012 8360     		str	r3, [r0, #8]
  40:Core/Src/uart3_drv.c ****     huart3.Init.StopBits     = UART_STOPBITS_1;
 187              		.loc 1 40 5 is_stmt 1 view .LVU47
ARM GAS  /tmp/ccu2ipg1.s 			page 5


 188              		.loc 1 40 30 is_stmt 0 view .LVU48
 189 0014 C360     		str	r3, [r0, #12]
  41:Core/Src/uart3_drv.c ****     huart3.Init.Parity       = UART_PARITY_NONE;
 190              		.loc 1 41 5 is_stmt 1 view .LVU49
 191              		.loc 1 41 30 is_stmt 0 view .LVU50
 192 0016 0361     		str	r3, [r0, #16]
  42:Core/Src/uart3_drv.c ****     huart3.Init.Mode         = UART_MODE_TX_RX;
 193              		.loc 1 42 5 is_stmt 1 view .LVU51
 194              		.loc 1 42 30 is_stmt 0 view .LVU52
 195 0018 0C22     		movs	r2, #12
 196 001a 4261     		str	r2, [r0, #20]
  43:Core/Src/uart3_drv.c ****     huart3.Init.HwFlowCtl    = UART_HWCONTROL_NONE;
 197              		.loc 1 43 5 is_stmt 1 view .LVU53
 198              		.loc 1 43 30 is_stmt 0 view .LVU54
 199 001c 8361     		str	r3, [r0, #24]
  44:Core/Src/uart3_drv.c ****     huart3.Init.OverSampling = UART_OVERSAMPLING_16;
 200              		.loc 1 44 5 is_stmt 1 view .LVU55
 201              		.loc 1 44 30 is_stmt 0 view .LVU56
 202 001e C361     		str	r3, [r0, #28]
  45:Core/Src/uart3_drv.c **** 
  46:Core/Src/uart3_drv.c ****     if (HAL_UART_Init(&huart3) != HAL_OK)
 203              		.loc 1 46 5 is_stmt 1 view .LVU57
 204              		.loc 1 46 9 is_stmt 0 view .LVU58
 205 0020 FFF7FEFF 		bl	HAL_UART_Init
 206              	.LVL6:
 207              		.loc 1 46 8 view .LVU59
 208 0024 50B9     		cbnz	r0, .L8
 209              	.L6:
  47:Core/Src/uart3_drv.c ****     {
  48:Core/Src/uart3_drv.c ****         /* 这里按需处理错误 */
  49:Core/Src/uart3_drv.c ****         myprintf("uart_init_error\n");
  50:Core/Src/uart3_drv.c ****     }
  51:Core/Src/uart3_drv.c **** 
  52:Core/Src/uart3_drv.c ****     /* 打开接收中断（RXNE + 错误） */
  53:Core/Src/uart3_drv.c ****     __HAL_UART_ENABLE_IT(&huart3, UART_IT_RXNE);
 210              		.loc 1 53 5 is_stmt 1 view .LVU60
 211 0026 084B     		ldr	r3, .L9
 212 0028 1B68     		ldr	r3, [r3]
 213 002a DA68     		ldr	r2, [r3, #12]
 214 002c 42F02002 		orr	r2, r2, #32
 215 0030 DA60     		str	r2, [r3, #12]
  54:Core/Src/uart3_drv.c ****     __HAL_UART_ENABLE_IT(&huart3, UART_IT_ERR);
 216              		.loc 1 54 5 view .LVU61
 217 0032 5A69     		ldr	r2, [r3, #20]
 218 0034 42F00102 		orr	r2, r2, #1
 219 0038 5A61     		str	r2, [r3, #20]
  55:Core/Src/uart3_drv.c **** }...
 220              		.loc 1 55 1 is_stmt 0 view .LVU62
 221 003a 10BD     		pop	{r4, pc}
 222              	.LVL7:
 223              	.L8:
  49:Core/Src/uart3_drv.c ****         myprintf("uart_init_error\n");
 224              		.loc 1 49 9 is_stmt 1 view .LVU63
 225 003c 0449     		ldr	r1, .L9+8
 226 003e 0020     		movs	r0, #0
 227 0040 FFF7FEFF 		bl	SEGGER_RTT_printf
 228              	.LVL8:
ARM GAS  /tmp/ccu2ipg1.s 			page 6


 229 0044 EFE7     		b	.L6
 230              	.L10:
 231 0046 00BF     		.align	2
 232              	.L9:
 233 0048 00000000 		.word	huart3
 234 004c 00480040 		.word	1073760256
 235 0050 00000000 		.word	.LC0
 236              		.cfi_endproc
 237              	.LFE66:
 239              		.comm	huart3,68,4
 240              		.text
 241              	.Letext0:
 242              		.file 2 "/opt/gcc-arm-none-eabi-9-2020-q2-update/arm-none-eabi/include/machine/_default_types.h"
 243              		.file 3 "/opt/gcc-arm-none-eabi-9-2020-q2-update/arm-none-eabi/include/sys/_stdint.h"
 244              		.file 4 "Drivers/CMSIS/Include/core_cm3.h"
 245              		.file 5 "Drivers/CMSIS/Device/ST/STM32F1xx/Include/system_stm32f1xx.h"
 246              		.file 6 "Drivers/CMSIS/Device/ST/STM32F1xx/Include/stm32f103xe.h"
 247              		.file 7 "Drivers/STM32F1xx_HAL_Driver/Inc/stm32f1xx_hal_def.h"
 248              		.file 8 "Drivers/STM32F1xx_HAL_Driver/Inc/stm32f1xx_hal_gpio.h"
 249              		.file 9 "Drivers/STM32F1xx_HAL_Driver/Inc/stm32f1xx_hal_dma.h"
 250              		.file 10 "Drivers/STM32F1xx_HAL_Driver/Inc/stm32f1xx_hal_uart.h"
 251              		.file 11 "Drivers/STM32F1xx_HAL_Driver/Inc/stm32f1xx_hal.h"
 252              		.file 12 "Core/Inc/uart3_drv.h"
 253              		.file 13 "ARM_SEGGER_RTT/SEGGER_RTT.h"
 254              		.file 14 "Drivers/STM32F1xx_HAL_Driver/Inc/stm32f1xx_hal_cortex.h"
ARM GAS  /tmp/ccu2ipg1.s 			page 7

