ARM GAS  /tmp/ccuNs27C.s 			page 1


   1              		.cpu cortex-m3
   2              		.eabi_attribute 20, 1
   3              		.eabi_attribute 21, 1
   4              		.eabi_attribute 23, 3
   5              		.eabi_attribute 24, 1
   6              		.eabi_attribute 25, 1
   7              		.eabi_attribute 26, 1
   8              		.eabi_attribute 30, 1
   9              		.eabi_attribute 34, 1
  10              		.eabi_attribute 18, 4
  11              		.file	"usb.c"
  12              		.text
  13              	.Ltext0:
  14              		.cfi_sections	.debug_frame
  15              		.section	.text.MX_USB_PCD_Init,"ax",%progbits
  16              		.align	1
  17              		.global	MX_USB_PCD_Init
  18              		.arch armv7-m
  19              		.syntax unified
  20              		.thumb
  21              		.thumb_func
  22              		.fpu softvfp
  24              	MX_USB_PCD_Init:
  25              	.LFB65:
  26              		.file 1 "Core/Src/usb.c"
   1:Core/Src/usb.c **** /**
   2:Core/Src/usb.c ****   ******************************************************************************
   3:Core/Src/usb.c ****   * @file    usb.c
   4:Core/Src/usb.c ****   * @brief   This file provides code for the configuration
   5:Core/Src/usb.c ****   *          of the USB instances.
   6:Core/Src/usb.c ****   ******************************************************************************
   7:Core/Src/usb.c ****   * @attention
   8:Core/Src/usb.c ****   *
   9:Core/Src/usb.c ****   * <h2><center>&copy; Copyright (c) 2025 STMicroelectronics.
  10:Core/Src/usb.c ****   * All rights reserved.</center></h2>
  11:Core/Src/usb.c ****   *
  12:Core/Src/usb.c ****   * This software component is licensed by ST under BSD 3-Clause license,
  13:Core/Src/usb.c ****   * the "License"; You may not use this file except in compliance with the
  14:Core/Src/usb.c ****   * License. You may obtain a copy of the License at:
  15:Core/Src/usb.c ****   *                        opensource.org/licenses/BSD-3-Clause
  16:Core/Src/usb.c ****   *
  17:Core/Src/usb.c ****   ******************************************************************************
  18:Core/Src/usb.c ****   */
  19:Core/Src/usb.c **** 
  20:Core/Src/usb.c **** /* Includes ------------------------------------------------------------------*/
  21:Core/Src/usb.c **** #include "usb.h"
  22:Core/Src/usb.c **** 
  23:Core/Src/usb.c **** /* USER CODE BEGIN 0 */
  24:Core/Src/usb.c **** 
  25:Core/Src/usb.c **** /* USER CODE END 0 */
  26:Core/Src/usb.c **** 
  27:Core/Src/usb.c **** PCD_HandleTypeDef hpcd_USB_FS;
  28:Core/Src/usb.c **** 
  29:Core/Src/usb.c **** /* USB init function */
  30:Core/Src/usb.c **** 
  31:Core/Src/usb.c **** void MX_USB_PCD_Init(void)
  32:Core/Src/usb.c **** {
ARM GAS  /tmp/ccuNs27C.s 			page 2


  27              		.loc 1 32 1 view -0
  28              		.cfi_startproc
  29              		@ args = 0, pretend = 0, frame = 0
  30              		@ frame_needed = 0, uses_anonymous_args = 0
  31 0000 08B5     		push	{r3, lr}
  32              	.LCFI0:
  33              		.cfi_def_cfa_offset 8
  34              		.cfi_offset 3, -8
  35              		.cfi_offset 14, -4
  33:Core/Src/usb.c **** 
  34:Core/Src/usb.c ****   hpcd_USB_FS.Instance = USB;
  36              		.loc 1 34 3 view .LVU1
  37              		.loc 1 34 24 is_stmt 0 view .LVU2
  38 0002 0948     		ldr	r0, .L5
  39 0004 094B     		ldr	r3, .L5+4
  40 0006 0360     		str	r3, [r0]
  35:Core/Src/usb.c ****   hpcd_USB_FS.Init.dev_endpoints = 8;
  41              		.loc 1 35 3 is_stmt 1 view .LVU3
  42              		.loc 1 35 34 is_stmt 0 view .LVU4
  43 0008 0823     		movs	r3, #8
  44 000a 4360     		str	r3, [r0, #4]
  36:Core/Src/usb.c ****   hpcd_USB_FS.Init.speed = PCD_SPEED_FULL;
  45              		.loc 1 36 3 is_stmt 1 view .LVU5
  46              		.loc 1 36 26 is_stmt 0 view .LVU6
  47 000c 0223     		movs	r3, #2
  48 000e 8360     		str	r3, [r0, #8]
  37:Core/Src/usb.c ****   hpcd_USB_FS.Init.low_power_enable = DISABLE;
  49              		.loc 1 37 3 is_stmt 1 view .LVU7
  50              		.loc 1 37 37 is_stmt 0 view .LVU8
  51 0010 0023     		movs	r3, #0
  52 0012 8361     		str	r3, [r0, #24]
  38:Core/Src/usb.c ****   hpcd_USB_FS.Init.lpm_enable = DISABLE;
  53              		.loc 1 38 3 is_stmt 1 view .LVU9
  54              		.loc 1 38 31 is_stmt 0 view .LVU10
  55 0014 C361     		str	r3, [r0, #28]
  39:Core/Src/usb.c ****   hpcd_USB_FS.Init.battery_charging_enable = DISABLE;
  56              		.loc 1 39 3 is_stmt 1 view .LVU11
  57              		.loc 1 39 44 is_stmt 0 view .LVU12
  58 0016 0362     		str	r3, [r0, #32]
  40:Core/Src/usb.c ****   if (HAL_PCD_Init(&hpcd_USB_FS) != HAL_OK)
  59              		.loc 1 40 3 is_stmt 1 view .LVU13
  60              		.loc 1 40 7 is_stmt 0 view .LVU14
  61 0018 FFF7FEFF 		bl	HAL_PCD_Init
  62              	.LVL0:
  63              		.loc 1 40 6 view .LVU15
  64 001c 00B9     		cbnz	r0, .L4
  65              	.L1:
  41:Core/Src/usb.c ****   {
  42:Core/Src/usb.c ****     Error_Handler();
  43:Core/Src/usb.c ****   }
  44:Core/Src/usb.c **** 
  45:Core/Src/usb.c **** }
  66              		.loc 1 45 1 view .LVU16
  67 001e 08BD     		pop	{r3, pc}
  68              	.L4:
  42:Core/Src/usb.c ****   }
  69              		.loc 1 42 5 is_stmt 1 view .LVU17
ARM GAS  /tmp/ccuNs27C.s 			page 3


  70 0020 FFF7FEFF 		bl	Error_Handler
  71              	.LVL1:
  72              		.loc 1 45 1 is_stmt 0 view .LVU18
  73 0024 FBE7     		b	.L1
  74              	.L6:
  75 0026 00BF     		.align	2
  76              	.L5:
  77 0028 00000000 		.word	hpcd_USB_FS
  78 002c 005C0040 		.word	1073765376
  79              		.cfi_endproc
  80              	.LFE65:
  82              		.section	.text.HAL_PCD_MspInit,"ax",%progbits
  83              		.align	1
  84              		.global	HAL_PCD_MspInit
  85              		.syntax unified
  86              		.thumb
  87              		.thumb_func
  88              		.fpu softvfp
  90              	HAL_PCD_MspInit:
  91              	.LVL2:
  92              	.LFB66:
  46:Core/Src/usb.c **** 
  47:Core/Src/usb.c **** void HAL_PCD_MspInit(PCD_HandleTypeDef* pcdHandle)
  48:Core/Src/usb.c **** {
  93              		.loc 1 48 1 is_stmt 1 view -0
  94              		.cfi_startproc
  95              		@ args = 0, pretend = 0, frame = 8
  96              		@ frame_needed = 0, uses_anonymous_args = 0
  97              		@ link register save eliminated.
  49:Core/Src/usb.c **** 
  50:Core/Src/usb.c ****   if(pcdHandle->Instance==USB)
  98              		.loc 1 50 3 view .LVU20
  99              		.loc 1 50 15 is_stmt 0 view .LVU21
 100 0000 0268     		ldr	r2, [r0]
 101              		.loc 1 50 5 view .LVU22
 102 0002 094B     		ldr	r3, .L14
 103 0004 9A42     		cmp	r2, r3
 104 0006 00D0     		beq	.L13
 105 0008 7047     		bx	lr
 106              	.L13:
  48:Core/Src/usb.c **** 
 107              		.loc 1 48 1 view .LVU23
 108 000a 82B0     		sub	sp, sp, #8
 109              	.LCFI1:
 110              		.cfi_def_cfa_offset 8
  51:Core/Src/usb.c ****   {
  52:Core/Src/usb.c ****   /* USER CODE BEGIN USB_MspInit 0 */
  53:Core/Src/usb.c **** 
  54:Core/Src/usb.c ****   /* USER CODE END USB_MspInit 0 */
  55:Core/Src/usb.c ****     /* USB clock enable */
  56:Core/Src/usb.c ****     __HAL_RCC_USB_CLK_ENABLE();
 111              		.loc 1 56 5 is_stmt 1 view .LVU24
 112              	.LBB2:
 113              		.loc 1 56 5 view .LVU25
 114              		.loc 1 56 5 view .LVU26
 115 000c 03F5DA33 		add	r3, r3, #111616
 116 0010 DA69     		ldr	r2, [r3, #28]
ARM GAS  /tmp/ccuNs27C.s 			page 4


 117 0012 42F40002 		orr	r2, r2, #8388608
 118 0016 DA61     		str	r2, [r3, #28]
 119              		.loc 1 56 5 view .LVU27
 120 0018 DB69     		ldr	r3, [r3, #28]
 121 001a 03F40003 		and	r3, r3, #8388608
 122 001e 0193     		str	r3, [sp, #4]
 123              		.loc 1 56 5 view .LVU28
 124 0020 019B     		ldr	r3, [sp, #4]
 125              	.LBE2:
 126              		.loc 1 56 5 view .LVU29
  57:Core/Src/usb.c ****   /* USER CODE BEGIN USB_MspInit 1 */
  58:Core/Src/usb.c **** 
  59:Core/Src/usb.c ****   /* USER CODE END USB_MspInit 1 */
  60:Core/Src/usb.c ****   }
  61:Core/Src/usb.c **** }
 127              		.loc 1 61 1 is_stmt 0 view .LVU30
 128 0022 02B0     		add	sp, sp, #8
 129              	.LCFI2:
 130              		.cfi_def_cfa_offset 0
 131              		@ sp needed
 132 0024 7047     		bx	lr
 133              	.L15:
 134 0026 00BF     		.align	2
 135              	.L14:
 136 0028 005C0040 		.word	1073765376
 137              		.cfi_endproc
 138              	.LFE66:
 140              		.section	.text.HAL_PCD_MspDeInit,"ax",%progbits
 141              		.align	1
 142              		.global	HAL_PCD_MspDeInit
 143              		.syntax unified
 144              		.thumb
 145              		.thumb_func
 146              		.fpu softvfp
 148              	HAL_PCD_MspDeInit:
 149              	.LVL3:
 150              	.LFB67:
  62:Core/Src/usb.c **** 
  63:Core/Src/usb.c **** void HAL_PCD_MspDeInit(PCD_HandleTypeDef* pcdHandle)
  64:Core/Src/usb.c **** {
 151              		.loc 1 64 1 is_stmt 1 view -0
 152              		.cfi_startproc
 153              		@ args = 0, pretend = 0, frame = 0
 154              		@ frame_needed = 0, uses_anonymous_args = 0
 155              		@ link register save eliminated.
  65:Core/Src/usb.c **** 
  66:Core/Src/usb.c ****   if(pcdHandle->Instance==USB)
 156              		.loc 1 66 3 view .LVU32
 157              		.loc 1 66 15 is_stmt 0 view .LVU33
 158 0000 0268     		ldr	r2, [r0]
 159              		.loc 1 66 5 view .LVU34
 160 0002 054B     		ldr	r3, .L19
 161 0004 9A42     		cmp	r2, r3
 162 0006 00D0     		beq	.L18
 163              	.L16:
  67:Core/Src/usb.c ****   {
  68:Core/Src/usb.c ****   /* USER CODE BEGIN USB_MspDeInit 0 */
ARM GAS  /tmp/ccuNs27C.s 			page 5


  69:Core/Src/usb.c **** 
  70:Core/Src/usb.c ****   /* USER CODE END USB_MspDeInit 0 */
  71:Core/Src/usb.c ****     /* Peripheral clock disable */
  72:Core/Src/usb.c ****     __HAL_RCC_USB_CLK_DISABLE();
  73:Core/Src/usb.c ****   /* USER CODE BEGIN USB_MspDeInit 1 */
  74:Core/Src/usb.c **** 
  75:Core/Src/usb.c ****   /* USER CODE END USB_MspDeInit 1 */
  76:Core/Src/usb.c ****   }
  77:Core/Src/usb.c **** }
 164              		.loc 1 77 1 view .LVU35
 165 0008 7047     		bx	lr
 166              	.L18:
  72:Core/Src/usb.c ****   /* USER CODE BEGIN USB_MspDeInit 1 */
 167              		.loc 1 72 5 is_stmt 1 view .LVU36
 168 000a 044A     		ldr	r2, .L19+4
 169 000c D369     		ldr	r3, [r2, #28]
 170 000e 23F40003 		bic	r3, r3, #8388608
 171 0012 D361     		str	r3, [r2, #28]
 172              		.loc 1 77 1 is_stmt 0 view .LVU37
 173 0014 F8E7     		b	.L16
 174              	.L20:
 175 0016 00BF     		.align	2
 176              	.L19:
 177 0018 005C0040 		.word	1073765376
 178 001c 00100240 		.word	1073876992
 179              		.cfi_endproc
 180              	.LFE67:
 182              		.comm	hpcd_USB_FS,748,4
 183              		.text
 184              	.Letext0:
 185              		.file 2 "/opt/gcc-arm-none-eabi-9-2020-q2-update/arm-none-eabi/include/machine/_default_types.h"
 186              		.file 3 "/opt/gcc-arm-none-eabi-9-2020-q2-update/arm-none-eabi/include/sys/_stdint.h"
 187              		.file 4 "Drivers/CMSIS/Include/core_cm3.h"
 188              		.file 5 "Drivers/CMSIS/Device/ST/STM32F1xx/Include/system_stm32f1xx.h"
 189              		.file 6 "Drivers/CMSIS/Device/ST/STM32F1xx/Include/stm32f103xe.h"
 190              		.file 7 "Drivers/CMSIS/Device/ST/STM32F1xx/Include/stm32f1xx.h"
 191              		.file 8 "Drivers/STM32F1xx_HAL_Driver/Inc/stm32f1xx_hal_def.h"
 192              		.file 9 "Drivers/STM32F1xx_HAL_Driver/Inc/stm32f1xx_ll_usb.h"
 193              		.file 10 "Drivers/STM32F1xx_HAL_Driver/Inc/stm32f1xx_hal_pcd.h"
 194              		.file 11 "Drivers/STM32F1xx_HAL_Driver/Inc/stm32f1xx_hal.h"
 195              		.file 12 "Core/Inc/usb.h"
 196              		.file 13 "Core/Inc/main.h"
ARM GAS  /tmp/ccuNs27C.s 			page 6

