ARM GAS  /tmp/ccbC75MS.s 			page 1


   1              		.cpu cortex-m3
   2              		.eabi_attribute 20, 1
   3              		.eabi_attribute 21, 1
   4              		.eabi_attribute 23, 3
   5              		.eabi_attribute 24, 1
   6              		.eabi_attribute 25, 1
   7              		.eabi_attribute 26, 1
   8              		.eabi_attribute 30, 1
   9              		.eabi_attribute 34, 1
  10              		.eabi_attribute 18, 4
  11              		.file	"uw_link_proto.c"
  12              		.text
  13              	.Ltext0:
  14              		.cfi_sections	.debug_frame
  15              		.section	.text.UW_Link_CalcCrc16,"ax",%progbits
  16              		.align	1
  17              		.global	UW_Link_CalcCrc16
  18              		.arch armv7-m
  19              		.syntax unified
  20              		.thumb
  21              		.thumb_func
  22              		.fpu softvfp
  24              	UW_Link_CalcCrc16:
  25              	.LVL0:
  26              	.LFB0:
  27              		.file 1 "bridge_protocol/uw_link_proto.c"
   1:bridge_protocol/uw_link_proto.c **** #include "uw_link_proto.h"
   2:bridge_protocol/uw_link_proto.c **** 
   3:bridge_protocol/uw_link_proto.c **** uint16_t UW_Link_CalcCrc16(const uint8_t *data, uint16_t len)
   4:bridge_protocol/uw_link_proto.c **** {
  28              		.loc 1 4 1 view -0
  29              		.cfi_startproc
  30              		@ args = 0, pretend = 0, frame = 0
  31              		@ frame_needed = 0, uses_anonymous_args = 0
  32              		@ link register save eliminated.
  33              		.loc 1 4 1 is_stmt 0 view .LVU1
  34 0000 30B4     		push	{r4, r5}
  35              	.LCFI0:
  36              		.cfi_def_cfa_offset 8
  37              		.cfi_offset 4, -8
  38              		.cfi_offset 5, -4
  39 0002 0546     		mov	r5, r0
   5:bridge_protocol/uw_link_proto.c ****     uint16_t crc = 0xFFFFu;
  40              		.loc 1 5 5 is_stmt 1 view .LVU2
  41              	.LVL1:
   6:bridge_protocol/uw_link_proto.c ****     uint16_t i;
  42              		.loc 1 6 5 view .LVU3
   7:bridge_protocol/uw_link_proto.c ****     uint8_t j;
  43              		.loc 1 7 5 view .LVU4
   8:bridge_protocol/uw_link_proto.c **** 
   9:bridge_protocol/uw_link_proto.c ****     for (i = 0u; i < len; i++)
  44              		.loc 1 9 5 view .LVU5
  45              		.loc 1 9 12 is_stmt 0 view .LVU6
  46 0004 0024     		movs	r4, #0
   5:bridge_protocol/uw_link_proto.c ****     uint16_t i;
  47              		.loc 1 5 14 view .LVU7
  48 0006 4FF6FF70 		movw	r0, #65535
ARM GAS  /tmp/ccbC75MS.s 			page 2


  49              	.LVL2:
  50              		.loc 1 9 5 view .LVU8
  51 000a 0EE0     		b	.L2
  52              	.LVL3:
  53              	.L4:
  10:bridge_protocol/uw_link_proto.c ****     {
  11:bridge_protocol/uw_link_proto.c ****         crc ^= data[i];
  12:bridge_protocol/uw_link_proto.c ****         for (j = 0u; j < 8u; j++)
  13:bridge_protocol/uw_link_proto.c ****         {
  14:bridge_protocol/uw_link_proto.c ****             if ((crc & 0x0001u) != 0u)
  15:bridge_protocol/uw_link_proto.c ****             {
  16:bridge_protocol/uw_link_proto.c ****                 crc = (uint16_t)((crc >> 1u) ^ 0xA001u);
  17:bridge_protocol/uw_link_proto.c ****             }
  18:bridge_protocol/uw_link_proto.c ****             else
  19:bridge_protocol/uw_link_proto.c ****             {
  20:bridge_protocol/uw_link_proto.c ****                 crc >>= 1u;
  54              		.loc 1 20 17 is_stmt 1 view .LVU9
  55              		.loc 1 20 21 is_stmt 0 view .LVU10
  56 000c 4008     		lsrs	r0, r0, #1
  57              	.LVL4:
  58              	.L5:
  12:bridge_protocol/uw_link_proto.c ****         {
  59              		.loc 1 12 30 is_stmt 1 discriminator 2 view .LVU11
  12:bridge_protocol/uw_link_proto.c ****         {
  60              		.loc 1 12 31 is_stmt 0 discriminator 2 view .LVU12
  61 000e 0133     		adds	r3, r3, #1
  62              	.LVL5:
  12:bridge_protocol/uw_link_proto.c ****         {
  63              		.loc 1 12 31 discriminator 2 view .LVU13
  64 0010 DBB2     		uxtb	r3, r3
  65              	.LVL6:
  66              	.L3:
  12:bridge_protocol/uw_link_proto.c ****         {
  67              		.loc 1 12 22 is_stmt 1 discriminator 1 view .LVU14
  12:bridge_protocol/uw_link_proto.c ****         {
  68              		.loc 1 12 9 is_stmt 0 discriminator 1 view .LVU15
  69 0012 072B     		cmp	r3, #7
  70 0014 07D8     		bhi	.L9
  14:bridge_protocol/uw_link_proto.c ****             {
  71              		.loc 1 14 13 is_stmt 1 view .LVU16
  14:bridge_protocol/uw_link_proto.c ****             {
  72              		.loc 1 14 16 is_stmt 0 view .LVU17
  73 0016 10F0010F 		tst	r0, #1
  74 001a F7D0     		beq	.L4
  16:bridge_protocol/uw_link_proto.c ****             }
  75              		.loc 1 16 17 is_stmt 1 view .LVU18
  16:bridge_protocol/uw_link_proto.c ****             }
  76              		.loc 1 16 21 is_stmt 0 view .LVU19
  77 001c 4AF20102 		movw	r2, #40961
  78 0020 82EA5000 		eor	r0, r2, r0, lsr #1
  79              	.LVL7:
  16:bridge_protocol/uw_link_proto.c ****             }
  80              		.loc 1 16 21 view .LVU20
  81 0024 F3E7     		b	.L5
  82              	.L9:
   9:bridge_protocol/uw_link_proto.c ****     {
  83              		.loc 1 9 27 is_stmt 1 discriminator 2 view .LVU21
ARM GAS  /tmp/ccbC75MS.s 			page 3


   9:bridge_protocol/uw_link_proto.c ****     {
  84              		.loc 1 9 28 is_stmt 0 discriminator 2 view .LVU22
  85 0026 0134     		adds	r4, r4, #1
  86              	.LVL8:
   9:bridge_protocol/uw_link_proto.c ****     {
  87              		.loc 1 9 28 discriminator 2 view .LVU23
  88 0028 A4B2     		uxth	r4, r4
  89              	.LVL9:
  90              	.L2:
   9:bridge_protocol/uw_link_proto.c ****     {
  91              		.loc 1 9 18 is_stmt 1 discriminator 1 view .LVU24
   9:bridge_protocol/uw_link_proto.c ****     {
  92              		.loc 1 9 5 is_stmt 0 discriminator 1 view .LVU25
  93 002a 8C42     		cmp	r4, r1
  94 002c 03D2     		bcs	.L10
  11:bridge_protocol/uw_link_proto.c ****         for (j = 0u; j < 8u; j++)
  95              		.loc 1 11 9 is_stmt 1 view .LVU26
  11:bridge_protocol/uw_link_proto.c ****         for (j = 0u; j < 8u; j++)
  96              		.loc 1 11 20 is_stmt 0 view .LVU27
  97 002e 2B5D     		ldrb	r3, [r5, r4]	@ zero_extendqisi2
  11:bridge_protocol/uw_link_proto.c ****         for (j = 0u; j < 8u; j++)
  98              		.loc 1 11 13 view .LVU28
  99 0030 5840     		eors	r0, r0, r3
 100              	.LVL10:
  12:bridge_protocol/uw_link_proto.c ****         {
 101              		.loc 1 12 9 is_stmt 1 view .LVU29
  12:bridge_protocol/uw_link_proto.c ****         {
 102              		.loc 1 12 16 is_stmt 0 view .LVU30
 103 0032 0023     		movs	r3, #0
  12:bridge_protocol/uw_link_proto.c ****         {
 104              		.loc 1 12 9 view .LVU31
 105 0034 EDE7     		b	.L3
 106              	.LVL11:
 107              	.L10:
  21:bridge_protocol/uw_link_proto.c ****             }
  22:bridge_protocol/uw_link_proto.c ****         }
  23:bridge_protocol/uw_link_proto.c ****     }
  24:bridge_protocol/uw_link_proto.c **** 
  25:bridge_protocol/uw_link_proto.c ****     return crc;
  26:bridge_protocol/uw_link_proto.c **** }...
 108              		.loc 1 26 1 view .LVU32
 109 0036 30BC     		pop	{r4, r5}
 110              	.LCFI1:
 111              		.cfi_restore 5
 112              		.cfi_restore 4
 113              		.cfi_def_cfa_offset 0
 114              	.LVL12:
 115              		.loc 1 26 1 view .LVU33
 116 0038 7047     		bx	lr
 117              		.cfi_endproc
 118              	.LFE0:
 120              		.text
 121              	.Letext0:
 122              		.file 2 "/opt/gcc-arm-none-eabi-9-2020-q2-update/arm-none-eabi/include/machine/_default_types.h"
 123              		.file 3 "/opt/gcc-arm-none-eabi-9-2020-q2-update/arm-none-eabi/include/sys/_stdint.h"
ARM GAS  /tmp/ccbC75MS.s 			page 4

