ARM GAS  /tmp/ccBWTGvv.s 			page 1


   1              		.cpu cortex-m3
   2              		.eabi_attribute 20, 1
   3              		.eabi_attribute 21, 1
   4              		.eabi_attribute 23, 3
   5              		.eabi_attribute 24, 1
   6              		.eabi_attribute 25, 1
   7              		.eabi_attribute 26, 1
   8              		.eabi_attribute 30, 1
   9              		.eabi_attribute 34, 1
  10              		.eabi_attribute 18, 4
  11              		.file	"uw_link_tx.c"
  12              		.text
  13              	.Ltext0:
  14              		.cfi_sections	.debug_frame
  15              		.section	.text.UW_LinkTx_AppendByteMsbBits,"ax",%progbits
  16              		.align	1
  17              		.arch armv7-m
  18              		.syntax unified
  19              		.thumb
  20              		.thumb_func
  21              		.fpu softvfp
  23              	UW_LinkTx_AppendByteMsbBits:
  24              	.LVL0:
  25              	.LFB65:
  26              		.file 1 "diff_signal/uw_link_tx.c"
   1:diff_signal/uw_link_tx.c **** #include "uw_link_tx.h"
   2:diff_signal/uw_link_tx.c **** #include "uw_link_proto.h"
   3:diff_signal/uw_link_tx.c **** #include "diff_signal.h"
   4:diff_signal/uw_link_tx.c **** 
   5:diff_signal/uw_link_tx.c **** static void UW_LinkTx_AppendByteMsbBits(uint8_t byte, uint8_t *bits, uint16_t *bit_index)
   6:diff_signal/uw_link_tx.c **** {
  27              		.loc 1 6 1 view -0
  28              		.cfi_startproc
  29              		@ args = 0, pretend = 0, frame = 0
  30              		@ frame_needed = 0, uses_anonymous_args = 0
  31              		@ link register save eliminated.
   7:diff_signal/uw_link_tx.c ****     uint8_t i;
  32              		.loc 1 7 5 view .LVU1
   8:diff_signal/uw_link_tx.c ****     for (i = 0u; i < 8u; i++)
  33              		.loc 1 8 5 view .LVU2
  34              		.loc 1 8 12 is_stmt 0 view .LVU3
  35 0000 0023     		movs	r3, #0
  36              	.LVL1:
  37              		.loc 1 8 18 is_stmt 1 view .LVU4
  38              		.loc 1 8 5 is_stmt 0 view .LVU5
  39 0002 072B     		cmp	r3, #7
  40 0004 10D8     		bhi	.L7
   6:diff_signal/uw_link_tx.c ****     uint8_t i;
  41              		.loc 1 6 1 view .LVU6
  42 0006 70B4     		push	{r4, r5, r6}
  43              	.LCFI0:
  44              		.cfi_def_cfa_offset 12
  45              		.cfi_offset 4, -12
  46              		.cfi_offset 5, -8
  47              		.cfi_offset 6, -4
  48              	.L3:
   9:diff_signal/uw_link_tx.c ****     {
ARM GAS  /tmp/ccBWTGvv.s 			page 2


  10:diff_signal/uw_link_tx.c ****         bits[(*bit_index)++] = (uint8_t)((byte >> (7u - i)) & 0x01u);
  49              		.loc 1 10 9 is_stmt 1 discriminator 3 view .LVU7
  50              		.loc 1 10 55 is_stmt 0 discriminator 3 view .LVU8
  51 0008 C3F10704 		rsb	r4, r3, #7
  52              		.loc 1 10 48 discriminator 3 view .LVU9
  53 000c 40FA04F4 		asr	r4, r0, r4
  54              		.loc 1 10 15 discriminator 3 view .LVU10
  55 0010 1588     		ldrh	r5, [r2]
  56              		.loc 1 10 26 discriminator 3 view .LVU11
  57 0012 6E1C     		adds	r6, r5, #1
  58 0014 1680     		strh	r6, [r2]	@ movhi
  59              		.loc 1 10 32 discriminator 3 view .LVU12
  60 0016 04F00104 		and	r4, r4, #1
  61              		.loc 1 10 30 discriminator 3 view .LVU13
  62 001a 4C55     		strb	r4, [r1, r5]
   8:diff_signal/uw_link_tx.c ****     {
  63              		.loc 1 8 26 is_stmt 1 discriminator 3 view .LVU14
   8:diff_signal/uw_link_tx.c ****     {
  64              		.loc 1 8 27 is_stmt 0 discriminator 3 view .LVU15
  65 001c 0133     		adds	r3, r3, #1
  66              	.LVL2:
   8:diff_signal/uw_link_tx.c ****     {
  67              		.loc 1 8 27 discriminator 3 view .LVU16
  68 001e DBB2     		uxtb	r3, r3
  69              	.LVL3:
   8:diff_signal/uw_link_tx.c ****     {
  70              		.loc 1 8 18 is_stmt 1 discriminator 3 view .LVU17
   8:diff_signal/uw_link_tx.c ****     {
  71              		.loc 1 8 5 is_stmt 0 discriminator 3 view .LVU18
  72 0020 072B     		cmp	r3, #7
  73 0022 F1D9     		bls	.L3
  11:diff_signal/uw_link_tx.c ****     }
  12:diff_signal/uw_link_tx.c **** }
  74              		.loc 1 12 1 view .LVU19
  75 0024 70BC     		pop	{r4, r5, r6}
  76              	.LCFI1:
  77              		.cfi_restore 6
  78              		.cfi_restore 5
  79              		.cfi_restore 4
  80              		.cfi_def_cfa_offset 0
  81 0026 7047     		bx	lr
  82              	.L7:
  83              		.loc 1 12 1 view .LVU20
  84 0028 7047     		bx	lr
  85              		.cfi_endproc
  86              	.LFE65:
  88              		.section	.text.UW_LinkTx_Init,"ax",%progbits
  89              		.align	1
  90              		.global	UW_LinkTx_Init
  91              		.syntax unified
  92              		.thumb
  93              		.thumb_func
  94              		.fpu softvfp
  96              	UW_LinkTx_Init:
  97              	.LFB66:
  13:diff_signal/uw_link_tx.c **** 
  14:diff_signal/uw_link_tx.c **** bool UW_LinkTx_Init(void)
ARM GAS  /tmp/ccBWTGvv.s 			page 3


  15:diff_signal/uw_link_tx.c **** {
  98              		.loc 1 15 1 is_stmt 1 view -0
  99              		.cfi_startproc
 100              		@ args = 0, pretend = 0, frame = 0
 101              		@ frame_needed = 0, uses_anonymous_args = 0
 102              		@ link register save eliminated.
  16:diff_signal/uw_link_tx.c ****     return true;
 103              		.loc 1 16 5 view .LVU22
  17:diff_signal/uw_link_tx.c **** }
 104              		.loc 1 17 1 is_stmt 0 view .LVU23
 105 0000 0120     		movs	r0, #1
 106 0002 7047     		bx	lr
 107              		.cfi_endproc
 108              	.LFE66:
 110              		.section	.text.UW_LinkTx_Send,"ax",%progbits
 111              		.align	1
 112              		.global	UW_LinkTx_Send
 113              		.syntax unified
 114              		.thumb
 115              		.thumb_func
 116              		.fpu softvfp
 118              	UW_LinkTx_Send:
 119              	.LVL4:
 120              	.LFB67:
  18:diff_signal/uw_link_tx.c **** 
  19:diff_signal/uw_link_tx.c **** bool UW_LinkTx_Send(uint8_t device_id, const uint8_t *payload, uint8_t len)
  20:diff_signal/uw_link_tx.c **** {
 121              		.loc 1 20 1 is_stmt 1 view -0
 122              		.cfi_startproc
 123              		@ args = 0, pretend = 0, frame = 2184
 124              		@ frame_needed = 0, uses_anonymous_args = 0
 125              		.loc 1 20 1 is_stmt 0 view .LVU25
 126 0000 70B5     		push	{r4, r5, r6, lr}
 127              	.LCFI2:
 128              		.cfi_def_cfa_offset 16
 129              		.cfi_offset 4, -16
 130              		.cfi_offset 5, -12
 131              		.cfi_offset 6, -8
 132              		.cfi_offset 14, -4
 133 0002 ADF6880D 		subw	sp, sp, #2184
 134              	.LCFI3:
 135              		.cfi_def_cfa_offset 2200
 136 0006 0446     		mov	r4, r0
 137 0008 1546     		mov	r5, r2
  21:diff_signal/uw_link_tx.c ****     uint8_t raw[2u + UW_LINK_MAX_PAYLOAD_LEN + 2u];
 138              		.loc 1 21 5 is_stmt 1 view .LVU26
  22:diff_signal/uw_link_tx.c ****     uint16_t raw_len = 0u;
 139              		.loc 1 22 5 view .LVU27
 140              	.LVL5:
  23:diff_signal/uw_link_tx.c ****     uint16_t bit_index = 0u;
 141              		.loc 1 23 5 view .LVU28
 142              		.loc 1 23 14 is_stmt 0 view .LVU29
 143 000a 0023     		movs	r3, #0
 144 000c ADF80238 		strh	r3, [sp, #2050]	@ movhi
  24:diff_signal/uw_link_tx.c ****     uint8_t bits[2048];
 145              		.loc 1 24 5 is_stmt 1 view .LVU30
  25:diff_signal/uw_link_tx.c ****     uint16_t crc;
ARM GAS  /tmp/ccBWTGvv.s 			page 4


 146              		.loc 1 25 5 view .LVU31
  26:diff_signal/uw_link_tx.c ****     uint8_t i;
 147              		.loc 1 26 5 view .LVU32
  27:diff_signal/uw_link_tx.c **** 
  28:diff_signal/uw_link_tx.c ****     if (((payload == NULL) && (len > 0u)) || (len > UW_LINK_MAX_PAYLOAD_LEN))
 148              		.loc 1 28 5 view .LVU33
 149              		.loc 1 28 8 is_stmt 0 view .LVU34
 150 0010 0E46     		mov	r6, r1
 151 0012 29B1     		cbz	r1, .L24
 152              	.L10:
 153              		.loc 1 28 43 discriminator 3 view .LVU35
 154 0014 802D     		cmp	r5, #128
 155 0016 07D9     		bls	.L25
  29:diff_signal/uw_link_tx.c ****     {
  30:diff_signal/uw_link_tx.c ****         return false;
 156              		.loc 1 30 16 view .LVU36
 157 0018 0020     		movs	r0, #0
 158              	.LVL6:
 159              	.L11:
  31:diff_signal/uw_link_tx.c ****     }
  32:diff_signal/uw_link_tx.c **** 
  33:diff_signal/uw_link_tx.c ****     if (DiffSignal_IsBusy())
  34:diff_signal/uw_link_tx.c ****     {
  35:diff_signal/uw_link_tx.c ****         return false;
  36:diff_signal/uw_link_tx.c ****     }
  37:diff_signal/uw_link_tx.c **** 
  38:diff_signal/uw_link_tx.c ****     /* raw = DEVICE_ID | LEN | PAYLOAD | CRC_L | CRC_H */
  39:diff_signal/uw_link_tx.c ****     raw[raw_len++] = device_id;
  40:diff_signal/uw_link_tx.c ****     raw[raw_len++] = len;
  41:diff_signal/uw_link_tx.c **** 
  42:diff_signal/uw_link_tx.c ****     for (i = 0u; i < len; i++)
  43:diff_signal/uw_link_tx.c ****     {
  44:diff_signal/uw_link_tx.c ****         raw[raw_len++] = payload[i];
  45:diff_signal/uw_link_tx.c ****     }
  46:diff_signal/uw_link_tx.c **** 
  47:diff_signal/uw_link_tx.c ****     crc = UW_Link_CalcCrc16(raw, raw_len);
  48:diff_signal/uw_link_tx.c ****     raw[raw_len++] = (uint8_t)(crc & 0xFFu);
  49:diff_signal/uw_link_tx.c ****     raw[raw_len++] = (uint8_t)((crc >> 8u) & 0xFFu);
  50:diff_signal/uw_link_tx.c **** 
  51:diff_signal/uw_link_tx.c ****     /* 前导改成 4 个连续 1bit */
  52:diff_signal/uw_link_tx.c ****     for (i = 0u; i < UW_LINK_PREAMBLE_BITS; i++)
  53:diff_signal/uw_link_tx.c ****     {
  54:diff_signal/uw_link_tx.c ****         bits[bit_index++] = 1u;
  55:diff_signal/uw_link_tx.c ****     }
  56:diff_signal/uw_link_tx.c **** 
  57:diff_signal/uw_link_tx.c ****     /* SYNC = 0x55 */
  58:diff_signal/uw_link_tx.c ****     UW_LinkTx_AppendByteMsbBits(UW_LINK_SYNC_BYTE, bits, &bit_index);
  59:diff_signal/uw_link_tx.c **** 
  60:diff_signal/uw_link_tx.c ****     /* DEVICE_ID | LEN | PAYLOAD | CRC */
  61:diff_signal/uw_link_tx.c ****     for (i = 0u; i < raw_len; i++)
  62:diff_signal/uw_link_tx.c ****     {
  63:diff_signal/uw_link_tx.c ****         UW_LinkTx_AppendByteMsbBits(raw[i], bits, &bit_index);
  64:diff_signal/uw_link_tx.c ****     }
  65:diff_signal/uw_link_tx.c **** 
  66:diff_signal/uw_link_tx.c ****     /* 结束仍保持 2 个连续 0bit */
  67:diff_signal/uw_link_tx.c ****     for (i = 0u; i < UW_LINK_TAIL_BITS; i++)
  68:diff_signal/uw_link_tx.c ****     {
ARM GAS  /tmp/ccBWTGvv.s 			page 5


  69:diff_signal/uw_link_tx.c ****         bits[bit_index++] = 0u;
  70:diff_signal/uw_link_tx.c ****     }
  71:diff_signal/uw_link_tx.c **** 
  72:diff_signal/uw_link_tx.c ****     return DiffSignal_SendBitStream(bits, bit_index);
  73:diff_signal/uw_link_tx.c **** }...
 160              		.loc 1 73 1 view .LVU37
 161 001a 0DF6880D 		addw	sp, sp, #2184
 162              	.LCFI4:
 163              		.cfi_remember_state
 164              		.cfi_def_cfa_offset 16
 165              		@ sp needed
 166 001e 70BD     		pop	{r4, r5, r6, pc}
 167              	.LVL7:
 168              	.L24:
 169              	.LCFI5:
 170              		.cfi_restore_state
  28:diff_signal/uw_link_tx.c ****     if (((payload == NULL) && (len > 0u)) || (len > UW_LINK_MAX_PAYLOAD_LEN))
 171              		.loc 1 28 28 discriminator 1 view .LVU38
 172 0020 002A     		cmp	r2, #0
 173 0022 F7D0     		beq	.L10
  30:diff_signal/uw_link_tx.c ****         return false;
 174              		.loc 1 30 16 view .LVU39
 175 0024 0020     		movs	r0, #0
 176              	.LVL8:
  30:diff_signal/uw_link_tx.c ****         return false;
 177              		.loc 1 30 16 view .LVU40
 178 0026 F8E7     		b	.L11
 179              	.LVL9:
 180              	.L25:
  33:diff_signal/uw_link_tx.c ****     if (DiffSignal_IsBusy())
 181              		.loc 1 33 5 is_stmt 1 view .LVU41
  33:diff_signal/uw_link_tx.c ****     if (DiffSignal_IsBusy())
 182              		.loc 1 33 9 is_stmt 0 view .LVU42
 183 0028 FFF7FEFF 		bl	DiffSignal_IsBusy
 184              	.LVL10:
  33:diff_signal/uw_link_tx.c ****     if (DiffSignal_IsBusy())
 185              		.loc 1 33 8 view .LVU43
 186 002c 0028     		cmp	r0, #0
 187 002e 60D1     		bne	.L22
  39:diff_signal/uw_link_tx.c ****     raw[raw_len++] = device_id;
 188              		.loc 1 39 5 is_stmt 1 view .LVU44
 189              	.LVL11:
  39:diff_signal/uw_link_tx.c ****     raw[raw_len++] = device_id;
 190              		.loc 1 39 20 is_stmt 0 view .LVU45
 191 0030 8DF80448 		strb	r4, [sp, #2052]
  40:diff_signal/uw_link_tx.c ****     raw[raw_len++] = len;
 192              		.loc 1 40 5 is_stmt 1 view .LVU46
 193              	.LVL12:
  40:diff_signal/uw_link_tx.c ****     raw[raw_len++] = len;
 194              		.loc 1 40 20 is_stmt 0 view .LVU47
 195 0034 8DF80558 		strb	r5, [sp, #2053]
  42:diff_signal/uw_link_tx.c ****     for (i = 0u; i < len; i++)
 196              		.loc 1 42 5 is_stmt 1 view .LVU48
 197              	.LVL13:
  42:diff_signal/uw_link_tx.c ****     for (i = 0u; i < len; i++)
 198              		.loc 1 42 12 is_stmt 0 view .LVU49
 199 0038 0023     		movs	r3, #0
ARM GAS  /tmp/ccBWTGvv.s 			page 6


  40:diff_signal/uw_link_tx.c ****     raw[raw_len++] = len;
 200              		.loc 1 40 16 view .LVU50
 201 003a 0224     		movs	r4, #2
 202              	.LVL14:
 203              	.L12:
  42:diff_signal/uw_link_tx.c ****     for (i = 0u; i < len; i++)
 204              		.loc 1 42 18 is_stmt 1 discriminator 1 view .LVU51
  42:diff_signal/uw_link_tx.c ****     for (i = 0u; i < len; i++)
 205              		.loc 1 42 5 is_stmt 0 discriminator 1 view .LVU52
 206 003c AB42     		cmp	r3, r5
 207 003e 0AD2     		bcs	.L26
  44:diff_signal/uw_link_tx.c ****         raw[raw_len++] = payload[i];
 208              		.loc 1 44 9 is_stmt 1 discriminator 3 view .LVU53
  44:diff_signal/uw_link_tx.c ****         raw[raw_len++] = payload[i];
 209              		.loc 1 44 20 is_stmt 0 discriminator 3 view .LVU54
 210 0040 611C     		adds	r1, r4, #1
 211              	.LVL15:
  44:diff_signal/uw_link_tx.c ****         raw[raw_len++] = payload[i];
 212              		.loc 1 44 33 discriminator 3 view .LVU55
 213 0042 F25C     		ldrb	r2, [r6, r3]	@ zero_extendqisi2
  44:diff_signal/uw_link_tx.c ****         raw[raw_len++] = payload[i];
 214              		.loc 1 44 24 discriminator 3 view .LVU56
 215 0044 0DF68800 		addw	r0, sp, #2184
 216 0048 0444     		add	r4, r4, r0
 217 004a 04F8842C 		strb	r2, [r4, #-132]
  42:diff_signal/uw_link_tx.c ****     for (i = 0u; i < len; i++)
 218              		.loc 1 42 27 is_stmt 1 discriminator 3 view .LVU57
  42:diff_signal/uw_link_tx.c ****     for (i = 0u; i < len; i++)
 219              		.loc 1 42 28 is_stmt 0 discriminator 3 view .LVU58
 220 004e 0133     		adds	r3, r3, #1
 221              	.LVL16:
  42:diff_signal/uw_link_tx.c ****     for (i = 0u; i < len; i++)
 222              		.loc 1 42 28 discriminator 3 view .LVU59
 223 0050 DBB2     		uxtb	r3, r3
 224              	.LVL17:
  44:diff_signal/uw_link_tx.c ****         raw[raw_len++] = payload[i];
 225              		.loc 1 44 20 discriminator 3 view .LVU60
 226 0052 8CB2     		uxth	r4, r1
 227 0054 F2E7     		b	.L12
 228              	.LVL18:
 229              	.L26:
  47:diff_signal/uw_link_tx.c ****     crc = UW_Link_CalcCrc16(raw, raw_len);
 230              		.loc 1 47 5 is_stmt 1 view .LVU61
  47:diff_signal/uw_link_tx.c ****     crc = UW_Link_CalcCrc16(raw, raw_len);
 231              		.loc 1 47 11 is_stmt 0 view .LVU62
 232 0056 2146     		mov	r1, r4
 233 0058 0DF60400 		addw	r0, sp, #2052
 234 005c FFF7FEFF 		bl	UW_Link_CalcCrc16
 235              	.LVL19:
  48:diff_signal/uw_link_tx.c ****     raw[raw_len++] = (uint8_t)(crc & 0xFFu);
 236              		.loc 1 48 5 is_stmt 1 view .LVU63
  48:diff_signal/uw_link_tx.c ****     raw[raw_len++] = (uint8_t)(crc & 0xFFu);
 237              		.loc 1 48 16 is_stmt 0 view .LVU64
 238 0060 631C     		adds	r3, r4, #1
 239 0062 9BB2     		uxth	r3, r3
 240              	.LVL20:
  48:diff_signal/uw_link_tx.c ****     raw[raw_len++] = (uint8_t)(crc & 0xFFu);
ARM GAS  /tmp/ccBWTGvv.s 			page 7


 241              		.loc 1 48 20 view .LVU65
 242 0064 0DF68802 		addw	r2, sp, #2184
 243 0068 2244     		add	r2, r2, r4
 244 006a 02F8840C 		strb	r0, [r2, #-132]
  49:diff_signal/uw_link_tx.c ****     raw[raw_len++] = (uint8_t)((crc >> 8u) & 0xFFu);
 245              		.loc 1 49 5 is_stmt 1 view .LVU66
  49:diff_signal/uw_link_tx.c ****     raw[raw_len++] = (uint8_t)((crc >> 8u) & 0xFFu);
 246              		.loc 1 49 16 is_stmt 0 view .LVU67
 247 006e 0234     		adds	r4, r4, #2
 248 0070 A5B2     		uxth	r5, r4
 249              	.LVL21:
  49:diff_signal/uw_link_tx.c ****     raw[raw_len++] = (uint8_t)((crc >> 8u) & 0xFFu);
 250              		.loc 1 49 22 view .LVU68
 251 0072 C0F30720 		ubfx	r0, r0, #8, #8
 252              	.LVL22:
  49:diff_signal/uw_link_tx.c ****     raw[raw_len++] = (uint8_t)((crc >> 8u) & 0xFFu);
 253              		.loc 1 49 20 view .LVU69
 254 0076 0DF68802 		addw	r2, sp, #2184
 255 007a 1344     		add	r3, r3, r2
 256 007c 03F8840C 		strb	r0, [r3, #-132]
  52:diff_signal/uw_link_tx.c ****     for (i = 0u; i < UW_LINK_PREAMBLE_BITS; i++)
 257              		.loc 1 52 5 is_stmt 1 view .LVU70
 258              	.LVL23:
  52:diff_signal/uw_link_tx.c ****     for (i = 0u; i < UW_LINK_PREAMBLE_BITS; i++)
 259              		.loc 1 52 12 is_stmt 0 view .LVU71
 260 0080 0023     		movs	r3, #0
  52:diff_signal/uw_link_tx.c ****     for (i = 0u; i < UW_LINK_PREAMBLE_BITS; i++)
 261              		.loc 1 52 5 view .LVU72
 262 0082 09E0     		b	.L14
 263              	.LVL24:
 264              	.L15:
  54:diff_signal/uw_link_tx.c ****         bits[bit_index++] = 1u;
 265              		.loc 1 54 9 is_stmt 1 discriminator 3 view .LVU73
  54:diff_signal/uw_link_tx.c ****         bits[bit_index++] = 1u;
 266              		.loc 1 54 23 is_stmt 0 discriminator 3 view .LVU74
 267 0084 BDF80228 		ldrh	r2, [sp, #2050]
 268 0088 511C     		adds	r1, r2, #1
 269 008a ADF80218 		strh	r1, [sp, #2050]	@ movhi
  54:diff_signal/uw_link_tx.c ****         bits[bit_index++] = 1u;
 270              		.loc 1 54 27 discriminator 3 view .LVU75
 271 008e 0121     		movs	r1, #1
 272 0090 0DF80210 		strb	r1, [sp, r2]
  52:diff_signal/uw_link_tx.c ****     for (i = 0u; i < UW_LINK_PREAMBLE_BITS; i++)
 273              		.loc 1 52 45 is_stmt 1 discriminator 3 view .LVU76
  52:diff_signal/uw_link_tx.c ****     for (i = 0u; i < UW_LINK_PREAMBLE_BITS; i++)
 274              		.loc 1 52 46 is_stmt 0 discriminator 3 view .LVU77
 275 0094 0B44     		add	r3, r3, r1
 276              	.LVL25:
  52:diff_signal/uw_link_tx.c ****     for (i = 0u; i < UW_LINK_PREAMBLE_BITS; i++)
 277              		.loc 1 52 46 discriminator 3 view .LVU78
 278 0096 DBB2     		uxtb	r3, r3
 279              	.LVL26:
 280              	.L14:
  52:diff_signal/uw_link_tx.c ****     for (i = 0u; i < UW_LINK_PREAMBLE_BITS; i++)
 281              		.loc 1 52 18 is_stmt 1 discriminator 1 view .LVU79
  52:diff_signal/uw_link_tx.c ****     for (i = 0u; i < UW_LINK_PREAMBLE_BITS; i++)
 282              		.loc 1 52 5 is_stmt 0 discriminator 1 view .LVU80
ARM GAS  /tmp/ccBWTGvv.s 			page 8


 283 0098 012B     		cmp	r3, #1
 284 009a F3D9     		bls	.L15
  58:diff_signal/uw_link_tx.c ****     UW_LinkTx_AppendByteMsbBits(UW_LINK_SYNC_BYTE, bits, &bit_index);
 285              		.loc 1 58 5 is_stmt 1 view .LVU81
 286 009c 0DF60202 		addw	r2, sp, #2050
 287 00a0 6946     		mov	r1, sp
 288 00a2 5520     		movs	r0, #85
 289 00a4 FFF7FEFF 		bl	UW_LinkTx_AppendByteMsbBits
 290              	.LVL27:
  61:diff_signal/uw_link_tx.c ****     for (i = 0u; i < raw_len; i++)
 291              		.loc 1 61 5 view .LVU82
  61:diff_signal/uw_link_tx.c ****     for (i = 0u; i < raw_len; i++)
 292              		.loc 1 61 12 is_stmt 0 view .LVU83
 293 00a8 0024     		movs	r4, #0
 294              	.LVL28:
 295              	.L16:
  61:diff_signal/uw_link_tx.c ****     for (i = 0u; i < raw_len; i++)
 296              		.loc 1 61 18 is_stmt 1 discriminator 1 view .LVU84
  61:diff_signal/uw_link_tx.c ****     for (i = 0u; i < raw_len; i++)
 297              		.loc 1 61 20 is_stmt 0 discriminator 1 view .LVU85
 298 00aa A3B2     		uxth	r3, r4
  61:diff_signal/uw_link_tx.c ****     for (i = 0u; i < raw_len; i++)
 299              		.loc 1 61 5 discriminator 1 view .LVU86
 300 00ac AB42     		cmp	r3, r5
 301 00ae 0CD2     		bcs	.L27
  63:diff_signal/uw_link_tx.c ****         UW_LinkTx_AppendByteMsbBits(raw[i], bits, &bit_index);
 302              		.loc 1 63 9 is_stmt 1 discriminator 3 view .LVU87
 303 00b0 0DF68803 		addw	r3, sp, #2184
 304 00b4 2344     		add	r3, r3, r4
 305 00b6 0DF60202 		addw	r2, sp, #2050
 306 00ba 6946     		mov	r1, sp
 307 00bc 13F8840C 		ldrb	r0, [r3, #-132]	@ zero_extendqisi2
 308 00c0 FFF7FEFF 		bl	UW_LinkTx_AppendByteMsbBits
 309              	.LVL29:
  61:diff_signal/uw_link_tx.c ****     for (i = 0u; i < raw_len; i++)
 310              		.loc 1 61 31 discriminator 3 view .LVU88
  61:diff_signal/uw_link_tx.c ****     for (i = 0u; i < raw_len; i++)
 311              		.loc 1 61 32 is_stmt 0 discriminator 3 view .LVU89
 312 00c4 0134     		adds	r4, r4, #1
 313              	.LVL30:
  61:diff_signal/uw_link_tx.c ****     for (i = 0u; i < raw_len; i++)
 314              		.loc 1 61 32 discriminator 3 view .LVU90
 315 00c6 E4B2     		uxtb	r4, r4
 316              	.LVL31:
  61:diff_signal/uw_link_tx.c ****     for (i = 0u; i < raw_len; i++)
 317              		.loc 1 61 32 discriminator 3 view .LVU91
 318 00c8 EFE7     		b	.L16
 319              	.L27:
  67:diff_signal/uw_link_tx.c ****     for (i = 0u; i < UW_LINK_TAIL_BITS; i++)
 320              		.loc 1 67 12 view .LVU92
 321 00ca 0023     		movs	r3, #0
 322 00cc 09E0     		b	.L18
 323              	.LVL32:
 324              	.L19:
  69:diff_signal/uw_link_tx.c ****         bits[bit_index++] = 0u;
 325              		.loc 1 69 9 is_stmt 1 discriminator 3 view .LVU93
  69:diff_signal/uw_link_tx.c ****         bits[bit_index++] = 0u;
ARM GAS  /tmp/ccBWTGvv.s 			page 9


 326              		.loc 1 69 23 is_stmt 0 discriminator 3 view .LVU94
 327 00ce BDF80228 		ldrh	r2, [sp, #2050]
 328 00d2 511C     		adds	r1, r2, #1
 329 00d4 ADF80218 		strh	r1, [sp, #2050]	@ movhi
  69:diff_signal/uw_link_tx.c ****         bits[bit_index++] = 0u;
 330              		.loc 1 69 27 discriminator 3 view .LVU95
 331 00d8 0021     		movs	r1, #0
 332 00da 0DF80210 		strb	r1, [sp, r2]
  67:diff_signal/uw_link_tx.c ****     for (i = 0u; i < UW_LINK_TAIL_BITS; i++)
 333              		.loc 1 67 41 is_stmt 1 discriminator 3 view .LVU96
  67:diff_signal/uw_link_tx.c ****     for (i = 0u; i < UW_LINK_TAIL_BITS; i++)
 334              		.loc 1 67 42 is_stmt 0 discriminator 3 view .LVU97
 335 00de 0133     		adds	r3, r3, #1
 336              	.LVL33:
  67:diff_signal/uw_link_tx.c ****     for (i = 0u; i < UW_LINK_TAIL_BITS; i++)
 337              		.loc 1 67 42 discriminator 3 view .LVU98
 338 00e0 DBB2     		uxtb	r3, r3
 339              	.LVL34:
 340              	.L18:
  67:diff_signal/uw_link_tx.c ****     for (i = 0u; i < UW_LINK_TAIL_BITS; i++)
 341              		.loc 1 67 18 is_stmt 1 discriminator 1 view .LVU99
  67:diff_signal/uw_link_tx.c ****     for (i = 0u; i < UW_LINK_TAIL_BITS; i++)
 342              		.loc 1 67 5 is_stmt 0 discriminator 1 view .LVU100
 343 00e2 012B     		cmp	r3, #1
 344 00e4 F3D9     		bls	.L19
  72:diff_signal/uw_link_tx.c ****     return DiffSignal_SendBitStream(bits, bit_index);
 345              		.loc 1 72 5 is_stmt 1 view .LVU101
  72:diff_signal/uw_link_tx.c ****     return DiffSignal_SendBitStream(bits, bit_index);
 346              		.loc 1 72 12 is_stmt 0 view .LVU102
 347 00e6 BDF80218 		ldrh	r1, [sp, #2050]
 348 00ea 6846     		mov	r0, sp
 349 00ec FFF7FEFF 		bl	DiffSignal_SendBitStream
 350              	.LVL35:
  72:diff_signal/uw_link_tx.c ****     return DiffSignal_SendBitStream(bits, bit_index);
 351              		.loc 1 72 12 view .LVU103
 352 00f0 93E7     		b	.L11
 353              	.LVL36:
 354              	.L22:
  35:diff_signal/uw_link_tx.c ****         return false;
 355              		.loc 1 35 16 view .LVU104
 356 00f2 0020     		movs	r0, #0
 357 00f4 91E7     		b	.L11
 358              		.cfi_endproc
 359              	.LFE67:
 361              		.text
 362              	.Letext0:
 363              		.file 2 "/opt/gcc-arm-none-eabi-9-2020-q2-update/arm-none-eabi/include/machine/_default_types.h"
 364              		.file 3 "/opt/gcc-arm-none-eabi-9-2020-q2-update/arm-none-eabi/include/sys/_stdint.h"
 365              		.file 4 "Drivers/CMSIS/Include/core_cm3.h"
 366              		.file 5 "Drivers/CMSIS/Device/ST/STM32F1xx/Include/system_stm32f1xx.h"
 367              		.file 6 "Drivers/STM32F1xx_HAL_Driver/Inc/stm32f1xx_hal.h"
 368              		.file 7 "diff_signal/diff_signal.h"
 369              		.file 8 "bridge_protocol/uw_link_proto.h"
ARM GAS  /tmp/ccBWTGvv.s 			page 10

